 PhysXCommon_64

 Timestamp is 6922e0d8 (Sun Nov 23 11:24:24 2025)

 Preferred load address is 0000000180000000

 Start         Length     Name                   Class
 0001:00000000 00003770H .text$di                CODE
 0001:00003770 001f9310H .text$mn                CODE
 0001:001fca80 00000060H .text$mn$00             CODE
 0001:001fcae0 00000c40H .text$mn$21             CODE
 0001:001fd720 000006d0H .text$x                 CODE
 0001:001fddf0 0000000fH .text$yd                CODE
 0002:00000000 00000288H .idata$5                DATA
 0002:00000288 00000038H .00cfg                  DATA
 0002:000002c0 00000008H .CRT$XCA                DATA
 0002:000002c8 00001af0H .CRT$XCU                DATA
 0002:00001db8 00000008H .CRT$XCZ                DATA
 0002:00001dc0 00000008H .CRT$XIA                DATA
 0002:00001dc8 00000018H .CRT$XIC                DATA
 0002:00001de0 00000008H .CRT$XIZ                DATA
 0002:00001de8 00000008H .CRT$XPA                DATA
 0002:00001df0 00000010H .CRT$XPX                DATA
 0002:00001e00 00000008H .CRT$XPXA               DATA
 0002:00001e08 00000008H .CRT$XPZ                DATA
 0002:00001e10 00000008H .CRT$XTA                DATA
 0002:00001e18 00000008H .CRT$XTZ                DATA
 0002:00001e20 00000000H .gehcont$y              DATA
 0002:00001e20 00000000H .gfids$y                DATA
 0002:00001e20 00012610H .rdata                  DATA
 0002:00014430 000001d0H .rdata$00               DATA
 0002:00014600 00000000H .rdata$CastGuardVftablesA DATA
 0002:00014600 00000000H .rdata$CastGuardVftablesC DATA
 0002:00014600 00000464H .rdata$r                DATA
 0002:00014a64 00000258H .rdata$voltmd           DATA
 0002:00014cbc 00000484H .rdata$zzzdbg           DATA
 0002:00015140 00000008H .rtc$IAA                DATA
 0002:00015148 00000008H .rtc$IZZ                DATA
 0002:00015150 00000008H .rtc$TAA                DATA
 0002:00015158 00000008H .rtc$TZZ                DATA
 0002:00015160 00016a70H .xdata                  DATA
 0002:0002bbd0 00000084H .xdata$x                DATA
 0002:0002bc54 00000020H .didat$2                DATA
 0002:0002bc74 00000024H .didat$3                DATA
 0002:0002bc98 000000d0H .didat$4                DATA
 0002:0002bd68 00000430H .didat$6                DATA
 0002:0002c198 000001e8H .didat$7                DATA
 0002:0002c380 0000c6ccH .edata                  DATA
 0002:00038a4c 00000014H .idata$2                DATA
 0002:00038a60 00000018H .idata$3                DATA
 0002:00038a78 00000288H .idata$4                DATA
 0002:00038d00 000005dcH .idata$6                DATA
 0003:00000000 00001cf0H .data                   DATA
 0003:00001cf0 00001278H .data$r                 DATA
 0003:00002f68 000000f0H .data$rs                DATA
 0003:00003058 000000d8H .didat$5                DATA
 0003:00003130 0000473cH .bss                    DATA
 0004:00000000 0000d3b0H .pdata                  DATA
 0005:00000000 00002208H _RDATA                  DATA
 0006:00000000 00000100H .fptable                DATA
 0007:00000000 000000a0H .rsrc$01                DATA
 0007:000000a0 000004b0H .rsrc$02                DATA

  Address         Publics by Value              Rva+Base               Lib:Object

 0000:00000000       __AbsoluteZero             0000000000000000     <absolute>
 0000:00000000       ___safe_se_handler_count   0000000000000000     <absolute>
 0000:00000000       ___safe_se_handler_table   0000000000000000     <absolute>
 0000:00000000       __arm64x_extra_rfe_table   0000000000000000     <absolute>
 0000:00000000       __arm64x_extra_rfe_table_size 0000000000000000     <absolute>
 0000:00000000       __arm64x_native_entrypoint 0000000000000000     <absolute>
 0000:00000000       __arm64x_redirection_metadata 0000000000000000     <absolute>
 0000:00000000       __arm64x_redirection_metadata_count 0000000000000000     <absolute>
 0000:00000000       __dynamic_value_reloc_table 0000000000000000     <absolute>
 0000:00000000       __enclave_config           0000000000000000     <absolute>
 0000:00000000       __guard_check_icall_a64n_fptr 0000000000000000     <absolute>
 0000:00000000       __guard_eh_cont_count      0000000000000000     <absolute>
 0000:00000000       __guard_eh_cont_table      0000000000000000     <absolute>
 0000:00000000       __guard_fids_count         0000000000000000     <absolute>
 0000:00000000       __guard_fids_table         0000000000000000     <absolute>
 0000:00000000       __guard_iat_count          0000000000000000     <absolute>
 0000:00000000       __guard_iat_table          0000000000000000     <absolute>
 0000:00000000       __guard_longjmp_count      0000000000000000     <absolute>
 0000:00000000       __guard_longjmp_table      0000000000000000     <absolute>
 0000:00000000       __hybrid_auxiliary_delayload_iat 0000000000000000     <absolute>
 0000:00000000       __hybrid_auxiliary_delayload_iat_copy 0000000000000000     <absolute>
 0000:00000000       __hybrid_auxiliary_iat     0000000000000000     <absolute>
 0000:00000000       __hybrid_auxiliary_iat_copy 0000000000000000     <absolute>
 0000:00000000       __hybrid_code_map          0000000000000000     <absolute>
 0000:00000000       __hybrid_code_map_count    0000000000000000     <absolute>
 0000:00000000       __hybrid_image_info_bitfield 0000000000000000     <absolute>
 0000:00000000       __x64_code_ranges_to_entry_points 0000000000000000     <absolute>
 0000:00000000       __x64_code_ranges_to_entry_points_count 0000000000000000     <absolute>
 0000:00000100       __guard_flags              0000000000000100     <absolute>
 0000:00000000       __ImageBase                0000000180000000     <linker-defined>
 0001:00003770       ??0PtrTable@Cm@physx@@QEAA@W4PxEMPTY@2@@Z 0000000180004770 f i CmPtrTable.obj
 0001:00003790       ??0PtrTable@Cm@physx@@QEAA@XZ 0000000180004790 f   CmPtrTable.obj
 0001:000037a0       ??1AABBTreeBuildNode@Gu@physx@@QEAA@XZ 00000001800047a0 f   GuMeshFactory.obj
 0001:000037a0       ??1BigConvexDataBuilder@physx@@QEAA@XZ 00000001800047a0 f   GuCookingBigConvexDataBuilder.obj
 0001:000037a0       ??1Box@Gu@physx@@QEAA@XZ   00000001800047a0 f   GuBox.obj
 0001:000037a0       ??1HeightFieldData@Gu@physx@@QEAA@XZ 00000001800047a0 f   GuCCTSweepTests.obj
 0001:000037a0       ??1PtrTable@Cm@physx@@QEAA@XZ 00000001800047a0 f   CmPtrTable.obj
 0001:000037a0       ?build@CompanionPrunerIncremental@@UEAAXXZ 00000001800047a0 f   GuSecondaryPruner.obj
 0001:000037a0       ?checkTreeLeaf@IncrementalAABBTree@Gu@physx@@QEAAXPEAVIncrementalAABBTreeNode@23@I@Z 00000001800047a0 f   GuIncrementalAABBTree.obj
 0001:000037a0       ?execute@?$PxThreadT@V?$PxReflectionAllocator@VPxThreadImpl@physx@@@physx@@@physx@@UEAAXXZ 00000001800047a0 f   GuSDF.obj
 0001:000037a0       ?execute@PxRunnable@physx@@UEAAXXZ 00000001800047a0 f   GuSDF.obj
 0001:000037a0       ?merge@BucketPruner@Gu@physx@@UEAAXPEBX@Z 00000001800047a0 f   GuBucketPruner.obj
 0001:000037a0       ?merge@IncrementalAABBPruner@Gu@physx@@UEAAXPEBX@Z 00000001800047a0 f   GuIncrementalAABBPruner.obj
 0001:000037a0       ?onMeshIndexFormatChange@TriangleMeshBuilder@physx@@UEAAXXZ 00000001800047a0 f   GuCookingTriangleMesh.obj
 0001:000037a0       ?profile@Callback@RTree@Gu@physx@@UEAAXXZ 00000001800047a0 f   GuMidphaseRTree.obj
 0001:000037a0       ?purge@BucketPruner@Gu@physx@@UEAAXXZ 00000001800047a0 f   GuBucketPruner.obj
 0001:000037a0       ?requiresObjects@ConvexMesh@Gu@physx@@UEAAXAEAVPxProcessPxBaseCallback@3@@Z 00000001800047a0 f   GuConvexMesh.obj
 0001:000037a0       ?requiresObjects@DeformableVolumeMesh@Gu@physx@@UEAAXAEAVPxProcessPxBaseCallback@3@@Z 00000001800047a0 f   GuTetrahedronMesh.obj
 0001:000037a0       ?requiresObjects@HeightField@Gu@physx@@UEAAXAEAVPxProcessPxBaseCallback@3@@Z 00000001800047a0 f   GuHeightField.obj
 0001:000037a0       ?requiresObjects@TriangleMesh@Gu@physx@@UEAAXAEAVPxProcessPxBaseCallback@3@@Z 00000001800047a0 f   GuTriangleMesh.obj
 0001:000037a0       ?swapIndex@CompanionPrunerAABBTree@@UEAAXII@Z 00000001800047a0 f   GuSecondaryPruner.obj
 0001:000037a0       ?swapIndex@CompanionPrunerBucket@@UEAAXII@Z 00000001800047a0 f   GuSecondaryPruner.obj
 0001:000037a0       ?timeStampChange@CompanionPrunerAABBTree@@UEAAXXZ 00000001800047a0 f   GuSecondaryPruner.obj
 0001:000037a0       ?timeStampChange@CompanionPrunerBucket@@UEAAXXZ 00000001800047a0 f   GuSecondaryPruner.obj
 0001:000037a0       ?visualize@BasePruner@Gu@physx@@UEBAXAEAVPxRenderOutput@3@II@Z 00000001800047a0 f   GuIncrementalAABBPruner.obj
 0001:000037a0       _guard_check_icall_nop     00000001800047a0 f   LIBCMT:guard_support.obj
 0001:000037b0       ??4AABBTreeBounds@Gu@physx@@QEAAAEAV012@AEBV012@@Z 00000001800047b0 f i GuMeshFactory.obj
 0001:000037b0       ??4CmModuleUpdateLoader@Cm@physx@@QEAAAEAV012@AEBV012@@Z 00000001800047b0 f i CmWindowsModuleUpdateLoader.obj
 0001:000037b0       ??4PtrTable@Cm@physx@@QEAAAEAU012@AEBU012@@Z 00000001800047b0 f i CmPtrTable.obj
 0001:000037c0       ?add@PtrTable@Cm@physx@@QEAAXPEAXAEAVPtrTableStorageManager@23@@Z 00000001800047c0 f   CmPtrTable.obj
 0001:00003880       ?clear@PtrTable@Cm@physx@@QEAAXAEAVPtrTableStorageManager@23@@Z 0000000180004880 f   CmPtrTable.obj
 0001:000038f0       ?exportExtraData@PtrTable@Cm@physx@@QEAAXAEAVPxSerializationContext@3@@Z 00000001800048f0 f   CmPtrTable.obj
 0001:00003940       ?find@PtrTable@Cm@physx@@QEBAIPEBX@Z 0000000180004940 f   CmPtrTable.obj
 0001:00003970       ?getCount@PtrTable@Cm@physx@@QEBAIXZ 0000000180004970 f i CmPtrTable.obj
 0001:00003980       ?getPtrs@PtrTable@Cm@physx@@QEAAPEAPEAXXZ 0000000180004980 f i CmPtrTable.obj
 0001:00003980       ?getPtrs@PtrTable@Cm@physx@@QEBAPEBQEAXXZ 0000000180004980 f i CmPtrTable.obj
 0001:00003990       ?importExtraData@PtrTable@Cm@physx@@QEAAXAEAVPxDeserializationContext@3@@Z 0000000180004990 f   CmPtrTable.obj
 0001:000039c0       ?realloc@PtrTable@Cm@physx@@AEAAXIIAEAVPtrTableStorageManager@23@@Z 00000001800049c0 f   CmPtrTable.obj
 0001:00003a70       ?replaceWithLast@PtrTable@Cm@physx@@QEAAXIAEAVPtrTableStorageManager@23@@Z 0000000180004a70 f   CmPtrTable.obj
 0001:00003b70       ??_ECollection@Cm@physx@@UEAAPEAXI@Z 0000000180004b70 f i CmCollection.obj
 0001:00003b70       ??_GCollection@Cm@physx@@UEAAPEAXI@Z 0000000180004b70 f i CmCollection.obj
 0001:00003c30       ??_EPxCollection@physx@@MEAAPEAXI@Z 0000000180004c30 f i CmCollection.obj
 0001:00003c30       ??_GPxCollection@physx@@MEAAPEAXI@Z 0000000180004c30 f i CmCollection.obj
 0001:00003c60       ?add@Collection@Cm@physx@@UEAAXAEAVPxBase@3@_K@Z 0000000180004c60 f   CmCollection.obj
 0001:00003d60       ?add@Collection@Cm@physx@@UEAAXAEAVPxCollection@3@@Z 0000000180004d60 f   CmCollection.obj
 0001:00003fb0       ?addId@Collection@Cm@physx@@UEAAXAEAVPxBase@3@_K@Z 0000000180004fb0 f   CmCollection.obj
 0001:00004100       ?contains@Collection@Cm@physx@@UEBA_NAEAVPxBase@3@@Z 0000000180005100 f   CmCollection.obj
 0001:000041b0       ?create@?$PxHashBase@V?$PxPair@$$CB_KPEAVPxBase@physx@@@physx@@_KU?$PxHash@_K@2@UGetKey@?$PxHashMapBase@_KPEAVPxBase@physx@@U?$PxHash@_K@2@VPxAllocator@2@@2@VPxAllocator@2@$00@physx@@QEAAPEAV?$PxPair@$$CB_KPEAVPxBase@physx@@@2@AEB_KAEA_N@Z 00000001800051b0 f i CmCollection.obj
 0001:000041b0       ?create@?$PxHashBase@V?$PxPair@QEAVPxBase@physx@@_K@physx@@PEAVPxBase@2@U?$PxHash@PEAVPxBase@physx@@@2@UGetKey@?$PxHashMapBase@PEAVPxBase@physx@@_KU?$PxHash@PEAVPxBase@physx@@@2@VPxAllocator@2@@2@VPxAllocator@2@$00@physx@@QEAAPEAV?$PxPair@QEAVPxBase@physx@@_K@2@AEBQEAVPxBase@2@AEA_N@Z 00000001800051b0 f i CmCollection.obj
 0001:00004340       ?erase@?$PxHashBase@V?$PxPair@$$CB_KPEAVPxBase@physx@@@physx@@_KU?$PxHash@_K@2@UGetKey@?$PxHashMapBase@_KPEAVPxBase@physx@@U?$PxHash@_K@2@VPxAllocator@2@@2@VPxAllocator@2@$00@physx@@QEAA_NAEB_K@Z 0000000180005340 f i CmCollection.obj
 0001:00004340       ?erase@?$PxHashBase@V?$PxPair@QEAVPxBase@physx@@_K@physx@@PEAVPxBase@2@U?$PxHash@PEAVPxBase@physx@@@2@UGetKey@?$PxHashMapBase@PEAVPxBase@physx@@_KU?$PxHash@PEAVPxBase@physx@@@2@VPxAllocator@2@@2@VPxAllocator@2@$00@physx@@QEAA_NAEBQEAVPxBase@2@@Z 0000000180005340 f i CmCollection.obj
 0001:000044f0       ?find@?$PxHashMapBase@PEAVPxBase@physx@@_KU?$PxHash@PEAVPxBase@physx@@@2@VPxAllocator@2@@physx@@QEBAPEBV?$PxPair@QEAVPxBase@physx@@_K@2@AEBQEAVPxBase@2@@Z 00000001800054f0 f i CmCollection.obj
 0001:000044f0       ?find@?$PxHashMapBase@_KPEAVPxBase@physx@@U?$PxHash@_K@2@VPxAllocator@2@@physx@@QEBAPEBV?$PxPair@$$CB_KPEAVPxBase@physx@@@2@AEB_K@Z 00000001800054f0 f i CmCollection.obj
 0001:00004590       ?find@Collection@Cm@physx@@UEBAPEAVPxBase@3@_K@Z 0000000180005590 f   CmCollection.obj
 0001:00004600       ?getId@Collection@Cm@physx@@UEBA_KAEBVPxBase@3@@Z 0000000180005600 f   CmCollection.obj
 0001:000046b0       ?getIds@Collection@Cm@physx@@UEBAIPEA_KII@Z 00000001800056b0 f   CmCollection.obj
 0001:00004810       ?getNbIds@Collection@Cm@physx@@UEBAIXZ 0000000180005810 f   CmCollection.obj
 0001:00004820       ?getNbObjects@Collection@Cm@physx@@UEBAIXZ 0000000180005820 f   CmCollection.obj
 0001:00004830       ?getObject@Collection@Cm@physx@@UEBAAEAVPxBase@3@I@Z 0000000180005830 f   CmCollection.obj
 0001:00004840       ?getObjects@Collection@Cm@physx@@UEBAIPEAPEAVPxBase@3@II@Z 0000000180005840 f   CmCollection.obj
 0001:00004900       ?insert@?$PxHashMapBase@_KPEAVPxBase@physx@@U?$PxHash@_K@2@VPxAllocator@2@@physx@@QEAA_N_KQEAVPxBase@2@@Z 0000000180005900 f i CmCollection.obj
 0001:00004950       ?release@Collection@Cm@physx@@UEAAXXZ 0000000180005950 f i CmCollection.obj
 0001:00004970       ?remove@Collection@Cm@physx@@UEAAXAEAVPxBase@3@@Z 0000000180005970 f   CmCollection.obj
 0001:00004ab0       ?remove@Collection@Cm@physx@@UEAAXAEAVPxCollection@3@@Z 0000000180005ab0 f   CmCollection.obj
 0001:00004c10       ?removeId@Collection@Cm@physx@@UEAAX_K@Z 0000000180005c10 f   CmCollection.obj
 0001:00004d00       ?reserveInternal@?$PxHashBase@V?$PxPair@$$CB_KPEAVPxBase@physx@@@physx@@_KU?$PxHash@_K@2@UGetKey@?$PxHashMapBase@_KPEAVPxBase@physx@@U?$PxHash@_K@2@VPxAllocator@2@@2@VPxAllocator@2@$00@physx@@AEAAXI@Z 0000000180005d00 f i CmCollection.obj
 0001:00004d00       ?reserveInternal@?$PxHashBase@V?$PxPair@QEAVPxBase@physx@@_K@physx@@PEAVPxBase@2@U?$PxHash@PEAVPxBase@physx@@@2@UGetKey@?$PxHashMapBase@PEAVPxBase@physx@@_KU?$PxHash@PEAVPxBase@physx@@@2@VPxAllocator@2@@2@VPxAllocator@2@$00@physx@@AEAAXI@Z 0000000180005d00 f i CmCollection.obj
 0001:00004ef0       PxCreateCollection         0000000180005ef0 f   CmCollection.obj
 0001:00004ff0       ??0RadixSort@Cm@physx@@QEAA@XZ 0000000180005ff0 f   CmRadixSort.obj
 0001:00005020       ??0RadixSortBuffered@Cm@physx@@QEAA@XZ 0000000180006020 f   CmRadixSort.obj
 0001:00005050       ??1RadixSort@Cm@physx@@UEAA@XZ 0000000180006050 f   CmRadixSort.obj
 0001:00005060       ??1RadixSortBuffered@Cm@physx@@UEAA@XZ 0000000180006060 f   CmRadixSort.obj
 0001:00005090       ??_ERadixSort@Cm@physx@@UEAAPEAXI@Z 0000000180006090 f i CmRadixSort.obj
 0001:00005120       ??_ERadixSortBuffered@Cm@physx@@UEAAPEAXI@Z 0000000180006120 f i CmRadixSort.obj
 0001:00005210       ?CheckResize@RadixSortBuffered@Cm@physx@@AEAAXI@Z 0000000180006210 f i CmRadixSort.obj
 0001:00005250       ?GetNbHits@RadixSort@Cm@physx@@QEBAIXZ 0000000180006250 f i CmRadixSort.obj
 0001:00005260       ?GetNbTotalCalls@RadixSort@Cm@physx@@QEBAIXZ 0000000180006260 f i CmRadixSort.obj
 0001:00005270       ?GetRanks@RadixSort@Cm@physx@@QEBAPEBIXZ 0000000180006270 f i CmRadixSort.obj
 0001:00005270       ?getGridModelInvMass@DeformableVolumeAuxData@Gu@physx@@UEAAPEAMXZ 0000000180006270 f i GuTetrahedronMesh.obj
 0001:00005270       ?getHeightField@HeightFieldUtil@Gu@physx@@QEBAAEBVHeightField@23@XZ 0000000180006270 f i GuCCTSweepTests.obj
 0001:00005270       ?getSimulationMesh@DeformableVolumeMesh@Gu@physx@@UEAAPEAVPxTetrahedronMesh@3@XZ 0000000180006270 f i GuTetrahedronMesh.obj
 0001:00005270       ?getSimulationMesh@DeformableVolumeMesh@Gu@physx@@UEBAPEBVPxTetrahedronMesh@3@XZ 0000000180006270 f i GuTetrahedronMesh.obj
 0001:00005280       ?GetRecyclable@RadixSort@Cm@physx@@QEBAPEAIXZ 0000000180006280 f i CmRadixSort.obj
 0001:00005280       ?GetValencies@BigConvexData@physx@@QEBAPEBUValency@Gu@2@XZ 0000000180006280 f i GuBigConvexData.obj
 0001:00005280       ?getCollisionMesh@DeformableVolumeMesh@Gu@physx@@UEAAPEAVPxTetrahedronMesh@3@XZ 0000000180006280 f i GuTetrahedronMesh.obj
 0001:00005280       ?getCollisionMesh@DeformableVolumeMesh@Gu@physx@@UEBAPEBVPxTetrahedronMesh@3@XZ 0000000180006280 f i GuTetrahedronMesh.obj
 0001:00005280       ?getHeightFieldGeometry@HeightFieldUtil@Gu@physx@@QEBAAEBVPxHeightFieldGeometry@3@XZ 0000000180006280 f i GuCCTSweepTests.obj
 0001:00005280       ?getObjects@PruningPool@Gu@physx@@QEBAPEAUPrunerPayload@23@XZ 0000000180006280 f i GuIncrementalAABBPrunerCore.obj
 0001:00005280       ?getPos@AABBTreeBuildNode@Gu@physx@@QEBAPEBV123@XZ 0000000180006280 f i GuMeshFactory.obj
 0001:00005280       ?getVertices@TetrahedronMesh@Gu@physx@@UEBAPEBV?$PxVec3T@M@3@XZ 0000000180006280 f i GuTetrahedronMesh.obj
 0001:00005280       ?getVertices@TriangleMesh@Gu@physx@@UEBAPEBV?$PxVec3T@M@3@XZ 0000000180006280 f i GuTriangleMesh.obj
 0001:00005290       ?Resize@RadixSortBuffered@Cm@physx@@AEAA_NI@Z 0000000180006290 f   CmRadixSort.obj
 0001:00005390       ?SetBuffers@RadixSort@Cm@physx@@QEAA_NPEAI00PEAPEAI@Z 0000000180006390 f   CmRadixSort.obj
 0001:000053d0       ?Sort@RadixSort@Cm@physx@@QEAAAEAV123@PEBIIW4RadixHint@23@@Z 00000001800063d0 f   CmRadixSort.obj
 0001:00005a80       ?Sort@RadixSort@Cm@physx@@QEAAAEAV123@PEBMI@Z 0000000180006a80 f   CmRadixSort.obj
 0001:00006210       ?Sort@RadixSortBuffered@Cm@physx@@QEAAAEAV123@PEBIIW4RadixHint@23@@Z 0000000180007210 f   CmRadixSort.obj
 0001:000062b0       ?Sort@RadixSortBuffered@Cm@physx@@QEAAAEAV123@PEBMI@Z 00000001800072b0 f   CmRadixSort.obj
 0001:00006340       ?invalidateRanks@RadixSort@Cm@physx@@QEAAXXZ 0000000180007340 f i CmRadixSort.obj
 0001:00006350       ?reset@RadixSortBuffered@Cm@physx@@QEAAXXZ 0000000180007350 f   CmRadixSort.obj
 0001:000063e0       ?ReadHeader@Cm@physx@@YA_NEEEEAEAIAEA_NAEAVPxInputStream@2@@Z 00000001800073e0 f   CmSerialize.obj
 0001:00006540       ?ReadIndices@Cm@physx@@YAXGIPEAGAEAVPxInputStream@2@_N@Z 0000000180007540 f   CmSerialize.obj
 0001:000066f0       ?StoreIndices@Cm@physx@@YAXGIPEBGAEAVPxOutputStream@2@_N@Z 00000001800076f0 f   CmSerialize.obj
 0001:000067e0       ?WriteHeader@Cm@physx@@YA_NEEEEI_NAEAVPxOutputStream@2@@Z 00000001800077e0 f   CmSerialize.obj
 0001:00006910       ?computeMaxIndex@physx@@YAGPEBGI@Z 0000000180007910 f   CmSerialize.obj
 0001:00006940       ?computeMaxIndex@physx@@YAIPEBII@Z 0000000180007940 f   CmSerialize.obj
 0001:00006970       ?readByteBuffer@physx@@YAXPEAEIAEAVPxInputStream@1@@Z 0000000180007970 f   CmSerialize.obj
 0001:00006970       ?writeByteBuffer@physx@@YAXPEBEIAEAVPxOutputStream@1@@Z 0000000180007970 f   CmSerialize.obj
 0001:00006990       ?readChunk@physx@@YAXAEAC000AEAVPxInputStream@1@@Z 0000000180007990 f   CmSerialize.obj
 0001:00006a10       ?readDword@physx@@YAI_NAEAVPxInputStream@1@@Z 0000000180007a10 f   CmSerialize.obj
 0001:00006a70       ?readFloat@physx@@YAM_NAEAVPxInputStream@1@@Z 0000000180007a70 f   CmSerialize.obj
 0001:00006ad0       ?readFloatBuffer@physx@@YA_NPEAMI_NAEAVPxInputStream@1@@Z 0000000180007ad0 f   CmSerialize.obj
 0001:00006b50       ?readHeader@physx@@YA_NCCCCAEAIAEA_NAEAVPxInputStream@1@@Z 0000000180007b50 f   CmSerialize.obj
 0001:00006ca0       ?readIndices@physx@@YAXIIPEAIAEAVPxInputStream@1@_N@Z 0000000180007ca0 f   CmSerialize.obj
 0001:00006dd0       ?readWord@physx@@YAG_NAEAVPxInputStream@1@@Z 0000000180007dd0 f   CmSerialize.obj
 0001:00006e10       ?readWordBuffer@physx@@YAXPEAGI_NAEAVPxInputStream@1@@Z 0000000180007e10 f   CmSerialize.obj
 0001:00006e80       ?storeIndices@physx@@YAXIIPEBIAEAVPxOutputStream@1@_N@Z 0000000180007e80 f   CmSerialize.obj
 0001:00007010       ?writeDword@physx@@YAXI_NAEAVPxOutputStream@1@@Z 0000000180008010 f   CmSerialize.obj
 0001:00007060       ?writeFloat@physx@@YAXM_NAEAVPxOutputStream@1@@Z 0000000180008060 f   CmSerialize.obj
 0001:000070b0       ?writeFloatBuffer@physx@@YAXPEBMI_NAEAVPxOutputStream@1@@Z 00000001800080b0 f   CmSerialize.obj
 0001:00007150       ?writeHeader@physx@@YA_NCCCCI_NAEAVPxOutputStream@1@@Z 0000000180008150 f   CmSerialize.obj
 0001:00007280       ?writeWord@physx@@YAXG_NAEAVPxOutputStream@1@@Z 0000000180008280 f   CmSerialize.obj
 0001:000072c0       ?writeWordBuffer@physx@@YAXPEBGI_NAEAVPxOutputStream@1@@Z 00000001800082c0 f   CmSerialize.obj
 0001:00007340       ??6PxRenderOutput@physx@@QEAAAEAV01@AEBV?$PxTransformT@M@1@@Z 0000000180008340 f i CmVisualization.obj
 0001:000074c0       ??6PxRenderOutput@physx@@QEAAAEAV01@AEBV?$PxVec3T@M@1@@Z 00000001800084c0 f i CmVisualization.obj
 0001:000077b0       ?renderOutputDebugArrow@Cm@physx@@YAXAEAVPxRenderOutput@2@AEBUPxDebugArrow@2@@Z 00000001800087b0 f   CmVisualization.obj
 0001:00007b60       ?renderOutputDebugBasis@Cm@physx@@YAXAEAVPxRenderOutput@2@AEBUPxDebugBasis@2@@Z 0000000180008b60 f   CmVisualization.obj
 0001:000080c0       ?renderOutputDebugBox@Cm@physx@@YAXAEAVPxRenderOutput@2@AEBVPxBounds3@2@@Z 00000001800090c0 f   CmVisualization.obj
 0001:00008330       ?renderOutputDebugCircle@Cm@physx@@YAXAEAVPxRenderOutput@2@IM@Z 0000000180009330 f   CmVisualization.obj
 0001:00008410       ?visualizeAngularLimit@Cm@physx@@YAXAEAVPxRenderOutput@2@MAEBV?$PxTransformT@M@2@MM@Z 0000000180009410 f   CmVisualization.obj
 0001:000085a0       ?visualizeDoubleCone@Cm@physx@@YAXAEAVPxRenderOutput@2@MAEBV?$PxTransformT@M@2@M@Z 00000001800095a0 f   CmVisualization.obj
 0001:000087c0       ?visualizeJointFrames@Cm@physx@@YAXAEAVPxRenderOutput@2@MAEBV?$PxTransformT@M@2@1@Z 00000001800097c0 f   CmVisualization.obj
 0001:000094b0       ?visualizeLimitCone@Cm@physx@@YAXAEAVPxRenderOutput@2@MAEBV?$PxTransformT@M@2@MM@Z 000000018000a4b0 f   CmVisualization.obj
 0001:000096e0       ?visualizeLinearLimit@Cm@physx@@YAXAEAVPxRenderOutput@2@MAEBV?$PxTransformT@M@2@1M@Z 000000018000a6e0 f   CmVisualization.obj
 0001:00009ce0       ??0CmModuleUpdateLoader@Cm@physx@@QEAA@PEBD@Z 000000018000ace0 f   CmWindowsModuleUpdateLoader.obj
 0001:00009d20       ??1CmModuleUpdateLoader@Cm@physx@@QEAA@XZ 000000018000ad20 f   CmWindowsModuleUpdateLoader.obj
 0001:00009d50       ?LoadModule@CmModuleUpdateLoader@Cm@physx@@QEAAPEAUHINSTANCE__@@PEBD0@Z 000000018000ad50 f   CmWindowsModuleUpdateLoader.obj
 0001:00009dc0       __local_stdio_printf_options 000000018000adc0 f i CmWindowsModuleUpdateLoader.obj
 0001:00009dd0       printf                     000000018000add0 f i CmWindowsModuleUpdateLoader.obj
 0001:00009e30       ?commonDelayHook@@YAP6A_JXZIPEAUDelayLoadInfo@@@Z 000000018000ae30 f   CmWindowsDelayLoadHook.obj
 0001:00009f10       PxSetPhysXCommonDelayLoadHook 000000018000af10 f   CmWindowsDelayLoadHook.obj
 0001:00009f20       ??0?$PxQuatT@M@physx@@QEAA@AEBV?$PxMat33T@M@1@@Z 000000018000af20 f i GuBox.obj
 0001:0000a110       ??0Box@Gu@physx@@QEAA@AEBV012@@Z 000000018000b110 f i GuBox.obj
 0001:0000a110       ??4Box@Gu@physx@@QEAAAEBV012@AEBV012@@Z 000000018000b110 f i GuBox.obj
 0001:0000a170       ??0Box@Gu@physx@@QEAA@AEBV?$PxVec3T@M@2@0AEBV?$PxMat33T@M@2@@Z 000000018000b170 f i GuBox.obj
 0001:0000a1e0       ??0AABBTreeBuildNode@Gu@physx@@QEAA@XZ 000000018000b1e0 f i GuMeshFactory.obj
 0001:0000a1e0       ??0BigConvexData@physx@@QEAA@W4PxEMPTY@1@@Z 000000018000b1e0 f i GuBigConvexData.obj
 0001:0000a1e0       ??0Box@Gu@physx@@QEAA@XZ   000000018000b1e0 f i GuBox.obj
 0001:0000a1e0       ??0HeightFieldData@Gu@physx@@QEAA@W4PxEMPTY@2@@Z 000000018000b1e0 f i GuCCTSweepTests.obj
 0001:0000a1e0       ?getAABB@AABBTreeBuildNode@Gu@physx@@QEBAAEBVPxBounds3@3@XZ 000000018000b1e0 f i GuMeshFactory.obj
 0001:0000a1e0       ?getPaddedBounds@HeightFieldData@Gu@physx@@QEBAAEBVCenterExtentsPadded@23@XZ 000000018000b1e0 f i GuCCTSweepTests.obj
 0001:0000a1f0       ?computeAABBExtent@Box@Gu@physx@@QEBA?AV?$PxVec3T@M@3@XZ 000000018000b1f0 f i GuBox.obj
 0001:0000a2b0       ?computeBoxPoints@Box@Gu@physx@@QEBAXPEIAV?$PxVec3T@M@3@@Z 000000018000b2b0 f i GuBox.obj
 0001:0000a2f0       ?computeOBBPoints@Gu@physx@@YAXPEIAV?$PxVec3T@M@2@AEBV32@1111@Z 000000018000b2f0 f   GuBox.obj
 0001:0000a580       ?create@Box@Gu@physx@@QEAAXAEBVCapsule@23@@Z 000000018000b580 f   GuBox.obj
 0001:0000a7c0       ?getBoxEdges@Gu@physx@@YAPEBEXZ 000000018000b7c0 f   GuBox.obj
 0001:0000a7d0       ?getTransform@Box@Gu@physx@@QEBA?AV?$PxTransformT@M@3@XZ 000000018000b7d0 f i GuBox.obj
 0001:0000a830       ?isValid@Box@Gu@physx@@QEBA_NXZ 000000018000b830 f i GuBox.obj
 0001:0000a850       ??D?$PxMat33T@M@physx@@QEBA?BV?$PxVec3T@M@1@AEBV21@@Z 000000018000b850 f i GuSweepMTD.obj
 0001:0000a850       ?rotate@Box@Gu@physx@@QEBA?AV?$PxVec3T@M@3@AEBV43@@Z 000000018000b850 f i GuBox.obj
 0001:0000a8e0       ?rotateInv@Box@Gu@physx@@QEBA?AV?$PxVec3T@M@3@AEBV43@@Z 000000018000b8e0 f i GuBox.obj
 0001:0000a970       ?setAxes@Box@Gu@physx@@QEAAXAEBV?$PxVec3T@M@3@00@Z 000000018000b970 f i GuBox.obj
 0001:0000a9b0       ?setEmpty@Box@Gu@physx@@QEAAXXZ 000000018000b9b0 f i GuBox.obj
 0001:0000a9f0       ?transform@Box@Gu@physx@@QEBA?AV?$PxVec3T@M@3@AEBV43@@Z 000000018000b9f0 f i GuBox.obj
 0001:0000aa90       ?computeBoxAroundCapsule@Gu@physx@@YAXAEBVCapsule@12@AEAVBox@12@@Z 000000018000ba90 f   GuCapsule.obj
 0001:0000ad50       ??0HeightFieldData@Gu@physx@@QEAA@$$QEAU012@@Z 000000018000bd50 f i GuCCTSweepTests.obj
 0001:0000ad50       ??0HeightFieldData@Gu@physx@@QEAA@AEBU012@@Z 000000018000bd50 f i GuCCTSweepTests.obj
 0001:0000ad50       ??4HeightFieldData@Gu@physx@@QEAAAEAU012@$$QEAU012@@Z 000000018000bd50 f i GuCCTSweepTests.obj
 0001:0000ad50       ??4HeightFieldData@Gu@physx@@QEAAAEAU012@AEBU012@@Z 000000018000bd50 f i GuCCTSweepTests.obj
 0001:0000adb0       ??0HeightFieldData@Gu@physx@@QEAA@XZ 000000018000bdb0 f i GuCCTSweepTests.obj
 0001:0000adc0       ??0HeightFieldTraceUtil@Gu@physx@@QEAA@AEBVPxHeightFieldGeometry@2@@Z 000000018000bdc0 f i GuCCTSweepTests.obj
 0001:0000adc0       ??0HeightFieldUtil@Gu@physx@@QEAA@AEBVPxHeightFieldGeometry@2@@Z 000000018000bdc0 f i GuCCTSweepTests.obj
 0001:0000ae00       ??4AABBTreeBuildParams@Gu@physx@@QEAAAEAV012@AEBV012@@Z 000000018000be00 f i GuMeshFactory.obj
 0001:0000ae00       ??4HeightFieldTraceUtil@Gu@physx@@QEAAAEAV012@$$QEAV012@@Z 000000018000be00 f i GuCCTSweepTests.obj
 0001:0000ae00       ??4HeightFieldTraceUtil@Gu@physx@@QEAAAEAV012@AEBV012@@Z 000000018000be00 f i GuCCTSweepTests.obj
 0001:0000ae00       ??4HeightFieldUtil@Gu@physx@@QEAAAEAV012@AEBV012@@Z 000000018000be00 f i GuCCTSweepTests.obj
 0001:0000ae20       ??4HeightFieldUtil@Gu@physx@@QEAAAEAV012@$$QEAV012@@Z 000000018000be20 f i GuCCTSweepTests.obj
 0001:0000ae80       ??_EEntityReport@Gu@physx@@UEAAPEAXI@Z 000000018000be80 f i GuSweepsHF.obj
 0001:0000ae80       ??_EOverlapCallback@PxBVH@physx@@UEAAPEAXI@Z 000000018000be80 f i GuQuerySystem.obj
 0001:0000ae80       ??_EOverlapReport@Gu@physx@@UEAAPEAXI@Z 000000018000be80 f i GuCCTSweepTests.obj
 0001:0000ae80       ??_ERaycastCallback@PxBVH@physx@@UEAAPEAXI@Z 000000018000be80 f i GuQuerySystem.obj
 0001:0000ae80       ??_ERemapCallback@RTreeCooker@physx@@UEAAPEAXI@Z 000000018000be80 f i GuCookingTriangleMesh.obj
 0001:0000ae80       ??_GEntityReport@Gu@physx@@UEAAPEAXI@Z 000000018000be80 f i GuSweepsHF.obj
 0001:0000ae80       ??_GOverlapCallback@PxBVH@physx@@UEAAPEAXI@Z 000000018000be80 f i GuQuerySystem.obj
 0001:0000ae80       ??_GOverlapReport@Gu@physx@@UEAAPEAXI@Z 000000018000be80 f i GuCCTSweepTests.obj
 0001:0000ae80       ??_GRaycastCallback@PxBVH@physx@@UEAAPEAXI@Z 000000018000be80 f i GuQuerySystem.obj
 0001:0000ae80       ??_GRemapCallback@RTreeCooker@physx@@UEAAPEAXI@Z 000000018000be80 f i GuCookingTriangleMesh.obj
 0001:0000aeb0       ??_H@YAXPEAX_K1P6APEAX0@Z@Z 000000018000beb0 f i GuCCTSweepTests.obj
 0001:0000af00       ?ceilUp@HeightFieldTraceUtil@Gu@physx@@SAMM@Z 000000018000bf00 f i GuCCTSweepTests.obj
 0001:0000af40       ?floorDown@HeightFieldTraceUtil@Gu@physx@@SAMM@Z 000000018000bf40 f i GuCCTSweepTests.obj
 0001:0000af80       ?getHeightAtShapePoint@HeightFieldUtil@Gu@physx@@QEBAMMM@Z 000000018000bf80 f i GuCCTSweepTests.obj
 0001:0000afe0       ?getHeightInternal2@HeightField@Gu@physx@@QEBAMIMM@Z 000000018000bfe0 f i GuCCTSweepTests.obj
 0001:0000b150       ?getNormalAtShapePoint@HeightFieldUtil@Gu@physx@@QEBA?AV?$PxVec3T@M@3@MM@Z 000000018000c150 f i GuCCTSweepTests.obj
 0001:0000b210       ?getNormal_2@HeightField@Gu@physx@@QEBA?AV?$PxVec3T@M@3@IMMMMM@Z 000000018000c210 f i GuCCTSweepTests.obj
 0001:0000b320       ?getOneOverColumnScale@HeightFieldUtil@Gu@physx@@QEBAMXZ 000000018000c320 f i GuCCTSweepTests.obj
 0001:0000b330       ?getOneOverHeightScale@HeightFieldUtil@Gu@physx@@QEBAMXZ 000000018000c330 f i GuCCTSweepTests.obj
 0001:0000b340       ?getOneOverRowScale@HeightFieldUtil@Gu@physx@@QEBAMXZ 000000018000c340 f i GuCCTSweepTests.obj
 0001:0000b350       ?hf2shapen@HeightFieldUtil@Gu@physx@@QEBA?AV?$PxVec3T@M@3@AEBV43@@Z 000000018000c350 f i GuCCTSweepTests.obj
 0001:0000b350       ?shape2hfp@HeightFieldUtil@Gu@physx@@QEBA?AV?$PxVec3T@M@3@AEBV43@@Z 000000018000c350 f i GuCCTSweepTests.obj
 0001:0000b390       ?hf2shapep@HeightFieldUtil@Gu@physx@@QEBA?AV?$PxVec3T@M@3@AEBV43@@Z 000000018000c390 f i GuCCTSweepTests.obj
 0001:0000b3d0       ?hf2worldn@HeightFieldUtil@Gu@physx@@QEBA?AV?$PxVec3T@M@3@AEBV?$PxTransformT@M@3@AEBV43@@Z 000000018000c3d0 f i GuCCTSweepTests.obj
 0001:0000b540       ?hf2worldp@HeightFieldUtil@Gu@physx@@QEBA?AV?$PxVec3T@M@3@AEBV?$PxTransformT@M@3@AEBV43@@Z 000000018000c540 f i GuCCTSweepTests.obj
 0001:0000b6c0       ?overlapAABBTriangles0to1@HeightFieldUtil@Gu@physx@@QEBAXAEBV?$PxTransformT@M@3@AEBVPxBounds3@3@AEAVOverlapReport@23@I@Z 000000018000c6c0 f i GuCCTSweepTests.obj
 0001:0000ba10       ?overlapAABBTriangles@HeightFieldUtil@Gu@physx@@QEBAXAEBV?$PxTransformT@M@3@0AEBVPxBounds3@3@AEAVOverlapReport@23@I@Z 000000018000ca10 f i GuCCTSweepTests.obj
 0001:0000c000       ?overlapAABBTriangles@HeightFieldUtil@Gu@physx@@QEBAXAEBV?$PxTransformT@M@3@AEBVPxBounds3@3@AEAVOverlapReport@23@I@Z 000000018000d000 f i GuCCTSweepTests.obj
 0001:0000c650       ?sweepBoxTriangles_Precise@Gu@physx@@YA_NIPEBVPxTriangle@2@_NAEBVPxBoxGeometry@2@AEBV?$PxTransformT@M@2@AEBV?$PxVec3T@M@2@MAEAUPxGeomSweepHit@2@PEBIMV?$PxFlags@W4Enum@PxHitFlag@physx@@G@2@@Z 000000018000d650 f   GuCCTSweepTests.obj
 0001:0000d3e0       ?sweepBox_BoxGeom_Precise@@YA_NAEBVPxGeometry@physx@@AEBV?$PxTransformT@M@2@AEBVPxBoxGeometry@2@1AEBVBox@Gu@2@AEBV?$PxVec3T@M@2@MAEAUPxGeomSweepHit@2@V?$PxFlags@W4Enum@PxHitFlag@physx@@G@2@MPEAUPxQueryThreadContext@2@@Z 000000018000e3e0 f   GuCCTSweepTests.obj
 0001:0000d5a0       ?sweepBox_CapsuleGeom_Precise@@YA_NAEBVPxGeometry@physx@@AEBV?$PxTransformT@M@2@AEBVPxBoxGeometry@2@1AEBVBox@Gu@2@AEBV?$PxVec3T@M@2@MAEAUPxGeomSweepHit@2@V?$PxFlags@W4Enum@PxHitFlag@physx@@G@2@MPEAUPxQueryThreadContext@2@@Z 000000018000e5a0 f   GuCCTSweepTests.obj
 0001:0000d970       ?sweepBox_HeightFieldGeom_Precise@@YA_NAEBVPxGeometry@physx@@AEBV?$PxTransformT@M@2@AEBVPxBoxGeometry@2@1AEBVBox@Gu@2@AEBV?$PxVec3T@M@2@MAEAUPxGeomSweepHit@2@V?$PxFlags@W4Enum@PxHitFlag@physx@@G@2@MPEAUPxQueryThreadContext@2@@Z 000000018000e970 f   GuCCTSweepTests.obj
 0001:0000e160       ?sweepBox_SphereGeom_Precise@@YA_NAEBVPxGeometry@physx@@AEBV?$PxTransformT@M@2@AEBVPxBoxGeometry@2@1AEBVBox@Gu@2@AEBV?$PxVec3T@M@2@MAEAUPxGeomSweepHit@2@V?$PxFlags@W4Enum@PxHitFlag@physx@@G@2@MPEAUPxQueryThreadContext@2@@Z 000000018000f160 f   GuCCTSweepTests.obj
 0001:0000e430       ?sweepCapsule_BoxGeom_Precise@@YA_NAEBVPxGeometry@physx@@AEBV?$PxTransformT@M@2@AEBVPxCapsuleGeometry@2@1AEBVCapsule@Gu@2@AEBV?$PxVec3T@M@2@MAEAUPxGeomSweepHit@2@V?$PxFlags@W4Enum@PxHitFlag@physx@@G@2@MPEAUPxQueryThreadContext@2@@Z 000000018000f430 f   GuCCTSweepTests.obj
 0001:000116b0       ?getMidphaseID@RTreeTriangleMesh@Gu@physx@@UEBA?AW4Enum@PxMeshMidPhase@3@XZ 00000001800126b0 f   GuTriangleMeshRTree.obj
 0001:000116b0       ?getMidphaseID@RTreeTriangleMeshBuilder@physx@@UEBA?AW4Enum@PxMeshMidPhase@2@XZ 00000001800126b0 f   GuCookingTriangleMesh.obj
 0001:000116b0       ?getTetrahedraRemap@TetrahedronMesh@Gu@physx@@UEBAPEBIXZ 00000001800126b0 f   GuTetrahedronMesh.obj
 0001:000116b0       ?raycast_particlesystem@@YAIAEBVPxGeometry@physx@@AEBV?$PxTransformT@M@2@AEBV?$PxVec3T@M@2@2MV?$PxFlags@W4Enum@PxHitFlag@physx@@G@2@IPEIAUPxGeomRaycastHit@2@IPEAUPxQueryThreadContext@2@@Z 00000001800126b0 f   GuRaycastTests.obj
 0001:000116b0       ?raycast_softbody@@YAIAEBVPxGeometry@physx@@AEBV?$PxTransformT@M@2@AEBV?$PxVec3T@M@2@2MV?$PxFlags@W4Enum@PxHitFlag@physx@@G@2@IPEIAUPxGeomRaycastHit@2@IPEAUPxQueryThreadContext@2@@Z 00000001800126b0 f   GuRaycastTests.obj
 0001:00012160       ??0AABBTreeBounds@Gu@physx@@QEAA@XZ 0000000180013160 f   GuMeshFactory.obj
 0001:00012170       ??0?$CacheMap@UCachedEdge@Gu@physx@@$0IA@@Gu@physx@@QEAA@XZ 0000000180013170 f i GuGeometryQuery.obj
 0001:00012230       ??0?$CacheMap@UCachedVertex@Gu@physx@@$0IA@@Gu@physx@@QEAA@XZ 0000000180013230 f i GuGeometryQuery.obj
 0001:000122f0       ??0?$Convex@UConvexShape@Gu@physx@@@RefGjkEpa@Gu@physx@@QEAA@AEBUConvexShape@23@AEBV?$PxTransformT@M@3@@Z 00000001800132f0 f i GuGeometryQuery.obj
 0001:00012770       ??0?$EpaDepth@UConvexShape@Gu@physx@@@RefGjkEpa@Gu@physx@@QEAA@AEAU?$Convex@UConvexShape@Gu@physx@@@123@0@Z 0000000180013770 f i GuGeometryQuery.obj
 0001:00012a40       ??0MultiplePersistentContactManifold@Gu@physx@@QEAA@XZ 0000000180013a40 f i GuGeometryQuery.obj
 0001:00012aa0       ??0PCMMeshContactGeneration@Gu@physx@@QEAA@AEBT__m128@@0AEBVPxTransformV@aos@2@1AEAVMultiplePersistentContactManifold@12@AEAVPxContactBuffer@2@PEAV?$PxInlineArray@I$0DMA@V?$PxReflectionAllocator@I@physx@@@2@PEAVPxRenderOutput@2@@Z 0000000180013aa0 f i GuGeometryQuery.obj
 0001:000133d0       ??4MultiplePersistentContactManifold@Gu@physx@@QEAAAEAV012@$$QEAV012@@Z 00000001800143d0 f i GuGeometryQuery.obj
 0001:000136e0       ??4MultiplePersistentContactManifold@Gu@physx@@QEAAAEAV012@AEBV012@@Z 00000001800146e0 f i GuGeometryQuery.obj
 0001:00013700       ??_E?$SupportLocalImpl@VBoxV@Gu@physx@@@Gu@physx@@UEAAPEAXI@Z 0000000180014700 f i GuGeometryQuery.obj
 0001:00013700       ??_E?$SupportLocalImpl@VConvexHullNoScaleV@Gu@physx@@@Gu@physx@@UEAAPEAXI@Z 0000000180014700 f i GuMTD.obj
 0001:00013700       ??_E?$SupportLocalImpl@VConvexHullV@Gu@physx@@@Gu@physx@@UEAAPEAXI@Z 0000000180014700 f i GuGeometryQuery.obj
 0001:00013700       ??_E?$SupportLocalImpl@VTriangleV@Gu@physx@@@Gu@physx@@UEAAPEAXI@Z 0000000180014700 f i GuPCMContactConvexCommon.obj
 0001:00013700       ??_G?$SupportLocalImpl@VBoxV@Gu@physx@@@Gu@physx@@UEAAPEAXI@Z 0000000180014700 f i GuGeometryQuery.obj
 0001:00013700       ??_G?$SupportLocalImpl@VConvexHullNoScaleV@Gu@physx@@@Gu@physx@@UEAAPEAXI@Z 0000000180014700 f i GuMTD.obj
 0001:00013700       ??_G?$SupportLocalImpl@VConvexHullV@Gu@physx@@@Gu@physx@@UEAAPEAXI@Z 0000000180014700 f i GuGeometryQuery.obj
 0001:00013700       ??_G?$SupportLocalImpl@VTriangleV@Gu@physx@@@Gu@physx@@UEAAPEAXI@Z 0000000180014700 f i GuPCMContactConvexCommon.obj
 0001:00013730       ??_ESupportLocal@Gu@physx@@UEAAPEAXI@Z 0000000180014730 f i GuGeometryQuery.obj
 0001:00013730       ??_GSupportLocal@Gu@physx@@UEAAPEAXI@Z 0000000180014730 f i GuGeometryQuery.obj
 0001:00013760       ?PxComputeBasisVectors@physx@@YAXAEBV?$PxVec3T@M@1@AEAV21@1@Z 0000000180014760 f i GuGeometryQuery.obj
 0001:00013890       ?addPoint@?$EpaDepth@UConvexShape@Gu@physx@@@RefGjkEpa@Gu@physx@@QEAAMAEBV?$PxVec3T@M@4@@Z 0000000180014890 f i GuGeometryQuery.obj
 0001:00013db0       ?clearManifold@MultiplePersistentContactManifold@Gu@physx@@QEAAXXZ 0000000180014db0 f i GuGeometryQuery.obj
 0001:00013e10       ?clip2x2@FaceClipper@Gu@physx@@AEAAXXZ 0000000180014e10 f i GuGeometryQuery.obj
 0001:000149c0       ?clipNone@FaceClipper@Gu@physx@@AEAAXXZ 00000001800159c0 f i GuGeometryQuery.obj
 0001:00014a80       ?clipNxN@FaceClipper@Gu@physx@@AEAAXXZ 0000000180015a80 f i GuGeometryQuery.obj
 0001:000152b0       ?computeClosest@?$GjkDistance@UConvexShape@Gu@physx@@@RefGjkEpa@Gu@physx@@QEAAXXZ 00000001800162b0 f i GuGeometryQuery.obj
 0001:00016920       ?computeGeomBounds@PxGeometryQuery@physx@@SAXAEAVPxBounds3@2@AEBVPxGeometry@2@AEBV?$PxTransformT@M@2@MMV?$PxFlags@W4Enum@PxGeometryQueryFlag@physx@@I@2@@Z 0000000180017920 f   GuGeometryQuery.obj
 0001:00016a30       ?computePenetration@PxGeometryQuery@physx@@SA_NAEAV?$PxVec3T@M@2@AEAMAEBVPxGeometry@2@AEBV?$PxTransformT@M@2@23V?$PxFlags@W4Enum@PxGeometryQueryFlag@physx@@I@2@@Z 0000000180017a30 f   GuGeometryQuery.obj
 0001:00016c40       ?computePoints@?$EpaDepth@UConvexShape@Gu@physx@@@RefGjkEpa@Gu@physx@@QEAAXAEAV?$PxVec3T@M@4@0@Z 0000000180017c40 f i GuGeometryQuery.obj
 0001:000171c0       ?contactFace@ConvexShape@Gu@physx@@QEBAIAEBV?$PxVec3T@M@3@0AEAV43@QEAV43@@Z 00000001800181c0 f i GuGeometryQuery.obj
 0001:00017740       ?doSupport@?$SupportLocalImpl@VBoxV@Gu@physx@@@Gu@physx@@UEBA?AT__m128@@AEBT4@@Z 0000000180018740 f i GuGeometryQuery.obj
 0001:00017770       ?doSupport@?$SupportLocalImpl@VBoxV@Gu@physx@@@Gu@physx@@UEBAXAEBT__m128@@AEAT4@1@Z 0000000180018770 f i GuGeometryQuery.obj
 0001:000177c0       ?doSupport@?$SupportLocalImpl@VConvexHullV@Gu@physx@@@Gu@physx@@UEBA?AT__m128@@AEBT4@@Z 00000001800187c0 f i GuGeometryQuery.obj
 0001:000178a0       ?doSupport@?$SupportLocalImpl@VConvexHullV@Gu@physx@@@Gu@physx@@UEBAXAEBT__m128@@AEAT4@1@Z 00000001800188a0 f i GuGeometryQuery.obj
 0001:000182e0       ?generateTriangleContacts@PxGeometryQuery@physx@@SA_NAEBVPxGeometry@2@AEBV?$PxTransformT@M@2@QEBV?$PxVec3T@M@2@IMMMAEAVPxContactBuffer@2@@Z 00000001800192e0 f   GuGeometryQuery.obj
 0001:00019e90       ?getBounds@?$Convex@UConvexShape@Gu@physx@@@RefGjkEpa@Gu@physx@@QEBA?AVPxBounds3@4@XZ 000000018001ae90 f i GuGeometryQuery.obj
 0001:0001a760       ?getEmptyManifold@MultiplePersistentContactManifold@Gu@physx@@QEAAPEAVSinglePersistentContactManifold@23@XZ 000000018001b760 f i GuGeometryQuery.obj
 0001:0001a780       ?getManifold@MultiplePersistentContactManifold@Gu@physx@@QEAAPEAVSinglePersistentContactManifold@23@I@Z 000000018001b780 f i GuGeometryQuery.obj
 0001:0001a780       ?getManifold@MultiplePersistentContactManifold@Gu@physx@@QEBAPEBVSinglePersistentContactManifold@23@I@Z 000000018001b780 f i GuGeometryQuery.obj
 0001:0001a7a0       ?getUniqueID@PxCustomGeometry@physx@@SAIXZ 000000018001b7a0 f   GuGeometryQuery.obj
 0001:0001a7c0       ?hillClimbing@ConvexHullV@Gu@physx@@QEBAIAEBT__m128@@@Z 000000018001b7c0 f i GuGeometryQuery.obj
 0001:0001a9f0       ?initialize@MultiplePersistentContactManifold@Gu@physx@@QEAAXXZ 000000018001b9f0 f i GuGeometryQuery.obj
 0001:0001aa50       ?invalidate@MultiplePersistentContactManifold@Gu@physx@@QEBAIAEBVPxTransformV@aos@3@AEBT__m128@@1@Z 000000018001ba50 f i GuGeometryQuery.obj
 0001:0001aac0       ?invalidate@MultiplePersistentContactManifold@Gu@physx@@QEBAIAEBVPxTransformV@aos@3@AEBT__m128@@@Z 000000018001bac0 f i GuGeometryQuery.obj
 0001:0001ab30       ?isFinite@?$PxQuatT@M@physx@@QEBA_NXZ 000000018001bb30 f i GuGeometryQuery.obj
 0001:0001aba0       ?isFinite@?$PxVec3T@M@physx@@QEBA_NXZ 000000018001bba0 f i GuGeometryQuery.obj
 0001:0001ac00       ?isUnit@?$PxQuatT@M@physx@@QEBA_NXZ 000000018001bc00 f i GuGeometryQuery.obj
 0001:0001ac70       ?isValid@?$PxTransformT@M@physx@@QEBA_NXZ 000000018001bc70 f i GuGeometryQuery.obj
 0001:0001ace0       ?isValid@PxGeometryQuery@physx@@SA_NAEBVPxGeometry@2@@Z 000000018001bce0 f   GuGeometryQuery.obj
 0001:0001aff0       ?makePlane@?$EpaDepth@UConvexShape@Gu@physx@@@RefGjkEpa@Gu@physx@@QEAA_NEEEAEAV?$PxVec4T@M@4@@Z 000000018001bff0 f i GuGeometryQuery.obj
 0001:0001b3c0       ?makePlanes@FaceClipper@Gu@physx@@AEAAXPEBV?$PxVec3T@M@3@IPEAV?$PxVec4T@M@3@AEAI@Z 000000018001c3c0 f i GuGeometryQuery.obj
 0001:0001b820       ?makePolygon@FaceClipper@Gu@physx@@AEAAXPEAV?$PxVec3T@M@3@AEAI@Z 000000018001c820 f i GuGeometryQuery.obj
 0001:0001c150       ?maxTransformPositionDelta@MultiplePersistentContactManifold@Gu@physx@@QEBA?AT__m128@@AEBT4@@Z 000000018001d150 f i GuGeometryQuery.obj
 0001:0001c190       ?overlap@PxGeometryQuery@physx@@SA_NAEBVPxGeometry@2@AEBV?$PxTransformT@M@2@01V?$PxFlags@W4Enum@PxGeometryQueryFlag@physx@@I@2@PEAUPxQueryThreadContext@2@@Z 000000018001d190 f   GuGeometryQuery.obj
 0001:0001c300       ?pointDistance@PxGeometryQuery@physx@@SAMAEBV?$PxVec3T@M@2@AEBVPxGeometry@2@AEBV?$PxTransformT@M@2@PEAV32@PEAIV?$PxFlags@W4Enum@PxGeometryQueryFlag@physx@@I@2@@Z 000000018001d300 f   GuGeometryQuery.obj
 0001:0001cbe0       ?populateVerts@?$SupportLocalImpl@VBoxV@Gu@physx@@@Gu@physx@@UEBAXPEBEIPEBV?$PxVec3T@M@3@PEAT__m128@@@Z 000000018001dbe0 f i GuGeometryQuery.obj
 0001:0001cc20       ?populateVerts@?$SupportLocalImpl@VConvexHullV@Gu@physx@@@Gu@physx@@UEBAXPEBEIPEBV?$PxVec3T@M@3@PEAT__m128@@@Z 000000018001dc20 f i GuGeometryQuery.obj
 0001:0001cc80       ?raycast@PxGeometryQuery@physx@@SAIAEBV?$PxVec3T@M@2@0AEBVPxGeometry@2@AEBV?$PxTransformT@M@2@MV?$PxFlags@W4Enum@PxHitFlag@physx@@G@2@IPEIAUPxGeomRaycastHit@2@IV?$PxFlags@W4Enum@PxGeometryQueryFlag@physx@@I@2@PEAUPxQueryThreadContext@2@@Z 000000018001dc80 f   GuGeometryQuery.obj
 0001:0001cf60       ?reduceManifoldContactsInDifferentPatches@MultiplePersistentContactManifold@Gu@physx@@QEBAIPEAPEAUPCMContactPatch@23@IPEAVMeshPersistentContact@23@IAEBT__m128@@@Z 000000018001df60 f i GuGeometryQuery.obj
 0001:0001d8d0       ?refineContactPatchConnective@MultiplePersistentContactManifold@Gu@physx@@QEBAXPEAPEAUPCMContactPatch@23@IPEAVMeshPersistentContact@23@AEBT__m128@@@Z 000000018001e8d0 f i GuGeometryQuery.obj
 0001:0001d9c0       ?refreshManifold@MultiplePersistentContactManifold@Gu@physx@@QEAAXAEBVPxMatTransformV@aos@3@AEBT__m128@@1@Z 000000018001e9c0 f i GuGeometryQuery.obj
 0001:0001e3f0       ?setRelativeTransform@MultiplePersistentContactManifold@Gu@physx@@QEAAXAEBVPxTransformV@aos@3@@Z 000000018001f3f0 f i GuGeometryQuery.obj
 0001:0001e400       ?supportIndex@?$Convex@UConvexShape@Gu@physx@@@RefGjkEpa@Gu@physx@@QEAAEAEBV?$PxVec3T@M@4@@Z 000000018001f400 f i GuGeometryQuery.obj
 0001:0001e7c0       ?supportVertexIndex@ConvexHullV@Gu@physx@@QEBAIAEBT__m128@@@Z 000000018001f7c0 f i GuGeometryQuery.obj
 0001:0001ea20       ?sweep@PxGeometryQuery@physx@@SA_NAEBV?$PxVec3T@M@2@MAEBVPxGeometry@2@AEBV?$PxTransformT@M@2@12AEAUPxGeomSweepHit@2@V?$PxFlags@W4Enum@PxHitFlag@physx@@G@2@MV?$PxFlags@W4Enum@PxGeometryQueryFlag@physx@@I@2@PEAUPxQueryThreadContext@2@@Z 000000018001fa20 f   GuGeometryQuery.obj
 0001:0001f060       ?computeBoxPoints@Gu@physx@@YAXAEBVPxBounds3@2@PEIAV?$PxVec3T@M@2@@Z 0000000180020060 f   GuInternal.obj
 0001:0001f100       ?computeSweptBox@Gu@physx@@YAXAEAVBox@12@AEBV?$PxVec3T@M@2@1AEBV?$PxMat33T@M@2@1M@Z 0000000180020100 f   GuInternal.obj
 0001:0001f640       ?getPlane@Gu@physx@@YA?AVPxPlane@2@AEBV?$PxTransformT@M@2@@Z 0000000180020640 f   GuInternal.obj
 0001:0001fb80       ??_ECallbackRaycast@RTree@Gu@physx@@UEAAPEAXI@Z 0000000180020b80 f i GuMidphaseRTree.obj
 0001:0001fb80       ??_ECallbackRefit@RTree@Gu@physx@@UEAAPEAXI@Z 0000000180020b80 f i GuTriangleMeshRTree.obj
 0001:0001fb80       ??_EPxInsertionCallback@physx@@MEAAPEAXI@Z 0000000180020b80 f i GuMeshFactory.obj
 0001:0001fb80       ??_GCallbackRaycast@RTree@Gu@physx@@UEAAPEAXI@Z 0000000180020b80 f i GuMidphaseRTree.obj
 0001:0001fb80       ??_GCallbackRefit@RTree@Gu@physx@@UEAAPEAXI@Z 0000000180020b80 f i GuTriangleMeshRTree.obj
 0001:0001fb80       ??_GPxInsertionCallback@physx@@MEAAPEAXI@Z 0000000180020b80 f i GuMeshFactory.obj
 0001:0001fbb0       ??$copy@V?$PxReflectionAllocator@USlab@NodeAllocator@Gu@physx@@@physx@@@?$PxArray@USlab@NodeAllocator@Gu@physx@@V?$PxReflectionAllocator@USlab@NodeAllocator@Gu@physx@@@4@@physx@@IEAAXAEBV01@@Z 0000000180020bb0 f i GuMeshFactory.obj
 0001:0001fc80       ??0AABBTreeBuildNode@Gu@physx@@QEAA@AEBV012@@Z 0000000180020c80 f i GuMeshFactory.obj
 0001:0001fc80       ??4AABBTreeBuildNode@Gu@physx@@QEAAAEAV012@AEBV012@@Z 0000000180020c80 f i GuMeshFactory.obj
 0001:0001fcc0       ??0AABBTreeBuildParams@Gu@physx@@QEAA@IIPEBVAABBTreeBounds@12@W4BVHBuildStrategy@12@@Z 0000000180020cc0 f i GuMeshFactory.obj
 0001:0001fce0       ??0MeshFactory@Gu@physx@@QEAA@XZ 0000000180020ce0 f   GuMeshFactory.obj
 0001:0001fee0       ??0NodeAllocator@Gu@physx@@QEAA@AEBV012@@Z 0000000180020ee0 f i GuMeshFactory.obj
 0001:0001ff20       ??0TriangleMeshData@Gu@physx@@QEAA@XZ 0000000180020f20 f i GuMeshFactory.obj
 0001:00020040       ??1AABBTreeBounds@Gu@physx@@QEAA@XZ 0000000180021040 f i GuMeshFactory.obj
 0001:00020050       ??1AABBTreeBuildParams@Gu@physx@@QEAA@XZ 0000000180021050 f i GuMeshFactory.obj
 0001:00020050       ?reset@AABBTreeBuildParams@Gu@physx@@QEAAXXZ 0000000180021050 f i GuMeshFactory.obj
 0001:000200a0       ??1CollisionMeshMappingData@Gu@physx@@UEAA@XZ 00000001800210a0 f i GuMeshFactory.obj
 0001:00020200       ??1DeformableVolumeCollisionData@Gu@physx@@UEAA@XZ 0000000180021200 f i GuMeshFactory.obj
 0001:00020350       ??1DeformableVolumeSimulationData@Gu@physx@@UEAA@XZ 0000000180021350 f i GuMeshFactory.obj
 0001:00020490       ??1MeshDataBase@Gu@physx@@UEAA@XZ 0000000180021490 f i GuMeshFactory.obj
 0001:000205f0       ??1MeshFactory@Gu@physx@@MEAA@XZ 00000001800215f0 f   GuMeshFactory.obj
 0001:00020750       ??1RTreeTriangleData@Gu@physx@@UEAA@XZ 0000000180021750 f i GuMeshFactory.obj
 0001:000207c0       ??1TetrahedronMeshData@Gu@physx@@QEAA@XZ 00000001800217c0 f i GuMeshFactory.obj
 0001:00020850       ??1TriangleMeshData@Gu@physx@@UEAA@XZ 0000000180021850 f i GuMeshFactory.obj
 0001:00020990       ??4NodeAllocator@Gu@physx@@QEAAAEAV012@AEBV012@@Z 0000000180021990 f i GuMeshFactory.obj
 0001:00020a40       ??_EMeshFactory@Gu@physx@@MEAAPEAXI@Z 0000000180021a40 f i GuMeshFactory.obj
 0001:00020b60       ??_FAABBTreeBuildParams@Gu@physx@@QEAAXXZ 0000000180021b60 f i GuMeshFactory.obj
 0001:00020b80       ??_EBV4TriangleData@Gu@physx@@UEAAPEAXI@Z 0000000180021b80 f i GuMeshFactory.obj
 0001:00020b80       ??_GBV4TriangleData@Gu@physx@@UEAAPEAXI@Z 0000000180021b80 f i GuMeshFactory.obj
 0001:00020c10       ??_ECollisionMeshMappingData@Gu@physx@@UEAAPEAXI@Z 0000000180021c10 f i GuMeshFactory.obj
 0001:00020c10       ??_GCollisionMeshMappingData@Gu@physx@@UEAAPEAXI@Z 0000000180021c10 f i GuMeshFactory.obj
 0001:00020c80       ??_EDeformableVolumeCollisionData@Gu@physx@@UEAAPEAXI@Z 0000000180021c80 f i GuMeshFactory.obj
 0001:00020c80       ??_GDeformableVolumeCollisionData@Gu@physx@@UEAAPEAXI@Z 0000000180021c80 f i GuMeshFactory.obj
 0001:00020cf0       ??_EDeformableVolumeSimulationData@Gu@physx@@UEAAPEAXI@Z 0000000180021cf0 f i GuMeshFactory.obj
 0001:00020cf0       ??_GDeformableVolumeSimulationData@Gu@physx@@UEAAPEAXI@Z 0000000180021cf0 f i GuMeshFactory.obj
 0001:00020d60       ??_EMeshDataBase@Gu@physx@@UEAAPEAXI@Z 0000000180021d60 f i GuMeshFactory.obj
 0001:00020d60       ??_GMeshDataBase@Gu@physx@@UEAAPEAXI@Z 0000000180021d60 f i GuMeshFactory.obj
 0001:00020dd0       ??_EPxCollisionMeshMappingData@physx@@UEAAPEAXI@Z 0000000180021dd0 f i GuMeshFactory.obj
 0001:00020dd0       ??_GPxCollisionMeshMappingData@physx@@UEAAPEAXI@Z 0000000180021dd0 f i GuMeshFactory.obj
 0001:00020e30       ??_ERTreeTriangleData@Gu@physx@@UEAAPEAXI@Z 0000000180021e30 f i GuMeshFactory.obj
 0001:00020e30       ??_GRTreeTriangleData@Gu@physx@@UEAAPEAXI@Z 0000000180021e30 f i GuMeshFactory.obj
 0001:00020ef0       ??_ETriangleMeshData@Gu@physx@@UEAAPEAXI@Z 0000000180021ef0 f i GuMeshFactory.obj
 0001:00020ef0       ??_GTriangleMeshData@Gu@physx@@UEAAPEAXI@Z 0000000180021ef0 f i GuMeshFactory.obj
 0001:00020f60       ??_V@YAXPEAX_K@Z           0000000180021f60 f i LIBCMT:delete_array_size.obj
 0001:00020f60       ?__global_delete@@YAXPEAX_K@Z 0000000180021f60 f i GuMeshFactory.obj
 0001:00020f70       ?addBVH@MeshFactory@Gu@physx@@QEAAXPEAVBVH@23@_N@Z 0000000180021f70 f   GuMeshFactory.obj
 0001:00021010       ?addConvexMesh@MeshFactory@Gu@physx@@QEAAXPEAVConvexMesh@23@_N@Z 0000000180022010 f   GuMeshFactory.obj
 0001:000210b0       ?addDeformableVolumeMesh@MeshFactory@Gu@physx@@QEAAXPEAVDeformableVolumeMesh@23@_N@Z 00000001800220b0 f   GuMeshFactory.obj
 0001:00021150       ?addFactoryListener@MeshFactory@Gu@physx@@QEAAXAEAVMeshFactoryListener@23@@Z 0000000180022150 f   GuMeshFactory.obj
 0001:000211c0       ?addHeightField@MeshFactory@Gu@physx@@QEAAXPEAVHeightField@23@_N@Z 00000001800221c0 f   GuMeshFactory.obj
 0001:00021260       ?addTetrahedronMesh@MeshFactory@Gu@physx@@QEAAXPEAVTetrahedronMesh@23@_N@Z 0000000180022260 f   GuMeshFactory.obj
 0001:00021300       ?addTriangleMesh@MeshFactory@Gu@physx@@QEAAXPEAVTriangleMesh@23@_N@Z 0000000180022300 f   GuMeshFactory.obj
 0001:000213a0       ?allocate@?$PxArray@USlab@NodeAllocator@Gu@physx@@V?$PxReflectionAllocator@USlab@NodeAllocator@Gu@physx@@@4@@physx@@IEAAPEAUSlab@NodeAllocator@Gu@2@IPEAI@Z 00000001800223a0 f i GuMeshFactory.obj
 0001:00021450       ?allocateAdjacencies@TriangleMeshData@Gu@physx@@QEAAPEAIXZ 0000000180022450 f i GuMeshFactory.obj
 0001:000214c0       ?allocateExtraTrigData@TriangleMeshData@Gu@physx@@QEAAPEAEXZ 00000001800224c0 f i GuMeshFactory.obj
 0001:00021530       ?allocateFaceRemap@TriangleMeshData@Gu@physx@@QEAAPEAIXZ 0000000180022530 f i GuMeshFactory.obj
 0001:000215a0       ?allocateGridModelData@DeformableVolumeSimulationData@Gu@physx@@QEAAXIIIIIII@Z 00000001800225a0 f i GuMeshFactory.obj
 0001:00021820       ?allocateMaterials@TetrahedronMeshData@Gu@physx@@QEAAPEAGXZ 0000000180022820 f i GuMeshFactory.obj
 0001:00021890       ?allocateMaterials@TriangleMeshData@Gu@physx@@QEAAPEAGXZ 0000000180022890 f i GuMeshFactory.obj
 0001:00021900       ?allocateTetrahedrons@TetrahedronMeshData@Gu@physx@@QEAAXII@Z 0000000180022900 f i GuMeshFactory.obj
 0001:00021990       ?allocateTriangles@TriangleMeshData@Gu@physx@@QEAAPEAXI_NI@Z 0000000180022990 f i GuMeshFactory.obj
 0001:00021a80       ?allocateVertices@MeshDataBase@Gu@physx@@QEAAPEAV?$PxVec3T@M@3@I@Z 0000000180022a80 f i GuMeshFactory.obj
 0001:00021af0       ?allocateVertices@TetrahedronMeshData@Gu@physx@@QEAAPEAV?$PxVec3T@M@3@II@Z 0000000180022af0 f i GuMeshFactory.obj
 0001:00021b90       ?allocatemappingData@CollisionMeshMappingData@Gu@physx@@QEAAXIIII@Z 0000000180022b90 f i GuMeshFactory.obj
 0001:00021d80       ?create@?$PxHashBase@PEAVBVH@Gu@physx@@PEAV123@U?$PxHash@PEAVBVH@Gu@physx@@@3@UGetKey@?$PxHashSetBase@PEAVBVH@Gu@physx@@U?$PxHash@PEAVBVH@Gu@physx@@@3@VPxAllocator@3@$00@3@VPxAllocator@3@$00@physx@@QEAAPEAPEAVBVH@Gu@2@AEBQEAV342@AEA_N@Z 0000000180022d80 f i GuMeshFactory.obj
 0001:00021d80       ?create@?$PxHashBase@PEAVConvexMesh@Gu@physx@@PEAV123@U?$PxHash@PEAVConvexMesh@Gu@physx@@@3@UGetKey@?$PxHashSetBase@PEAVConvexMesh@Gu@physx@@U?$PxHash@PEAVConvexMesh@Gu@physx@@@3@VPxAllocator@3@$00@3@VPxAllocator@3@$00@physx@@QEAAPEAPEAVConvexMesh@Gu@2@AEBQEAV342@AEA_N@Z 0000000180022d80 f i GuMeshFactory.obj
 0001:00021d80       ?create@?$PxHashBase@PEAVDeformableVolumeMesh@Gu@physx@@PEAV123@U?$PxHash@PEAVDeformableVolumeMesh@Gu@physx@@@3@UGetKey@?$PxHashSetBase@PEAVDeformableVolumeMesh@Gu@physx@@U?$PxHash@PEAVDeformableVolumeMesh@Gu@physx@@@3@VPxAllocator@3@$00@3@VPxAllocator@3@$00@physx@@QEAAPEAPEAVDeformableVolumeMesh@Gu@2@AEBQEAV342@AEA_N@Z 0000000180022d80 f i GuMeshFactory.obj
 0001:00021d80       ?create@?$PxHashBase@PEAVHeightField@Gu@physx@@PEAV123@U?$PxHash@PEAVHeightField@Gu@physx@@@3@UGetKey@?$PxHashSetBase@PEAVHeightField@Gu@physx@@U?$PxHash@PEAVHeightField@Gu@physx@@@3@VPxAllocator@3@$00@3@VPxAllocator@3@$00@physx@@QEAAPEAPEAVHeightField@Gu@2@AEBQEAV342@AEA_N@Z 0000000180022d80 f i GuMeshFactory.obj
 0001:00021d80       ?create@?$PxHashBase@PEAVTetrahedronMesh@Gu@physx@@PEAV123@U?$PxHash@PEAVTetrahedronMesh@Gu@physx@@@3@UGetKey@?$PxHashSetBase@PEAVTetrahedronMesh@Gu@physx@@U?$PxHash@PEAVTetrahedronMesh@Gu@physx@@@3@VPxAllocator@3@$00@3@VPxAllocator@3@$00@physx@@QEAAPEAPEAVTetrahedronMesh@Gu@2@AEBQEAV342@AEA_N@Z 0000000180022d80 f i GuMeshFactory.obj
 0001:00021d80       ?create@?$PxHashBase@PEAVTriangleMesh@Gu@physx@@PEAV123@U?$PxHash@PEAVTriangleMesh@Gu@physx@@@3@UGetKey@?$PxHashSetBase@PEAVTriangleMesh@Gu@physx@@U?$PxHash@PEAVTriangleMesh@Gu@physx@@@3@VPxAllocator@3@$00@3@VPxAllocator@3@$00@physx@@QEAAPEAPEAVTriangleMesh@Gu@2@AEBQEAV342@AEA_N@Z 0000000180022d80 f i GuMeshFactory.obj
 0001:00021f10       ?createBVH@MeshFactory@Gu@physx@@IEAAPEAVPxBVH@3@AEAVBVHData@23@@Z 0000000180022f10 f   GuMeshFactory.obj
 0001:00022070       ?createBVH@MeshFactory@Gu@physx@@QEAAPEAVPxBVH@3@AEAVPxInputStream@3@@Z 0000000180023070 f   GuMeshFactory.obj
 0001:000221f0       ?createBVH@MeshFactory@Gu@physx@@QEAAPEAVPxBVH@3@PEAX@Z 00000001800231f0 f   GuMeshFactory.obj
 0001:00022200       ?createConvexMesh@MeshFactory@Gu@physx@@IEAAPEAVPxConvexMesh@3@AEAUConvexHullInitData@23@@Z 0000000180023200 f   GuMeshFactory.obj
 0001:00022350       ?createConvexMesh@MeshFactory@Gu@physx@@QEAAPEAVPxConvexMesh@3@AEAVPxInputStream@3@@Z 0000000180023350 f   GuMeshFactory.obj
 0001:000224b0       ?createConvexMesh@MeshFactory@Gu@physx@@QEAAPEAVPxConvexMesh@3@PEAX@Z 00000001800234b0 f   GuMeshFactory.obj
 0001:000224c0       ?createDeformableVolumeMesh@MeshFactory@Gu@physx@@IEAAPEAVPxDeformableVolumeMesh@3@AEAVDeformableVolumeMeshData@23@@Z 00000001800234c0 f   GuMeshFactory.obj
 0001:00022600       ?createDeformableVolumeMesh@MeshFactory@Gu@physx@@QEAAPEAVPxDeformableVolumeMesh@3@AEAVPxInputStream@3@@Z 0000000180023600 f   GuMeshFactory.obj
 0001:00022c50       ?createDeformableVolumeMesh@MeshFactory@Gu@physx@@QEAAPEAVPxDeformableVolumeMesh@3@PEAX@Z 0000000180023c50 f   GuMeshFactory.obj
 0001:00022c60       ?createHeightField@MeshFactory@Gu@physx@@QEAAPEAVPxHeightField@3@AEAVPxInputStream@3@@Z 0000000180023c60 f   GuMeshFactory.obj
 0001:00022de0       ?createHeightField@MeshFactory@Gu@physx@@QEAAPEAVPxHeightField@3@PEAX@Z 0000000180023de0 f   GuMeshFactory.obj
 0001:00022f40       ?createTetrahedronMesh@MeshFactory@Gu@physx@@IEAAPEAVPxTetrahedronMesh@3@AEAVTetrahedronMeshData@23@@Z 0000000180023f40 f   GuMeshFactory.obj
 0001:00023090       ?createTetrahedronMesh@MeshFactory@Gu@physx@@QEAAPEAVPxTetrahedronMesh@3@AEAVPxInputStream@3@@Z 0000000180024090 f   GuMeshFactory.obj
 0001:00023100       ?createTetrahedronMesh@MeshFactory@Gu@physx@@QEAAPEAVPxTetrahedronMesh@3@PEAX@Z 0000000180024100 f   GuMeshFactory.obj
 0001:00023110       ?createTriangleMesh@MeshFactory@Gu@physx@@IEAAPEAVPxTriangleMesh@3@AEAVTriangleMeshData@23@@Z 0000000180024110 f   GuMeshFactory.obj
 0001:00023300       ?createTriangleMesh@MeshFactory@Gu@physx@@QEAAPEAVPxTriangleMesh@3@AEAVPxInputStream@3@@Z 0000000180024300 f   GuMeshFactory.obj
 0001:00023360       ?createTriangleMesh@MeshFactory@Gu@physx@@QEAAPEAVPxTriangleMesh@3@PEAX@Z 0000000180024360 f   GuMeshFactory.obj
 0001:00023370       ?erase@?$PxHashBase@PEAVBVH@Gu@physx@@PEAV123@U?$PxHash@PEAVBVH@Gu@physx@@@3@UGetKey@?$PxHashSetBase@PEAVBVH@Gu@physx@@U?$PxHash@PEAVBVH@Gu@physx@@@3@VPxAllocator@3@$00@3@VPxAllocator@3@$00@physx@@QEAA_NAEBQEAVBVH@Gu@2@@Z 0000000180024370 f i GuMeshFactory.obj
 0001:00023370       ?erase@?$PxHashBase@PEAVConvexMesh@Gu@physx@@PEAV123@U?$PxHash@PEAVConvexMesh@Gu@physx@@@3@UGetKey@?$PxHashSetBase@PEAVConvexMesh@Gu@physx@@U?$PxHash@PEAVConvexMesh@Gu@physx@@@3@VPxAllocator@3@$00@3@VPxAllocator@3@$00@physx@@QEAA_NAEBQEAVConvexMesh@Gu@2@@Z 0000000180024370 f i GuMeshFactory.obj
 0001:00023370       ?erase@?$PxHashBase@PEAVDeformableVolumeMesh@Gu@physx@@PEAV123@U?$PxHash@PEAVDeformableVolumeMesh@Gu@physx@@@3@UGetKey@?$PxHashSetBase@PEAVDeformableVolumeMesh@Gu@physx@@U?$PxHash@PEAVDeformableVolumeMesh@Gu@physx@@@3@VPxAllocator@3@$00@3@VPxAllocator@3@$00@physx@@QEAA_NAEBQEAVDeformableVolumeMesh@Gu@2@@Z 0000000180024370 f i GuMeshFactory.obj
 0001:00023370       ?erase@?$PxHashBase@PEAVHeightField@Gu@physx@@PEAV123@U?$PxHash@PEAVHeightField@Gu@physx@@@3@UGetKey@?$PxHashSetBase@PEAVHeightField@Gu@physx@@U?$PxHash@PEAVHeightField@Gu@physx@@@3@VPxAllocator@3@$00@3@VPxAllocator@3@$00@physx@@QEAA_NAEBQEAVHeightField@Gu@2@@Z 0000000180024370 f i GuMeshFactory.obj
 0001:00023370       ?erase@?$PxHashBase@PEAVTetrahedronMesh@Gu@physx@@PEAV123@U?$PxHash@PEAVTetrahedronMesh@Gu@physx@@@3@UGetKey@?$PxHashSetBase@PEAVTetrahedronMesh@Gu@physx@@U?$PxHash@PEAVTetrahedronMesh@Gu@physx@@@3@VPxAllocator@3@$00@3@VPxAllocator@3@$00@physx@@QEAA_NAEBQEAVTetrahedronMesh@Gu@2@@Z 0000000180024370 f i GuMeshFactory.obj
 0001:00023370       ?erase@?$PxHashBase@PEAVTriangleMesh@Gu@physx@@PEAV123@U?$PxHash@PEAVTriangleMesh@Gu@physx@@@3@UGetKey@?$PxHashSetBase@PEAVTriangleMesh@Gu@physx@@U?$PxHash@PEAVTriangleMesh@Gu@physx@@@3@VPxAllocator@3@$00@3@VPxAllocator@3@$00@physx@@QEAA_NAEBQEAVTriangleMesh@Gu@2@@Z 0000000180024370 f i GuMeshFactory.obj
 0001:000234f0       ?getBVHs@MeshFactory@Gu@physx@@QEBAIPEAPEAVPxBVH@3@II@Z 00000001800244f0 f   GuMeshFactory.obj
 0001:000235c0       ?getBounds@AABBTreeBounds@Gu@physx@@QEAAPEAVPxBounds3@3@XZ 00000001800245c0 f i GuMeshFactory.obj
 0001:000235c0       ?getBounds@AABBTreeBounds@Gu@physx@@QEBAPEBVPxBounds3@3@XZ 00000001800245c0 f i GuMeshFactory.obj
 0001:000235d0       ?getConvexMeshes@MeshFactory@Gu@physx@@QEBAIPEAPEAVPxConvexMesh@3@II@Z 00000001800245d0 f   GuMeshFactory.obj
 0001:000236a0       ?getDeformableVolumeMeshes@MeshFactory@Gu@physx@@QEBAIPEAPEAVPxDeformableVolumeMesh@3@II@Z 00000001800246a0 f   GuMeshFactory.obj
 0001:00023770       ?getHeightFields@MeshFactory@Gu@physx@@QEBAIPEAPEAVPxHeightField@3@II@Z 0000000180024770 f   GuMeshFactory.obj
 0001:00023840       ?getNbBVHs@MeshFactory@Gu@physx@@QEBAIXZ 0000000180024840 f   GuMeshFactory.obj
 0001:00023880       ?getNbConvexMeshes@MeshFactory@Gu@physx@@QEBAIXZ 0000000180024880 f   GuMeshFactory.obj
 0001:000238c0       ?getNbDeformableVolumeMeshes@MeshFactory@Gu@physx@@QEBAIXZ 00000001800248c0 f   GuMeshFactory.obj
 0001:00023900       ?getNbHeightFields@MeshFactory@Gu@physx@@QEBAIXZ 0000000180024900 f   GuMeshFactory.obj
 0001:00023940       ?getNbPrimitives@AABBTreeBuildNode@Gu@physx@@QEBAIXZ 0000000180024940 f i GuMeshFactory.obj
 0001:00023940       ?getNbRuntimePrimitives@AABBTreeBuildNode@Gu@physx@@QEBAIXZ 0000000180024940 f i GuMeshFactory.obj
 0001:00023950       ?getNbTetrahedronMeshes@MeshFactory@Gu@physx@@QEBAIXZ 0000000180024950 f   GuMeshFactory.obj
 0001:00023990       ?getNbTriangleMeshes@MeshFactory@Gu@physx@@QEBAIXZ 0000000180024990 f   GuMeshFactory.obj
 0001:000239d0       ?getNeg@AABBTreeBuildNode@Gu@physx@@QEBAPEBV123@XZ 00000001800249d0 f i GuMeshFactory.obj
 0001:000239f0       ?getPrimitives@AABBTreeBuildNode@Gu@physx@@QEAAPEAIPEAI@Z 00000001800249f0 f i GuMeshFactory.obj
 0001:000239f0       ?getPrimitives@AABBTreeBuildNode@Gu@physx@@QEBAPEBIPEBI@Z 00000001800249f0 f i GuMeshFactory.obj
 0001:00023a00       ?getTetrahedronMeshes@MeshFactory@Gu@physx@@QEBAIPEAPEAVPxTetrahedronMesh@3@II@Z 0000000180024a00 f   GuMeshFactory.obj
 0001:00023ad0       ?getTriangleMeshes@MeshFactory@Gu@physx@@QEBAIPEAPEAVPxTriangleMesh@3@II@Z 0000000180024ad0 f   GuMeshFactory.obj
 0001:00023ba0       ?growAndPushBack@?$PxArray@PEAVMeshFactoryListener@Gu@physx@@V?$PxReflectionAllocator@PEAVMeshFactoryListener@Gu@physx@@@3@@physx@@IEAAAEAPEAVMeshFactoryListener@Gu@2@AEBQEAV342@@Z 0000000180024ba0 f i GuMeshFactory.obj
 0001:00023ce0       ?isLeaf@AABBTreeBuildNode@Gu@physx@@QEBA_NXZ 0000000180024ce0 f i GuMeshFactory.obj
 0001:00025930       ?moveFrom@AABBTreeBounds@Gu@physx@@QEAAXAEAV123@@Z 0000000180026930 f i GuMeshFactory.obj
 0001:00025940       ?notifyFactoryListener@MeshFactory@Gu@physx@@QEAAXPEBVPxBase@3@G@Z 0000000180026940 f   GuMeshFactory.obj
 0001:000259b0       ?notifyListenersAdd@MeshFactory@Gu@physx@@IEAAXPEBVPxBase@3@@Z 00000001800269b0 f   GuMeshFactory.obj
 0001:00025a00       ?notifyListenersRemove@MeshFactory@Gu@physx@@IEAAXPEBVPxBase@3@@Z 0000000180026a00 f   GuMeshFactory.obj
 0001:00025a50       ?ownsMemory@AABBTreeBounds@Gu@physx@@QEBA_NXZ 0000000180026a50 f i GuMeshFactory.obj
 0001:00025d30       ?recreate@?$PxArray@USlab@NodeAllocator@Gu@physx@@V?$PxReflectionAllocator@USlab@NodeAllocator@Gu@physx@@@4@@physx@@IEAAXI@Z 0000000180026d30 f i GuMeshFactory.obj
 0001:00025e40       ?release@CollisionMeshMappingData@Gu@physx@@UEAAXXZ 0000000180026e40 f i GuMeshFactory.obj
 0001:00025e60       ?release@MeshFactory@Gu@physx@@QEAAXXZ 0000000180026e60 f   GuMeshFactory.obj
 0001:00025f60       ?remove@MeshFactory@Gu@physx@@QEAA_NAEAVPxBase@3@@Z 0000000180026f60 f   GuMeshFactory.obj
 0001:00025fb0       ?removeBVH@MeshFactory@Gu@physx@@QEAA_NAEAVPxBVH@3@@Z 0000000180026fb0 f   GuMeshFactory.obj
 0001:00026040       ?removeConvexMesh@MeshFactory@Gu@physx@@QEAA_NAEAVPxConvexMesh@3@@Z 0000000180027040 f   GuMeshFactory.obj
 0001:000260d0       ?removeDeformableVolumeMesh@MeshFactory@Gu@physx@@QEAA_NAEAVPxDeformableVolumeMesh@3@@Z 00000001800270d0 f   GuMeshFactory.obj
 0001:00026160       ?removeFactoryListener@MeshFactory@Gu@physx@@QEAAXAEAVMeshFactoryListener@23@@Z 0000000180027160 f   GuMeshFactory.obj
 0001:000261e0       ?removeHeightField@MeshFactory@Gu@physx@@QEAA_NAEAVPxHeightField@3@@Z 00000001800271e0 f   GuMeshFactory.obj
 0001:00026270       ?removeTetrahedronMesh@MeshFactory@Gu@physx@@QEAA_NAEAVPxTetrahedronMesh@3@@Z 0000000180027270 f   GuMeshFactory.obj
 0001:00026300       ?removeTriangleMesh@MeshFactory@Gu@physx@@QEAA_NAEAVPxTriangleMesh@3@@Z 0000000180027300 f   GuMeshFactory.obj
 0001:00026390       ?reserveInternal@?$PxHashBase@PEAVBVH@Gu@physx@@PEAV123@U?$PxHash@PEAVBVH@Gu@physx@@@3@UGetKey@?$PxHashSetBase@PEAVBVH@Gu@physx@@U?$PxHash@PEAVBVH@Gu@physx@@@3@VPxAllocator@3@$00@3@VPxAllocator@3@$00@physx@@AEAAXI@Z 0000000180027390 f i GuMeshFactory.obj
 0001:00026390       ?reserveInternal@?$PxHashBase@PEAVConvexMesh@Gu@physx@@PEAV123@U?$PxHash@PEAVConvexMesh@Gu@physx@@@3@UGetKey@?$PxHashSetBase@PEAVConvexMesh@Gu@physx@@U?$PxHash@PEAVConvexMesh@Gu@physx@@@3@VPxAllocator@3@$00@3@VPxAllocator@3@$00@physx@@AEAAXI@Z 0000000180027390 f i GuMeshFactory.obj
 0001:00026390       ?reserveInternal@?$PxHashBase@PEAVDeformableVolumeMesh@Gu@physx@@PEAV123@U?$PxHash@PEAVDeformableVolumeMesh@Gu@physx@@@3@UGetKey@?$PxHashSetBase@PEAVDeformableVolumeMesh@Gu@physx@@U?$PxHash@PEAVDeformableVolumeMesh@Gu@physx@@@3@VPxAllocator@3@$00@3@VPxAllocator@3@$00@physx@@AEAAXI@Z 0000000180027390 f i GuMeshFactory.obj
 0001:00026390       ?reserveInternal@?$PxHashBase@PEAVHeightField@Gu@physx@@PEAV123@U?$PxHash@PEAVHeightField@Gu@physx@@@3@UGetKey@?$PxHashSetBase@PEAVHeightField@Gu@physx@@U?$PxHash@PEAVHeightField@Gu@physx@@@3@VPxAllocator@3@$00@3@VPxAllocator@3@$00@physx@@AEAAXI@Z 0000000180027390 f i GuMeshFactory.obj
 0001:00026390       ?reserveInternal@?$PxHashBase@PEAVTetrahedronMesh@Gu@physx@@PEAV123@U?$PxHash@PEAVTetrahedronMesh@Gu@physx@@@3@UGetKey@?$PxHashSetBase@PEAVTetrahedronMesh@Gu@physx@@U?$PxHash@PEAVTetrahedronMesh@Gu@physx@@@3@VPxAllocator@3@$00@3@VPxAllocator@3@$00@physx@@AEAAXI@Z 0000000180027390 f i GuMeshFactory.obj
 0001:00026390       ?reserveInternal@?$PxHashBase@PEAVTriangleMesh@Gu@physx@@PEAV123@U?$PxHash@PEAVTriangleMesh@Gu@physx@@@3@UGetKey@?$PxHashSetBase@PEAVTriangleMesh@Gu@physx@@U?$PxHash@PEAVTriangleMesh@Gu@physx@@@3@VPxAllocator@3@$00@3@VPxAllocator@3@$00@physx@@AEAAXI@Z 0000000180027390 f i GuMeshFactory.obj
 0001:00026560       ?setBounds@AABBTreeBounds@Gu@physx@@QEAAXPEAVPxBounds3@3@@Z 0000000180027560 f i GuMeshFactory.obj
 0001:00026570       ?setNbRunTimePrimitives@AABBTreeBuildNode@Gu@physx@@QEAAXI@Z 0000000180027570 f i GuMeshFactory.obj
 0001:00026580       ?takeOwnership@AABBTreeBounds@Gu@physx@@QEAAXXZ 0000000180027580 f i GuMeshFactory.obj
 0001:00026590       getInsertionCallback       0000000180027590 f   GuMeshFactory.obj
 0001:000265a0       ?doSupport@?$SupportLocalImpl@VConvexHullNoScaleV@Gu@physx@@@Gu@physx@@UEBA?AT__m128@@AEBT4@@Z 00000001800275a0 f i GuMTD.obj
 0001:000265f0       ?doSupport@?$SupportLocalImpl@VConvexHullNoScaleV@Gu@physx@@@Gu@physx@@UEBAXAEBT__m128@@AEAT4@1@Z 00000001800275f0 f i GuMTD.obj
 0001:00026780       ?populateVerts@?$SupportLocalImpl@VConvexHullNoScaleV@Gu@physx@@@Gu@physx@@UEBAXPEBEIPEBV?$PxVec3T@M@3@PEAT__m128@@@Z 0000000180027780 f i GuMTD.obj
 0001:000267c0       ?getInternalData@TriangleMesh@Gu@physx@@UEBA_NAEAUPxTriangleMeshInternalData@3@_N@Z 00000001800277c0 f   GuTriangleMesh.obj
 0001:000267c0       ?isDynamic@Pruner@Gu@physx@@UEBA_NXZ 00000001800277c0 f   GuIncrementalAABBPruner.obj
 0001:000281c0       ??$gjk@U?$LocalConvex@VCapsuleV@Gu@physx@@@Gu@physx@@U?$LocalConvex@VConvexHullV@Gu@physx@@@23@@Gu@physx@@YA?AW4GjkStatus@01@AEBU?$LocalConvex@VCapsuleV@Gu@physx@@@01@AEBU?$LocalConvex@VConvexHullV@Gu@physx@@@01@AEBT__m128@@2AEAT5@333@Z 00000001800291c0 f i GuMTD.obj
 0001:00028e30       ??_E?$LocalConvex@UCustomConvexV@@@Gu@physx@@UEAAPEAXI@Z 0000000180029e30 f i GuGjkQuery.obj
 0001:00028e30       ??_E?$LocalConvex@UPointConvexV@@@Gu@physx@@UEAAPEAXI@Z 0000000180029e30 f i GuGjkQuery.obj
 0001:00028e30       ??_E?$LocalConvex@VBoxV@Gu@physx@@@Gu@physx@@UEAAPEAXI@Z 0000000180029e30 f i GuSweepTests.obj
 0001:00028e30       ??_E?$LocalConvex@VCapsuleV@Gu@physx@@@Gu@physx@@UEAAPEAXI@Z 0000000180029e30 f i GuMTD.obj
 0001:00028e30       ??_E?$LocalConvex@VConvexHullNoScaleV@Gu@physx@@@Gu@physx@@UEAAPEAXI@Z 0000000180029e30 f i GuPCMContactBoxConvex.obj
 0001:00028e30       ??_E?$LocalConvex@VConvexHullV@Gu@physx@@@Gu@physx@@UEAAPEAXI@Z 0000000180029e30 f i GuMTD.obj
 0001:00028e30       ??_E?$LocalConvex@VTetrahedronV@Gu@physx@@@Gu@physx@@UEAAPEAXI@Z 0000000180029e30 f i GuCookingTetrahedronMesh.obj
 0001:00028e30       ??_E?$LocalConvex@VTriangleV@Gu@physx@@@Gu@physx@@UEAAPEAXI@Z 0000000180029e30 f i GuSweepTests.obj
 0001:00028e30       ??_EGjkConvex@Gu@physx@@UEAAPEAXI@Z 0000000180029e30 f i GuMTD.obj
 0001:00028e30       ??_G?$LocalConvex@UCustomConvexV@@@Gu@physx@@UEAAPEAXI@Z 0000000180029e30 f i GuGjkQuery.obj
 0001:00028e30       ??_G?$LocalConvex@UPointConvexV@@@Gu@physx@@UEAAPEAXI@Z 0000000180029e30 f i GuGjkQuery.obj
 0001:00028e30       ??_G?$LocalConvex@VBoxV@Gu@physx@@@Gu@physx@@UEAAPEAXI@Z 0000000180029e30 f i GuSweepTests.obj
 0001:00028e30       ??_G?$LocalConvex@VCapsuleV@Gu@physx@@@Gu@physx@@UEAAPEAXI@Z 0000000180029e30 f i GuMTD.obj
 0001:00028e30       ??_G?$LocalConvex@VConvexHullNoScaleV@Gu@physx@@@Gu@physx@@UEAAPEAXI@Z 0000000180029e30 f i GuPCMContactBoxConvex.obj
 0001:00028e30       ??_G?$LocalConvex@VConvexHullV@Gu@physx@@@Gu@physx@@UEAAPEAXI@Z 0000000180029e30 f i GuMTD.obj
 0001:00028e30       ??_G?$LocalConvex@VTetrahedronV@Gu@physx@@@Gu@physx@@UEAAPEAXI@Z 0000000180029e30 f i GuCookingTetrahedronMesh.obj
 0001:00028e30       ??_G?$LocalConvex@VTriangleV@Gu@physx@@@Gu@physx@@UEAAPEAXI@Z 0000000180029e30 f i GuSweepTests.obj
 0001:00028e30       ??_GGjkConvex@Gu@physx@@UEAAPEAXI@Z 0000000180029e30 f i GuMTD.obj
 0001:0002d670       ?getCenter@?$LocalConvex@UCustomConvexV@@@Gu@physx@@UEBA?AT__m128@@XZ 000000018002e670 f i GuGjkQuery.obj
 0001:0002d670       ?getCenter@?$LocalConvex@UPointConvexV@@@Gu@physx@@UEBA?AT__m128@@XZ 000000018002e670 f i GuGjkQuery.obj
 0001:0002d670       ?getCenter@?$LocalConvex@VBoxV@Gu@physx@@@Gu@physx@@UEBA?AT__m128@@XZ 000000018002e670 f i GuSweepTests.obj
 0001:0002d670       ?getCenter@?$LocalConvex@VCapsuleV@Gu@physx@@@Gu@physx@@UEBA?AT__m128@@XZ 000000018002e670 f i GuMTD.obj
 0001:0002d670       ?getCenter@?$LocalConvex@VConvexHullNoScaleV@Gu@physx@@@Gu@physx@@UEBA?AT__m128@@XZ 000000018002e670 f i GuPCMContactBoxConvex.obj
 0001:0002d670       ?getCenter@?$LocalConvex@VConvexHullV@Gu@physx@@@Gu@physx@@UEBA?AT__m128@@XZ 000000018002e670 f i GuMTD.obj
 0001:0002d670       ?getCenter@?$LocalConvex@VTetrahedronV@Gu@physx@@@Gu@physx@@UEBA?AT__m128@@XZ 000000018002e670 f i GuCookingTetrahedronMesh.obj
 0001:0002d670       ?getCenter@?$LocalConvex@VTriangleV@Gu@physx@@@Gu@physx@@UEBA?AT__m128@@XZ 000000018002e670 f i GuSweepTests.obj
 0001:0002d680       ?getSweepMargin@?$LocalConvex@VCapsuleV@Gu@physx@@@Gu@physx@@UEBA?AT__m128@@XZ 000000018002e680 f i GuMTD.obj
 0001:0002d680       ?getSweepMargin@?$RelativeConvex@VCapsuleV@Gu@physx@@@Gu@physx@@UEBA?AT__m128@@XZ 000000018002e680 f i GuCCDSweepPrimitives.obj
 0001:0002d690       ?getSweepMargin@?$LocalConvex@UCustomConvexV@@@Gu@physx@@UEBA?AT__m128@@XZ 000000018002e690 f i GuGjkQuery.obj
 0001:0002d690       ?getSweepMargin@?$LocalConvex@UPointConvexV@@@Gu@physx@@UEBA?AT__m128@@XZ 000000018002e690 f i GuGjkQuery.obj
 0001:0002d690       ?getSweepMargin@?$LocalConvex@VBoxV@Gu@physx@@@Gu@physx@@UEBA?AT__m128@@XZ 000000018002e690 f i GuSweepTests.obj
 0001:0002d690       ?getSweepMargin@?$LocalConvex@VConvexHullNoScaleV@Gu@physx@@@Gu@physx@@UEBA?AT__m128@@XZ 000000018002e690 f i GuPCMContactBoxConvex.obj
 0001:0002d690       ?getSweepMargin@?$LocalConvex@VConvexHullV@Gu@physx@@@Gu@physx@@UEBA?AT__m128@@XZ 000000018002e690 f i GuMTD.obj
 0001:0002d690       ?getSweepMargin@?$RelativeConvex@UCustomConvexV@@@Gu@physx@@UEBA?AT__m128@@XZ 000000018002e690 f i GuGjkQuery.obj
 0001:0002d690       ?getSweepMargin@?$RelativeConvex@VBoxV@Gu@physx@@@Gu@physx@@UEBA?AT__m128@@XZ 000000018002e690 f i GuOverlapTests.obj
 0001:0002d690       ?getSweepMargin@?$RelativeConvex@VConvexHullNoScaleV@Gu@physx@@@Gu@physx@@UEBA?AT__m128@@XZ 000000018002e690 f i GuPCMContactConvexConvex.obj
 0001:0002d690       ?getSweepMargin@?$RelativeConvex@VConvexHullV@Gu@physx@@@Gu@physx@@UEBA?AT__m128@@XZ 000000018002e690 f i GuOverlapTests.obj
 0001:0002d6b0       ?getSweepMargin@GjkConvex@Gu@physx@@UEBA?AT__m128@@XZ 000000018002e6b0 f i GuMTD.obj
 0001:0002d6d0       ?pointConvexDistance@@YA_NAEAV?$PxVec3T@M@physx@@0AEAMAEBV12@PEBVConvexMesh@Gu@2@AEBVPxMeshScale@2@AEBUPxTransformPadded@2@@Z 000000018002e6d0 f   GuMTD.obj
 0001:0002e440       ?support@?$LocalConvex@VCapsuleV@Gu@physx@@@Gu@physx@@UEBA?AT__m128@@AEBT4@@Z 000000018002f440 f i GuMTD.obj
 0001:0002e4a0       ?support@?$LocalConvex@VCapsuleV@Gu@physx@@@Gu@physx@@UEBA?AT__m128@@AEBT4@AEAH@Z 000000018002f4a0 f i GuMTD.obj
 0001:0002e510       ?support@?$LocalConvex@VConvexHullV@Gu@physx@@@Gu@physx@@UEBA?AT__m128@@AEBT4@@Z 000000018002f510 f i GuMTD.obj
 0001:0002e5f0       ?support@?$LocalConvex@VConvexHullV@Gu@physx@@@Gu@physx@@UEBA?AT__m128@@AEBT4@AEAH@Z 000000018002f5f0 f i GuMTD.obj
 0001:0002e6c0       ?support@GjkConvex@Gu@physx@@UEBA?AT__m128@@AEBT4@@Z 000000018002f6c0 f i GuMTD.obj
 0001:0002e6e0       ?support@GjkConvex@Gu@physx@@UEBA?AT__m128@@AEBT4@AEAH@Z 000000018002f6e0 f i GuMTD.obj
 0001:0002e700       ?supportPoint@?$LocalConvex@VCapsuleV@Gu@physx@@@Gu@physx@@UEBA?AT__m128@@H@Z 000000018002f700 f i GuMTD.obj
 0001:0002e730       ?supportPoint@?$LocalConvex@VConvexHullV@Gu@physx@@@Gu@physx@@UEBA?AT__m128@@H@Z 000000018002f730 f i GuMTD.obj
 0001:0002e780       ?supportPoint@GjkConvex@Gu@physx@@UEBA?AT__m128@@H@Z 000000018002f780 f i GuMTD.obj
 0001:0002e7a0       ?supportPoint@?$RelativeConvex@VBoxV@Gu@physx@@@Gu@physx@@UEBA?AT__m128@@H@Z 000000018002f7a0 f i GuOverlapTests.obj
 0001:0002e810       ?support@?$RelativeConvex@VBoxV@Gu@physx@@@Gu@physx@@UEBA?AT__m128@@AEBT4@@Z 000000018002f810 f i GuOverlapTests.obj
 0001:0002e890       ?support@?$RelativeConvex@VBoxV@Gu@physx@@@Gu@physx@@UEBA?AT__m128@@AEBT4@AEAH@Z 000000018002f890 f i GuOverlapTests.obj
 0001:0002e920       ?getCenter@?$RelativeConvex@UCustomConvexV@@@Gu@physx@@UEBA?AT__m128@@XZ 000000018002f920 f i GuGjkQuery.obj
 0001:0002e920       ?getCenter@?$RelativeConvex@VBoxV@Gu@physx@@@Gu@physx@@UEBA?AT__m128@@XZ 000000018002f920 f i GuOverlapTests.obj
 0001:0002e920       ?getCenter@?$RelativeConvex@VCapsuleV@Gu@physx@@@Gu@physx@@UEBA?AT__m128@@XZ 000000018002f920 f i GuCCDSweepPrimitives.obj
 0001:0002e920       ?getCenter@?$RelativeConvex@VConvexHullNoScaleV@Gu@physx@@@Gu@physx@@UEBA?AT__m128@@XZ 000000018002f920 f i GuPCMContactConvexConvex.obj
 0001:0002e920       ?getCenter@?$RelativeConvex@VConvexHullV@Gu@physx@@@Gu@physx@@UEBA?AT__m128@@XZ 000000018002f920 f i GuOverlapTests.obj
 0001:0002e920       ?getCenter@?$RelativeConvex@VTriangleV@Gu@physx@@@Gu@physx@@UEBA?AT__m128@@XZ 000000018002f920 f i GuCCDSweepPrimitives.obj
 0001:0002e960       ??_E?$RelativeConvex@UCustomConvexV@@@Gu@physx@@UEAAPEAXI@Z 000000018002f960 f i GuGjkQuery.obj
 0001:0002e960       ??_E?$RelativeConvex@VBoxV@Gu@physx@@@Gu@physx@@UEAAPEAXI@Z 000000018002f960 f i GuOverlapTests.obj
 0001:0002e960       ??_E?$RelativeConvex@VCapsuleV@Gu@physx@@@Gu@physx@@UEAAPEAXI@Z 000000018002f960 f i GuCCDSweepPrimitives.obj
 0001:0002e960       ??_E?$RelativeConvex@VConvexHullNoScaleV@Gu@physx@@@Gu@physx@@UEAAPEAXI@Z 000000018002f960 f i GuPCMContactConvexConvex.obj
 0001:0002e960       ??_E?$RelativeConvex@VConvexHullV@Gu@physx@@@Gu@physx@@UEAAPEAXI@Z 000000018002f960 f i GuOverlapTests.obj
 0001:0002e960       ??_E?$RelativeConvex@VTriangleV@Gu@physx@@@Gu@physx@@UEAAPEAXI@Z 000000018002f960 f i GuCCDSweepPrimitives.obj
 0001:0002e960       ??_G?$RelativeConvex@UCustomConvexV@@@Gu@physx@@UEAAPEAXI@Z 000000018002f960 f i GuGjkQuery.obj
 0001:0002e960       ??_G?$RelativeConvex@VBoxV@Gu@physx@@@Gu@physx@@UEAAPEAXI@Z 000000018002f960 f i GuOverlapTests.obj
 0001:0002e960       ??_G?$RelativeConvex@VCapsuleV@Gu@physx@@@Gu@physx@@UEAAPEAXI@Z 000000018002f960 f i GuCCDSweepPrimitives.obj
 0001:0002e960       ??_G?$RelativeConvex@VConvexHullNoScaleV@Gu@physx@@@Gu@physx@@UEAAPEAXI@Z 000000018002f960 f i GuPCMContactConvexConvex.obj
 0001:0002e960       ??_G?$RelativeConvex@VConvexHullV@Gu@physx@@@Gu@physx@@UEAAPEAXI@Z 000000018002f960 f i GuOverlapTests.obj
 0001:0002e960       ??_G?$RelativeConvex@VTriangleV@Gu@physx@@@Gu@physx@@UEAAPEAXI@Z 000000018002f960 f i GuCCDSweepPrimitives.obj
 0001:00030bb0       ?supportPoint@?$RelativeConvex@VConvexHullV@Gu@physx@@@Gu@physx@@UEBA?AT__m128@@H@Z 0000000180031bb0 f i GuOverlapTests.obj
 0001:00030c30       ?support@?$RelativeConvex@VConvexHullV@Gu@physx@@@Gu@physx@@UEBA?AT__m128@@AEBT4@@Z 0000000180031c30 f i GuOverlapTests.obj
 0001:00030d60       ?support@?$RelativeConvex@VConvexHullV@Gu@physx@@@Gu@physx@@UEBA?AT__m128@@AEBT4@AEAH@Z 0000000180031d60 f i GuOverlapTests.obj
 0001:00030fe0       ?GeomOverlapCallback_ConvexCoreHeightfield@@YA_NAEBVPxGeometry@physx@@AEBV?$PxTransformT@M@2@01PEAUTriggerCache@Gu@2@PEAUPxQueryThreadContext@2@@Z 0000000180031fe0 f   GuOverlapTests.obj
 0001:000310f0       ??$gjk@U?$RelativeConvex@VBoxV@Gu@physx@@@Gu@physx@@U?$LocalConvex@VConvexHullV@Gu@physx@@@23@@Gu@physx@@YA?AW4GjkStatus@01@AEBU?$RelativeConvex@VBoxV@Gu@physx@@@01@AEBU?$LocalConvex@VConvexHullV@Gu@physx@@@01@AEBT__m128@@2AEAT5@333@Z 00000001800320f0 f i GuOverlapTests.obj
 0001:00031da0       ??$gjk@U?$RelativeConvex@VConvexHullV@Gu@physx@@@Gu@physx@@U?$LocalConvex@VConvexHullV@Gu@physx@@@23@@Gu@physx@@YA?AW4GjkStatus@01@AEBU?$RelativeConvex@VConvexHullV@Gu@physx@@@01@AEBU?$LocalConvex@VConvexHullV@Gu@physx@@@01@AEBT__m128@@2AEAT5@333@Z 0000000180032da0 f i GuOverlapTests.obj
 0001:00032af0       ?ComputeCubemapNearestOffset@physx@@YAIAEBV?$PxVec3T@M@1@I@Z 0000000180033af0 f i GuOverlapTests.obj
 0001:00032c00       ?getOverlapFuncTable@Gu@physx@@YAPEAY0L@Q6A_NAEBVPxGeometry@2@AEBV?$PxTransformT@M@2@01PEAUTriggerCache@12@PEAUPxQueryThreadContext@2@@ZXZ 0000000180033c00 f   GuOverlapTests.obj
 0001:000348c0       ?support@ConvexShape@Gu@physx@@QEBA?AV?$PxVec3T@M@3@AEBV43@@Z 00000001800358c0 f i GuOverlapTests.obj
 0001:00034c20       ??_ESupport@PxGjkQuery@physx@@UEAAPEAXI@Z 0000000180035c20 f i GuRaycastTests.obj
 0001:00034c20       ??_GSupport@PxGjkQuery@physx@@UEAAPEAXI@Z 0000000180035c20 f i GuRaycastTests.obj
 0001:00034c50       ?raycast_box@@YAIAEBVPxGeometry@physx@@AEBV?$PxTransformT@M@2@AEBV?$PxVec3T@M@2@2MV?$PxFlags@W4Enum@PxHitFlag@physx@@G@2@IPEIAUPxGeomRaycastHit@2@IPEAUPxQueryThreadContext@2@@Z 0000000180035c50 f   GuRaycastTests.obj
 0001:000352a0       ?raycast_sphere@@YAIAEBVPxGeometry@physx@@AEBV?$PxTransformT@M@2@AEBV?$PxVec3T@M@2@2MV?$PxFlags@W4Enum@PxHitFlag@physx@@G@2@IPEIAUPxGeomRaycastHit@2@IPEAUPxQueryThreadContext@2@@Z 00000001800362a0 f   GuRaycastTests.obj
 0001:00035420       ?raycast_capsule@@YAIAEBVPxGeometry@physx@@AEBV?$PxTransformT@M@2@AEBV?$PxVec3T@M@2@2MV?$PxFlags@W4Enum@PxHitFlag@physx@@G@2@IPEIAUPxGeomRaycastHit@2@IPEAUPxQueryThreadContext@2@@Z 0000000180036420 f   GuRaycastTests.obj
 0001:00035970       ?raycast_plane@@YAIAEBVPxGeometry@physx@@AEBV?$PxTransformT@M@2@AEBV?$PxVec3T@M@2@2MV?$PxFlags@W4Enum@PxHitFlag@physx@@G@2@IPEIAUPxGeomRaycastHit@2@IPEAUPxQueryThreadContext@2@@Z 0000000180036970 f   GuRaycastTests.obj
 0001:00035ae0       ?raycast_convexMesh@@YAIAEBVPxGeometry@physx@@AEBV?$PxTransformT@M@2@AEBV?$PxVec3T@M@2@2MV?$PxFlags@W4Enum@PxHitFlag@physx@@G@2@IPEIAUPxGeomRaycastHit@2@IPEAUPxQueryThreadContext@2@@Z 0000000180036ae0 f   GuRaycastTests.obj
 0001:000365c0       ?raycast_triangleMesh@@YAIAEBVPxGeometry@physx@@AEBV?$PxTransformT@M@2@AEBV?$PxVec3T@M@2@2MV?$PxFlags@W4Enum@PxHitFlag@physx@@G@2@IPEIAUPxGeomRaycastHit@2@IPEAUPxQueryThreadContext@2@@Z 00000001800375c0 f   GuRaycastTests.obj
 0001:00036650       ?raycast_heightField@@YAIAEBVPxGeometry@physx@@AEBV?$PxTransformT@M@2@AEBV?$PxVec3T@M@2@2MV?$PxFlags@W4Enum@PxHitFlag@physx@@G@2@IPEIAUPxGeomRaycastHit@2@IPEAUPxQueryThreadContext@2@@Z 0000000180037650 f   GuRaycastTests.obj
 0001:00038310       ??Dphysx@@YA?AV?$PxMat34T@M@0@AEBVPxMeshScale@0@AEBV?$PxTransformT@M@0@@Z 0000000180039310 f i GuRaycastTests.obj
 0001:00038dd0       ?getRaycastFuncTable@Gu@physx@@YAAEAY0L@Q6AIAEBVPxGeometry@2@AEBV?$PxTransformT@M@2@AEBV?$PxVec3T@M@2@2MV?$PxFlags@W4Enum@PxHitFlag@physx@@G@2@IPEIAUPxGeomRaycastHit@2@IPEAUPxQueryThreadContext@2@@ZXZ 0000000180039dd0 f   GuRaycastTests.obj
 0001:00038de0       ?supportLocal@ConvexShape@Gu@physx@@QEBA?AV?$PxVec3T@M@3@AEBV43@@Z 0000000180039de0 f i GuRaycastTests.obj
 0001:00038e90       ??Dphysx@@YA?AV?$PxMat34T@M@0@AEBV?$PxTransformT@M@0@AEBVPxMeshScale@0@@Z 0000000180039e90 f i GuSweepMTD.obj
 0001:000393f0       ??_E?$MeshHitCallback@UPxGeomRaycastHit@physx@@@Gu@physx@@UEAAPEAXI@Z 000000018003a3f0 f i GuSweepMTD.obj
 0001:000393f0       ??_G?$MeshHitCallback@UPxGeomRaycastHit@physx@@@Gu@physx@@UEAAPEAXI@Z 000000018003a3f0 f i GuSweepMTD.obj
 0001:00039420       ??_EMeshMTDGenerationCallback@@UEAAPEAXI@Z 000000018003a420 f i GuSweepMTD.obj
 0001:00039420       ??_GMeshMTDGenerationCallback@@UEAAPEAXI@Z 000000018003a420 f i GuSweepMTD.obj
 0001:00039450       ??_EMidPhaseQueryLocalReport@@UEAAPEAXI@Z 000000018003a450 f i GuSweepMTD.obj
 0001:00039450       ??_ERTreeCookerRemap@@UEAAPEAXI@Z 000000018003a450 f i GuCookingTriangleMesh.obj
 0001:00039450       ??_GMidPhaseQueryLocalReport@@UEAAPEAXI@Z 000000018003a450 f i GuSweepMTD.obj
 0001:00039450       ??_GRTreeCookerRemap@@UEAAPEAXI@Z 000000018003a450 f i GuCookingTriangleMesh.obj
 0001:00039480       ?computeBox_HeightFieldMTD@Gu@physx@@YA_NAEBVPxHeightFieldGeometry@2@AEBV?$PxTransformT@M@2@AEBVBox@12@1M_NAEAUPxGeomSweepHit@2@@Z 000000018003a480 f   GuSweepMTD.obj
 0001:0003a1a0       ?computeBox_TriangleMeshMTD@Gu@physx@@YA_NAEBVPxTriangleMeshGeometry@2@AEBV?$PxTransformT@M@2@AEBVBox@12@1M_NAEAUPxGeomSweepHit@2@@Z 000000018003b1a0 f   GuSweepMTD.obj
 0001:0003acf0       ?computeCapsule_CapsuleMTD@Gu@physx@@YA_NAEBVCapsule@12@0AEAUPxGeomSweepHit@2@@Z 000000018003bcf0 f   GuSweepMTD.obj
 0001:0003af20       ?computeCapsule_HeightFieldMTD@Gu@physx@@YA_NAEBVPxHeightFieldGeometry@2@AEBV?$PxTransformT@M@2@AEAVCapsuleV@12@M_NAEAUPxGeomSweepHit@2@@Z 000000018003bf20 f   GuSweepMTD.obj
 0001:0003b760       ?computeCapsule_TriangleMeshMTD@Gu@physx@@YA_NAEBVPxTriangleMeshGeometry@2@AEBV?$PxTransformT@M@2@AEAVCapsuleV@12@M_NAEAUPxGeomSweepHit@2@@Z 000000018003c760 f   GuSweepMTD.obj
 0001:0003c010       ?computeConvex_HeightFieldMTD@Gu@physx@@YA_NAEBVPxHeightFieldGeometry@2@AEBV?$PxTransformT@M@2@AEBVPxConvexMeshGeometry@2@1M_NAEAUPxGeomSweepHit@2@@Z 000000018003d010 f   GuSweepMTD.obj
 0001:0003d280       ?computeConvex_TriangleMeshMTD@Gu@physx@@YA_NAEBVPxTriangleMeshGeometry@2@AEBV?$PxTransformT@M@2@AEBVPxConvexMeshGeometry@2@1M_NAEAUPxGeomSweepHit@2@@Z 000000018003e280 f   GuSweepMTD.obj
 0001:0003e4b0       ?computePlane_BoxMTD@Gu@physx@@YA_NAEBVPxPlane@2@AEBVBox@12@AEAUPxGeomSweepHit@2@@Z 000000018003f4b0 f   GuSweepMTD.obj
 0001:0003e740       ?computePlane_CapsuleMTD@Gu@physx@@YA_NAEBVPxPlane@2@AEBVCapsule@12@AEAUPxGeomSweepHit@2@@Z 000000018003f740 f   GuSweepMTD.obj
 0001:0003e880       ?computePlane_ConvexMTD@Gu@physx@@YA_NAEBVPxPlane@2@AEBVPxConvexMeshGeometry@2@AEBV?$PxTransformT@M@2@AEAUPxGeomSweepHit@2@@Z 000000018003f880 f   GuSweepMTD.obj
 0001:0003edb0       ?computeSphere_CapsuleMTD@Gu@physx@@YA_NAEBVSphere@12@AEBVCapsule@12@AEAUPxGeomSweepHit@2@@Z 000000018003fdb0 f   GuSweepMTD.obj
 0001:0003ef60       ?computeSphere_SphereMTD@Gu@physx@@YA_NAEBVSphere@12@0AEAUPxGeomSweepHit@2@@Z 000000018003ff60 f   GuSweepMTD.obj
 0001:0003f050       ?getInverse@?$PxMat33T@M@physx@@QEBA?BV12@XZ 0000000180040050 f i GuSweepMTD.obj
 0001:0003f2a0       ?growAndPushBack@?$PxArray@IV?$PxReflectionAllocator@I@physx@@@physx@@IEAAAEAIAEBI@Z 00000001800402a0 f i GuSweepMTD.obj
 0001:0003f3e0       ?init@FastVertex2ShapeScaling@Cm@physx@@QEAAXAEBV?$PxVec3T@M@3@AEBV?$PxQuatT@M@3@@Z 00000001800403e0 f i GuSweepMTD.obj
 0001:0003fc60       ?processHit@MeshMTDGenerationCallback@@UEAA_NAEBUPxGeomRaycastHit@physx@@AEBV?$PxVec3T@M@3@11AEAMPEBI@Z 0000000180040c60 f i GuSweepMTD.obj
 0001:0003fcb0       ?recreate@?$PxArray@IV?$PxReflectionAllocator@I@physx@@@physx@@IEAAXI@Z 0000000180040cb0 f i GuSweepMTD.obj
 0001:0003fdc0       ?reportTouchedTris@MidPhaseQueryLocalReport@@UEAA_NIPEBI@Z 0000000180040dc0 f i GuSweepMTD.obj
 0001:0003fe30       ??$gjkPenetration@U?$LocalConvex@VCapsuleV@Gu@physx@@@Gu@physx@@U?$LocalConvex@VConvexHullV@Gu@physx@@@23@@Gu@physx@@YA?AW4GjkStatus@01@AEBU?$LocalConvex@VCapsuleV@Gu@physx@@@01@AEBU?$LocalConvex@VConvexHullV@Gu@physx@@@01@AEBT__m128@@2_NPEIAE4AEAEAEAUGjkOutput@01@@Z 0000000180040e30 f i GuSweepSharedTests.obj
 0001:0003fea0       ??$gjkPenetration@U?$LocalConvex@VCapsuleV@Gu@physx@@@Gu@physx@@U?$LocalConvex@VConvexHullV@Gu@physx@@@23@@Gu@physx@@YA?AW4GjkStatus@01@AEBU?$LocalConvex@VCapsuleV@Gu@physx@@@01@AEBU?$LocalConvex@VConvexHullV@Gu@physx@@@01@AEBT__m128@@2_NPEIAE4PEIAT5@5AEAEAEAUGjkOutput@01@@Z 0000000180040ea0 f i GuSweepSharedTests.obj
 0001:00041970       ??$gjkPenetration@U?$RelativeConvex@VBoxV@Gu@physx@@@Gu@physx@@U?$LocalConvex@VConvexHullV@Gu@physx@@@23@@Gu@physx@@YA?AW4GjkStatus@01@AEBU?$RelativeConvex@VBoxV@Gu@physx@@@01@AEBU?$LocalConvex@VConvexHullV@Gu@physx@@@01@AEBT__m128@@2_NPEIAE4AEAEAEAUGjkOutput@01@@Z 0000000180042970 f i GuSweepSharedTests.obj
 0001:000419e0       ??$gjkPenetration@U?$RelativeConvex@VBoxV@Gu@physx@@@Gu@physx@@U?$LocalConvex@VConvexHullV@Gu@physx@@@23@@Gu@physx@@YA?AW4GjkStatus@01@AEBU?$RelativeConvex@VBoxV@Gu@physx@@@01@AEBU?$LocalConvex@VConvexHullV@Gu@physx@@@01@AEBT__m128@@2_NPEIAE4PEIAT5@5AEAEAEAUGjkOutput@01@@Z 00000001800429e0 f i GuSweepSharedTests.obj
 0001:00043500       ??$gjkPenetration@U?$RelativeConvex@VConvexHullV@Gu@physx@@@Gu@physx@@U?$LocalConvex@VConvexHullV@Gu@physx@@@23@@Gu@physx@@YA?AW4GjkStatus@01@AEBU?$RelativeConvex@VConvexHullV@Gu@physx@@@01@AEBU?$LocalConvex@VConvexHullV@Gu@physx@@@01@AEBT__m128@@2_NPEIAE4AEAEAEAUGjkOutput@01@@Z 0000000180044500 f i GuSweepSharedTests.obj
 0001:00043570       ??$gjkPenetration@U?$RelativeConvex@VConvexHullV@Gu@physx@@@Gu@physx@@U?$LocalConvex@VConvexHullV@Gu@physx@@@23@@Gu@physx@@YA?AW4GjkStatus@01@AEBU?$RelativeConvex@VConvexHullV@Gu@physx@@@01@AEBU?$LocalConvex@VConvexHullV@Gu@physx@@@01@AEBT__m128@@2_NPEIAE4PEIAT5@5AEAEAEAUGjkOutput@01@@Z 0000000180044570 f i GuSweepSharedTests.obj
 0001:00045140       ??$gjkRaycast@U?$LocalConvex@VCapsuleV@Gu@physx@@@Gu@physx@@U?$LocalConvex@VConvexHullV@Gu@physx@@@23@@Gu@physx@@YA_NAEBU?$LocalConvex@VCapsuleV@Gu@physx@@@01@AEBU?$LocalConvex@VConvexHullV@Gu@physx@@@01@AEBT__m128@@222AEAT4@33M@Z 0000000180046140 f i GuSweepSharedTests.obj
 0001:00045eb0       ??$gjkRaycast@U?$RelativeConvex@VBoxV@Gu@physx@@@Gu@physx@@U?$LocalConvex@VConvexHullV@Gu@physx@@@23@@Gu@physx@@YA_NAEBU?$RelativeConvex@VBoxV@Gu@physx@@@01@AEBU?$LocalConvex@VConvexHullV@Gu@physx@@@01@AEBT__m128@@222AEAT4@33M@Z 0000000180046eb0 f i GuSweepSharedTests.obj
 0001:00046c80       ??$gjkRaycast@U?$RelativeConvex@VConvexHullV@Gu@physx@@@Gu@physx@@U?$LocalConvex@VConvexHullV@Gu@physx@@@23@@Gu@physx@@YA_NAEBU?$RelativeConvex@VConvexHullV@Gu@physx@@@01@AEBU?$LocalConvex@VConvexHullV@Gu@physx@@@01@AEBT__m128@@222AEAT4@33M@Z 0000000180047c80 f i GuSweepSharedTests.obj
 0001:00047a80       ??$gjkRaycastPenetration@U?$LocalConvex@VCapsuleV@Gu@physx@@@Gu@physx@@U?$LocalConvex@VConvexHullV@Gu@physx@@@23@@Gu@physx@@YA_NAEBU?$LocalConvex@VCapsuleV@Gu@physx@@@01@AEBU?$LocalConvex@VConvexHullV@Gu@physx@@@01@AEBT__m128@@222AEAT4@33M_N@Z 0000000180048a80 f i GuSweepSharedTests.obj
 0001:00047cb0       ??$gjkRaycastPenetration@U?$RelativeConvex@VBoxV@Gu@physx@@@Gu@physx@@U?$LocalConvex@VConvexHullV@Gu@physx@@@23@@Gu@physx@@YA_NAEBU?$RelativeConvex@VBoxV@Gu@physx@@@01@AEBU?$LocalConvex@VConvexHullV@Gu@physx@@@01@AEBT__m128@@222AEAT4@33M_N@Z 0000000180048cb0 f i GuSweepSharedTests.obj
 0001:00047f40       ??$gjkRaycastPenetration@U?$RelativeConvex@VConvexHullV@Gu@physx@@@Gu@physx@@U?$LocalConvex@VConvexHullV@Gu@physx@@@23@@Gu@physx@@YA_NAEBU?$RelativeConvex@VConvexHullV@Gu@physx@@@01@AEBU?$LocalConvex@VConvexHullV@Gu@physx@@@01@AEBT__m128@@222AEAT4@33M_N@Z 0000000180048f40 f i GuSweepSharedTests.obj
 0001:00048620       ?sweepBox_ConvexGeom@@YA_NAEBVPxGeometry@physx@@AEBV?$PxTransformT@M@2@AEBVPxBoxGeometry@2@1AEBVBox@Gu@2@AEBV?$PxVec3T@M@2@MAEAUPxGeomSweepHit@2@V?$PxFlags@W4Enum@PxHitFlag@physx@@G@2@MPEAUPxQueryThreadContext@2@@Z 0000000180049620 f   GuSweepSharedTests.obj
 0001:000491f0       ?sweepBox_PlaneGeom@@YA_NAEBVPxGeometry@physx@@AEBV?$PxTransformT@M@2@AEBVPxBoxGeometry@2@1AEBVBox@Gu@2@AEBV?$PxVec3T@M@2@MAEAUPxGeomSweepHit@2@V?$PxFlags@W4Enum@PxHitFlag@physx@@G@2@MPEAUPxQueryThreadContext@2@@Z 000000018004a1f0 f   GuSweepSharedTests.obj
 0001:000495c0       ?sweepCapsuleTriangles@Gu@physx@@YA_NIPEBVPxTriangle@2@_NAEBVPxCapsuleGeometry@2@AEBV?$PxTransformT@M@2@AEBV?$PxVec3T@M@2@MAEAUPxGeomSweepHit@2@PEBIMV?$PxFlags@W4Enum@PxHitFlag@physx@@G@2@@Z 000000018004a5c0 f   GuSweepSharedTests.obj
 0001:000497c0       ?sweepCapsule_CapsuleGeom@@YA_NAEBVPxGeometry@physx@@AEBV?$PxTransformT@M@2@AEBVPxCapsuleGeometry@2@1AEBVCapsule@Gu@2@AEBV?$PxVec3T@M@2@MAEAUPxGeomSweepHit@2@V?$PxFlags@W4Enum@PxHitFlag@physx@@G@2@MPEAUPxQueryThreadContext@2@@Z 000000018004a7c0 f   GuSweepSharedTests.obj
 0001:000499b0       ?sweepCapsule_ConvexGeom@@YA_NAEBVPxGeometry@physx@@AEBV?$PxTransformT@M@2@AEBVPxCapsuleGeometry@2@1AEBVCapsule@Gu@2@AEBV?$PxVec3T@M@2@MAEAUPxGeomSweepHit@2@V?$PxFlags@W4Enum@PxHitFlag@physx@@G@2@MPEAUPxQueryThreadContext@2@@Z 000000018004a9b0 f   GuSweepSharedTests.obj
 0001:0004a520       ?sweepCapsule_PlaneGeom@@YA_NAEBVPxGeometry@physx@@AEBV?$PxTransformT@M@2@AEBVPxCapsuleGeometry@2@1AEBVCapsule@Gu@2@AEBV?$PxVec3T@M@2@MAEAUPxGeomSweepHit@2@V?$PxFlags@W4Enum@PxHitFlag@physx@@G@2@MPEAUPxQueryThreadContext@2@@Z 000000018004b520 f   GuSweepSharedTests.obj
 0001:0004a800       ?sweepCapsule_SphereGeom@@YA_NAEBVPxGeometry@physx@@AEBV?$PxTransformT@M@2@AEBVPxCapsuleGeometry@2@1AEBVCapsule@Gu@2@AEBV?$PxVec3T@M@2@MAEAUPxGeomSweepHit@2@V?$PxFlags@W4Enum@PxHitFlag@physx@@G@2@MPEAUPxQueryThreadContext@2@@Z 000000018004b800 f   GuSweepSharedTests.obj
 0001:0004a990       ?sweepConvex_BoxGeom@@YA_NAEBVPxGeometry@physx@@AEBV?$PxTransformT@M@2@AEBVPxConvexMeshGeometry@2@1AEBV?$PxVec3T@M@2@MAEAUPxGeomSweepHit@2@V?$PxFlags@W4Enum@PxHitFlag@physx@@G@2@MPEAUPxQueryThreadContext@2@@Z 000000018004b990 f   GuSweepSharedTests.obj
 0001:0004abb0       ?sweepConvex_CapsuleGeom@@YA_NAEBVPxGeometry@physx@@AEBV?$PxTransformT@M@2@AEBVPxConvexMeshGeometry@2@1AEBV?$PxVec3T@M@2@MAEAUPxGeomSweepHit@2@V?$PxFlags@W4Enum@PxHitFlag@physx@@G@2@MPEAUPxQueryThreadContext@2@@Z 000000018004bbb0 f   GuSweepSharedTests.obj
 0001:0004adf0       ?sweepConvex_ConvexGeom@@YA_NAEBVPxGeometry@physx@@AEBV?$PxTransformT@M@2@AEBVPxConvexMeshGeometry@2@1AEBV?$PxVec3T@M@2@MAEAUPxGeomSweepHit@2@V?$PxFlags@W4Enum@PxHitFlag@physx@@G@2@MPEAUPxQueryThreadContext@2@@Z 000000018004bdf0 f   GuSweepSharedTests.obj
 0001:0004bd80       ?sweepConvex_PlaneGeom@@YA_NAEBVPxGeometry@physx@@AEBV?$PxTransformT@M@2@AEBVPxConvexMeshGeometry@2@1AEBV?$PxVec3T@M@2@MAEAUPxGeomSweepHit@2@V?$PxFlags@W4Enum@PxHitFlag@physx@@G@2@MPEAUPxQueryThreadContext@2@@Z 000000018004cd80 f   GuSweepSharedTests.obj
 0001:0004c210       ?sweepConvex_SphereGeom@@YA_NAEBVPxGeometry@physx@@AEBV?$PxTransformT@M@2@AEBVPxConvexMeshGeometry@2@1AEBV?$PxVec3T@M@2@MAEAUPxGeomSweepHit@2@V?$PxFlags@W4Enum@PxHitFlag@physx@@G@2@MPEAUPxQueryThreadContext@2@@Z 000000018004d210 f   GuSweepSharedTests.obj
 0001:0004cc00       ?sweepCapsule_BoxGeom@@YA_NAEBVPxGeometry@physx@@AEBV?$PxTransformT@M@2@AEBVPxCapsuleGeometry@2@1AEBVCapsule@Gu@2@AEBV?$PxVec3T@M@2@MAEAUPxGeomSweepHit@2@V?$PxFlags@W4Enum@PxHitFlag@physx@@G@2@MPEAUPxQueryThreadContext@2@@Z 000000018004dc00 f   GuSweepTests.obj
 0001:0004d460       ?sweepBox_SphereGeom@@YA_NAEBVPxGeometry@physx@@AEBV?$PxTransformT@M@2@AEBVPxBoxGeometry@2@1AEBVBox@Gu@2@AEBV?$PxVec3T@M@2@MAEAUPxGeomSweepHit@2@V?$PxFlags@W4Enum@PxHitFlag@physx@@G@2@MPEAUPxQueryThreadContext@2@@Z 000000018004e460 f   GuSweepTests.obj
 0001:0004da60       ?sweepBox_CapsuleGeom@@YA_NAEBVPxGeometry@physx@@AEBV?$PxTransformT@M@2@AEBVPxBoxGeometry@2@1AEBVBox@Gu@2@AEBV?$PxVec3T@M@2@MAEAUPxGeomSweepHit@2@V?$PxFlags@W4Enum@PxHitFlag@physx@@G@2@MPEAUPxQueryThreadContext@2@@Z 000000018004ea60 f   GuSweepTests.obj
 0001:0004e2c0       ?sweepBox_BoxGeom@@YA_NAEBVPxGeometry@physx@@AEBV?$PxTransformT@M@2@AEBVPxBoxGeometry@2@1AEBVBox@Gu@2@AEBV?$PxVec3T@M@2@MAEAUPxGeomSweepHit@2@V?$PxFlags@W4Enum@PxHitFlag@physx@@G@2@MPEAUPxQueryThreadContext@2@@Z 000000018004f2c0 f   GuSweepTests.obj
 0001:0004eb00       ?sweepConvex_ConvexCoreGeom@@YA_NAEBVPxGeometry@physx@@AEBV?$PxTransformT@M@2@AEBVPxConvexMeshGeometry@2@1AEBV?$PxVec3T@M@2@MAEAUPxGeomSweepHit@2@V?$PxFlags@W4Enum@PxHitFlag@physx@@G@2@MPEAUPxQueryThreadContext@2@@Z 000000018004fb00 f   GuSweepTests.obj
 0001:00050b60       ?sweepConvexCore_HeightFieldGeom@@YA_NAEBVPxGeometry@physx@@AEBV?$PxTransformT@M@2@AEBVPxConvexCoreGeometry@2@1AEBV?$PxVec3T@M@2@MAEAUPxGeomSweepHit@2@V?$PxFlags@W4Enum@PxHitFlag@physx@@G@2@MPEAUPxQueryThreadContext@2@@Z 0000000180051b60 f   GuSweepTests.obj
 0001:00051390       ??$gjkPenetration@U?$LocalConvex@VCapsuleV@Gu@physx@@@Gu@physx@@U?$LocalConvex@VBoxV@Gu@physx@@@23@@Gu@physx@@YA?AW4GjkStatus@01@AEBU?$LocalConvex@VCapsuleV@Gu@physx@@@01@AEBU?$LocalConvex@VBoxV@Gu@physx@@@01@AEBT__m128@@2_NPEIAE4AEAEAEAUGjkOutput@01@@Z 0000000180052390 f i GuSweepTests.obj
 0001:00051400       ??$gjkPenetration@U?$LocalConvex@VCapsuleV@Gu@physx@@@Gu@physx@@U?$LocalConvex@VBoxV@Gu@physx@@@23@@Gu@physx@@YA?AW4GjkStatus@01@AEBU?$LocalConvex@VCapsuleV@Gu@physx@@@01@AEBU?$LocalConvex@VBoxV@Gu@physx@@@01@AEBT__m128@@2_NPEIAE4PEIAT5@5AEAEAEAUGjkOutput@01@@Z 0000000180052400 f i GuSweepTests.obj
 0001:00052e50       ??$gjkPenetration@U?$RelativeConvex@VBoxV@Gu@physx@@@Gu@physx@@U?$LocalConvex@VBoxV@Gu@physx@@@23@@Gu@physx@@YA?AW4GjkStatus@01@AEBU?$RelativeConvex@VBoxV@Gu@physx@@@01@AEBU?$LocalConvex@VBoxV@Gu@physx@@@01@AEBT__m128@@2_NPEIAE4AEAEAEAUGjkOutput@01@@Z 0000000180053e50 f i GuSweepTests.obj
 0001:00052ec0       ??$gjkPenetration@U?$RelativeConvex@VBoxV@Gu@physx@@@Gu@physx@@U?$LocalConvex@VBoxV@Gu@physx@@@23@@Gu@physx@@YA?AW4GjkStatus@01@AEBU?$RelativeConvex@VBoxV@Gu@physx@@@01@AEBU?$LocalConvex@VBoxV@Gu@physx@@@01@AEBT__m128@@2_NPEIAE4PEIAT5@5AEAEAEAUGjkOutput@01@@Z 0000000180053ec0 f i GuSweepTests.obj
 0001:00054960       ??$gjkRaycast@U?$LocalConvex@VCapsuleV@Gu@physx@@@Gu@physx@@U?$LocalConvex@VBoxV@Gu@physx@@@23@@Gu@physx@@YA_NAEBU?$LocalConvex@VCapsuleV@Gu@physx@@@01@AEBU?$LocalConvex@VBoxV@Gu@physx@@@01@AEBT__m128@@222AEAT4@33M@Z 0000000180055960 f i GuSweepTests.obj
 0001:00055540       ??$gjkRaycast@U?$LocalConvex@VTriangleV@Gu@physx@@@Gu@physx@@U?$LocalConvex@VBoxV@Gu@physx@@@23@@Gu@physx@@YA_NAEBU?$LocalConvex@VTriangleV@Gu@physx@@@01@AEBU?$LocalConvex@VBoxV@Gu@physx@@@01@AEBT__m128@@222AEAT4@33M@Z 0000000180056540 f i GuSweepTests.obj
 0001:000561c0       ??$gjkRaycast@U?$RelativeConvex@VBoxV@Gu@physx@@@Gu@physx@@U?$LocalConvex@VBoxV@Gu@physx@@@23@@Gu@physx@@YA_NAEBU?$RelativeConvex@VBoxV@Gu@physx@@@01@AEBU?$LocalConvex@VBoxV@Gu@physx@@@01@AEBT__m128@@222AEAT4@33M@Z 00000001800571c0 f i GuSweepTests.obj
 0001:00056e80       ?getSweepFuncTable@Gu@physx@@YAAEBUGeomSweepFuncs@12@XZ 0000000180057e80 f   GuSweepTests.obj
 0001:00056e90       ?getSweepMargin@?$LocalConvex@VTetrahedronV@Gu@physx@@@Gu@physx@@UEBA?AT__m128@@XZ 0000000180057e90 f i GuCookingTetrahedronMesh.obj
 0001:00056e90       ?getSweepMargin@?$LocalConvex@VTriangleV@Gu@physx@@@Gu@physx@@UEBA?AT__m128@@XZ 0000000180057e90 f i GuSweepTests.obj
 0001:00056e90       ?getSweepMargin@?$RelativeConvex@VTriangleV@Gu@physx@@@Gu@physx@@UEBA?AT__m128@@XZ 0000000180057e90 f i GuCCDSweepPrimitives.obj
 0001:00057060       ?support@?$LocalConvex@VBoxV@Gu@physx@@@Gu@physx@@UEBA?AT__m128@@AEBT4@@Z 0000000180058060 f i GuSweepTests.obj
 0001:00057090       ?support@?$LocalConvex@VBoxV@Gu@physx@@@Gu@physx@@UEBA?AT__m128@@AEBT4@AEAH@Z 0000000180058090 f i GuSweepTests.obj
 0001:000570d0       ?support@?$LocalConvex@VTriangleV@Gu@physx@@@Gu@physx@@UEBA?AT__m128@@AEBT4@@Z 00000001800580d0 f i GuSweepTests.obj
 0001:00057160       ?support@?$LocalConvex@VTriangleV@Gu@physx@@@Gu@physx@@UEBA?AT__m128@@AEBT4@AEAH@Z 0000000180058160 f i GuSweepTests.obj
 0001:00057850       ?supportPoint@?$LocalConvex@VBoxV@Gu@physx@@@Gu@physx@@UEBA?AT__m128@@H@Z 0000000180058850 f i GuSweepTests.obj
 0001:00057890       ?supportPoint@?$LocalConvex@VTetrahedronV@Gu@physx@@@Gu@physx@@UEBA?AT__m128@@H@Z 0000000180058890 f i GuCookingTetrahedronMesh.obj
 0001:00057890       ?supportPoint@?$LocalConvex@VTriangleV@Gu@physx@@@Gu@physx@@UEBA?AT__m128@@H@Z 0000000180058890 f i GuSweepTests.obj
 0001:000578b0       ?sweepBoxTriangles@Gu@physx@@YA_NIPEBVPxTriangle@2@_NAEBVPxBoxGeometry@2@AEBV?$PxTransformT@M@2@AEBV?$PxVec3T@M@2@MAEAUPxGeomSweepHit@2@PEBIMV?$PxFlags@W4Enum@PxHitFlag@physx@@G@2@@Z 00000001800588b0 f   GuSweepTests.obj
 0001:000582f0       ??$PxSort@HU?$Comparer@V?$PxVec3T@M@physx@@@MeshAnalyzer@Gu@physx@@V?$PxReflectionAllocator@H@4@@physx@@YAXPEAHIAEBU?$Comparer@V?$PxVec3T@M@physx@@@MeshAnalyzer@Gu@0@AEBV?$PxReflectionAllocator@H@0@I@Z 00000001800592f0 f i GuSDF.obj
 0001:00058980       ??$PxSort@HU?$PxLess@H@physx@@V?$PxReflectionAllocator@H@2@@physx@@YAXPEAHIAEBU?$PxLess@H@0@AEBV?$PxReflectionAllocator@H@0@I@Z 0000000180059980 f i GuSDF.obj
 0001:00058df0       ??$copy@V?$PxReflectionAllocator@I@physx@@@?$PxArray@IV?$PxReflectionAllocator@I@physx@@@physx@@IEAAXAEBV01@@Z 0000000180059df0 f i GuSDF.obj
 0001:00058e60       ??$copy@V?$PxReflectionAllocator@M@physx@@@?$PxArray@MV?$PxReflectionAllocator@M@physx@@@physx@@IEAAXAEBV01@@Z 0000000180059e60 f i GuSDF.obj
 0001:00058ec0       ??$copy@V?$PxReflectionAllocator@V?$PxVec3T@M@physx@@@physx@@@?$PxArray@V?$PxVec3T@M@physx@@V?$PxReflectionAllocator@V?$PxVec3T@M@physx@@@2@@physx@@IEAAXAEBV01@@Z 0000000180059ec0 f i GuSDF.obj
 0001:00058f20       ??$mapDuplicatePoints@V?$PxVec3T@M@physx@@M@MeshAnalyzer@Gu@physx@@SAXPEBV?$PxVec3T@M@2@IAEAV?$PxArray@HV?$PxReflectionAllocator@H@physx@@@2@M@Z 0000000180059f20 f i GuSDF.obj
 0001:000592a0       ??$splitRanges@V?$PxVec3T@M@physx@@M@MeshAnalyzer@Gu@physx@@CAXAEAV?$PxArray@URange@MeshAnalyzer@Gu@physx@@V?$PxReflectionAllocator@URange@MeshAnalyzer@Gu@physx@@@4@@2@AEBV?$PxArray@HV?$PxReflectionAllocator@H@physx@@@2@PEBV?$PxVec3T@M@2@HM@Z 000000018005a2a0 f i GuSDF.obj
 0001:00059510       ??$traverseBVH@VClosestDistanceToTrimeshTraversalController@Gu@physx@@@Gu@physx@@YAXPEBUBVHNode@01@AEAVClosestDistanceToTrimeshTraversalController@01@H@Z 000000018005a510 f i GuSDF.obj
 0001:00059920       ??$traverseBVH@VLineSegmentTrimeshIntersectionTraversalController@Gu@physx@@@Gu@physx@@YAXPEBUBVHNode@01@AEAVLineSegmentTrimeshIntersectionTraversalController@01@H@Z 000000018005a920 f i GuSDF.obj
 0001:00059e50       ??0?$PxThreadT@V?$PxReflectionAllocator@VPxThreadImpl@physx@@@physx@@@physx@@QEAA@P6APEAXPEAX@Z0PEBDAEBV?$PxReflectionAllocator@VPxThreadImpl@physx@@@1@@Z 000000018005ae50 f i GuSDF.obj
 0001:00059f10       ??0CellToPoint@Gu@physx@@QEAA@I@Z 000000018005af10 f i GuSDF.obj
 0001:0005a010       ??0IsosurfaceThreadData@Gu@physx@@QEAA@AEBU012@@Z 000000018005b010 f i GuSDF.obj
 0001:0005a090       ??1CellToPoint@Gu@physx@@QEAA@XZ 000000018005b090 f i GuSDF.obj
 0001:0005a170       ??1IsosurfaceThreadData@Gu@physx@@QEAA@XZ 000000018005b170 f i GuSDF.obj
 0001:0005a220       ??1SDF@Gu@physx@@QEAA@XZ   000000018005b220 f   GuSDF.obj
 0001:0005a2c0       ??_E?$PxThreadT@V?$PxReflectionAllocator@VPxThreadImpl@physx@@@physx@@@physx@@UEAAPEAXI@Z 000000018005b2c0 f i GuSDF.obj
 0001:0005a2c0       ??_G?$PxThreadT@V?$PxReflectionAllocator@VPxThreadImpl@physx@@@physx@@@physx@@UEAAPEAXI@Z 000000018005b2c0 f i GuSDF.obj
 0001:0005a370       ??_EPxRunnable@physx@@UEAAPEAXI@Z 000000018005b370 f i GuSDF.obj
 0001:0005a370       ??_GPxRunnable@physx@@UEAAPEAXI@Z 000000018005b370 f i GuSDF.obj
 0001:0005a3a0       ?PxCreatePointOntoTriangleMeshProjector@Gu@physx@@YAPEAVPxPointOntoTriangleMeshProjector@12@PEBV?$PxVec3T@M@2@PEBII@Z 000000018005b3a0 f   GuSDF.obj
 0001:0005a4a0       ?SDFUsingWindingNumbers@Gu@physx@@YAXAEAV?$PxArray@UBVHNode@Gu@physx@@V?$PxReflectionAllocator@UBVHNode@Gu@physx@@@3@@2@AEAV?$PxHashMap@IU?$ClusterApproximationT@MV?$PxVec3T@M@physx@@@Gu@physx@@U?$PxHash@I@3@VPxAllocator@3@@2@PEBV?$PxVec3T@M@2@PEBIIIIIPEAMAEAUGridQueryPointSampler@12@PEAV52@I_N7@Z 000000018005b4a0 f   GuSDF.obj
 0001:0005a990       ?SDFUsingWindingNumbers@Gu@physx@@YAXPEBV?$PxVec3T@M@2@PEBIIIIIPEAMV32@3PEAV32@_NIPEAVPxSDFBuilder@2@@Z 000000018005b990 f   GuSDF.obj
 0001:0005ae20       ?SDFUsingWindingNumbersSparse@Gu@physx@@YAXPEBV?$PxVec3T@M@2@PEBIIIIIAEBV32@2MIAEAV?$PxArray@MV?$PxReflectionAllocator@M@physx@@@2@AEAV?$PxArray@IV?$PxReflectionAllocator@I@physx@@@2@33AEAM5IPEAVPxSDFBuilder@2@@Z 000000018005be20 f   GuSDF.obj
 0001:0005b870       ?allocate@?$PxArray@HV?$PxInlineAllocator@$0EAA@V?$PxReflectionAllocator@H@physx@@@physx@@@physx@@IEAAPEAHIPEAI@Z 000000018005c870 f i GuSDF.obj
 0001:0005b930       ?allocate@?$PxArray@IV?$PxReflectionAllocator@I@physx@@@physx@@IEAAPEAIIPEAI@Z 000000018005c930 f i GuSDF.obj
 0001:0005b9e0       ?allocate@?$PxArray@MV?$PxReflectionAllocator@M@physx@@@physx@@IEAAPEAMIPEAI@Z 000000018005c9e0 f i GuSDF.obj
 0001:0005ba90       ?allocate@?$PxArray@V?$PxVec3T@M@physx@@V?$PxReflectionAllocator@V?$PxVec3T@M@physx@@@2@@physx@@IEAAPEAV?$PxVec3T@M@2@IPEAI@Z 000000018005ca90 f i GuSDF.obj
 0001:0005bb40       ?allocateSdfs@SDF@Gu@physx@@QEAAPEAMAEBV?$PxVec3T@M@3@AEBMIIIIIIIMMI@Z 000000018005cb40 f   GuSDF.obj
 0001:0005bd50       ?analyzeAndFixMesh@Gu@physx@@YAXPEBV?$PxVec3T@M@2@PEBIIAEAV?$PxArray@IV?$PxReflectionAllocator@I@physx@@@2@@Z 000000018005cd50 f   GuSDF.obj
 0001:0005c610       ?buildTree@Gu@physx@@YAXPEBIIPEBV?$PxVec3T@M@2@AEAV?$PxArray@UBVHNode@Gu@physx@@V?$PxReflectionAllocator@UBVHNode@Gu@physx@@@3@@2@M@Z 000000018005d610 f   GuSDF.obj
 0001:0005c830       ?computeIsosurfaceTrianglesThreadJob@Gu@physx@@YAPEAXPEAX@Z 000000018005d830 f   GuSDF.obj
 0001:0005cc20       ?computeIsosurfaceVerticesThreadJob@Gu@physx@@YAPEAXPEAX@Z 000000018005dc20 f   GuSDF.obj
 0001:0005d110       ?computeSDFThreadJob@Gu@physx@@YAPEAXPEAX@Z 000000018005e110 f   GuSDF.obj
 0001:0005dbe0       ?convertSparseSDFTo3DTextureLayout@Gu@physx@@YAXIIIIPEAIPEBMIAEAV?$PxArray@MV?$PxReflectionAllocator@M@physx@@@2@AEAI33@Z 000000018005ebe0 f   GuSDF.obj
 0001:0005df60       ?copy@?$PxArray@MV?$PxReflectionAllocator@M@physx@@@physx@@KAXPEAM0PEBM@Z 000000018005ef60 f i GuSDF.obj
 0001:0005dfc0       ?copy@?$PxArray@V?$PxVec3T@M@physx@@V?$PxReflectionAllocator@V?$PxVec3T@M@physx@@@2@@physx@@KAXPEAV?$PxVec3T@M@2@0PEBV32@@Z 000000018005efc0 f i GuSDF.obj
 0001:0005e080       ?create@?$PxHashBase@V?$PxPair@$$CBUSortedTriangle@Gu@physx@@H@physx@@USortedTriangle@Gu@2@UTriangleHash@42@UGetKey@?$PxHashMapBase@USortedTriangle@Gu@physx@@HUTriangleHash@23@VPxAllocator@3@@2@VPxAllocator@2@$00@physx@@QEAAPEAV?$PxPair@$$CBUSortedTriangle@Gu@physx@@H@2@AEBUSortedTriangle@Gu@2@AEA_N@Z 000000018005f080 f i GuSDF.obj
 0001:0005e190       ?create@?$PxHashBase@V?$PxPair@$$CB_KH@physx@@_KU?$PxHash@_K@2@UGetKey@?$PxHashMapBase@_KHU?$PxHash@_K@physx@@VPxAllocator@2@@2@VPxAllocator@2@$00@physx@@QEAAPEAV?$PxPair@$$CB_KH@2@AEB_KAEA_N@Z 000000018005f190 f i GuMeshAnalysis.obj
 0001:0005e190       ?create@?$PxHashBase@V?$PxPair@$$CB_KI@physx@@_KU?$PxHash@_K@2@UGetKey@?$PxHashMapBase@_KIU?$PxHash@_K@physx@@VPxAllocator@2@@2@VPxAllocator@2@$00@physx@@QEAAPEAV?$PxPair@$$CB_KI@2@AEB_KAEA_N@Z 000000018005f190 f i GuSDF.obj
 0001:0005e320       ?createTriangles@Gu@physx@@YAXHHHMQEAMAEBUCellToPoint@12@AEBV?$PxArray@V?$PxVec3T@M@physx@@V?$PxReflectionAllocator@V?$PxVec3T@M@physx@@@2@@2@AEAV?$PxArray@IV?$PxReflectionAllocator@I@physx@@@2@@Z 000000018005f320 f i GuSDF.obj
 0001:0005eb90       ?decodeDense@SDF@Gu@physx@@QEBAMHHH@Z 000000018005fb90 f   GuSDF.obj
 0001:0005ee90       ?decodeSparse@SDF@Gu@physx@@QEBAMHHH@Z 000000018005fe90 f   GuSDF.obj
 0001:0005eea0       ?exportExtraData@SDF@Gu@physx@@QEAAXAEAVPxSerializationContext@3@@Z 000000018005fea0 f   GuSDF.obj
 0001:0005ef40       ?extractIsosurfaceFromSDF@Gu@physx@@YAXAEBVSDF@12@AEAV?$PxArray@V?$PxVec3T@M@physx@@V?$PxReflectionAllocator@V?$PxVec3T@M@physx@@@2@@2@AEAV?$PxArray@IV?$PxReflectionAllocator@I@physx@@@2@I@Z 000000018005ff40 f   GuSDF.obj
 0001:0005f830       ?extractIsosurfaceFromSDFSerial@Gu@physx@@YAXAEBVSDF@12@AEAV?$PxArray@V?$PxVec3T@M@physx@@V?$PxReflectionAllocator@V?$PxVec3T@M@physx@@@2@@2@AEAV?$PxArray@IV?$PxReflectionAllocator@I@physx@@@2@@Z 0000000180060830 f   GuSDF.obj
 0001:000605f0       ?find@CellToPoint@Gu@physx@@QEBAPEBV?$PxPair@$$CB_KI@3@HHH@Z 00000001800615f0 f i GuSDF.obj
 0001:00060700       ?fixSdfForNonClosedGeometry@Gu@physx@@YAXIIIPEAMAEBV?$PxVec3T@M@2@@Z 0000000180061700 f   GuSDF.obj
 0001:00061750       ?generatePointInCell@Gu@physx@@YA_NAEBVSDF@12@HHHAEAV?$PxVec3T@M@2@QEAY111M@Z 0000000180062750 f   GuSDF.obj
 0001:00061ba0       ?growAndPushBack@?$PxArray@HV?$PxInlineAllocator@$0EAA@V?$PxReflectionAllocator@H@physx@@@physx@@@physx@@IEAAAEAHAEBH@Z 0000000180062ba0 f i GuSDF.obj
 0001:00061c90       ?growAndPushBack@?$PxArray@MV?$PxReflectionAllocator@M@physx@@@physx@@IEAAAEAMAEBM@Z 0000000180062c90 f i GuSDF.obj
 0001:00061e00       ?growAndPushBack@?$PxArray@PEAV?$PxThreadT@V?$PxReflectionAllocator@VPxThreadImpl@physx@@@physx@@@physx@@V?$PxReflectionAllocator@PEAV?$PxThreadT@V?$PxReflectionAllocator@VPxThreadImpl@physx@@@physx@@@physx@@@2@@physx@@IEAAAEAPEAV?$PxThreadT@V?$PxReflectionAllocator@VPxThreadImpl@physx@@@physx@@@2@AEBQEAV32@@Z 0000000180062e00 f i GuSDF.obj
 0001:00061f40       ?growAndPushBack@?$PxArray@UIsosurfaceThreadData@Gu@physx@@V?$PxReflectionAllocator@UIsosurfaceThreadData@Gu@physx@@@3@@physx@@IEAAAEAUIsosurfaceThreadData@Gu@2@AEBU342@@Z 0000000180062f40 f i GuSDF.obj
 0001:00062130       ?growAndPushBack@?$PxArray@UMutation@Gu@physx@@V?$PxReflectionAllocator@UMutation@Gu@physx@@@3@@physx@@IEAAAEAUMutation@Gu@2@AEBU342@@Z 0000000180063130 f i GuSDF.obj
 0001:00062270       ?growAndPushBack@?$PxArray@URange@Gu@physx@@V?$PxReflectionAllocator@URange@Gu@physx@@@3@@physx@@IEAAAEAURange@Gu@2@AEBU342@@Z 0000000180063270 f i GuSDF.obj
 0001:000623c0       ?growAndPushBack@?$PxArray@URange@MeshAnalyzer@Gu@physx@@V?$PxReflectionAllocator@URange@MeshAnalyzer@Gu@physx@@@4@@physx@@IEAAAEAURange@MeshAnalyzer@Gu@2@AEBU3452@@Z 00000001800633c0 f i GuSDF.obj
 0001:00062500       ?growAndPushBack@?$PxArray@USDFCalculationData@Gu@physx@@V?$PxReflectionAllocator@USDFCalculationData@Gu@physx@@@3@@physx@@IEAAAEAUSDFCalculationData@Gu@2@AEBU342@@Z 0000000180063500 f i GuSDF.obj
 0001:000626a0       ?growAndPushBack@?$PxArray@V?$PxVec3T@M@physx@@V?$PxReflectionAllocator@V?$PxVec3T@M@physx@@@2@@physx@@IEAAAEAV?$PxVec3T@M@2@AEBV32@@Z 00000001800636a0 f i GuSDF.obj
 0001:000627e0       ?importExtraData@SDF@Gu@physx@@QEAAXAEAVPxDeserializationContext@3@@Z 00000001800637e0 f   GuSDF.obj
 0001:00062850       ?populateSubgridCache@Gu@physx@@YAXAEBVSDF@12@AEAV?$PxArray@MV?$PxReflectionAllocator@M@physx@@@2@HHH@Z 0000000180063850 f i GuSDF.obj
 0001:00062c00       ?projectPoint@PointOntoTriangleMeshProjector@Gu@physx@@UEAA?AV?$PxVec3T@M@3@AEBV43@@Z 0000000180063c00 f i GuSDF.obj
 0001:00062c70       ?projectPoint@PointOntoTriangleMeshProjector@Gu@physx@@UEAA?AV?$PxVec3T@M@3@AEBV43@AEAI@Z 0000000180063c70 f i GuSDF.obj
 0001:00062cf0       ?recreate@?$PxArray@HV?$PxReflectionAllocator@H@physx@@@physx@@IEAAXI@Z 0000000180063cf0 f i GuSDF.obj
 0001:00062e00       ?recreate@?$PxArray@MV?$PxReflectionAllocator@M@physx@@@physx@@IEAAXI@Z 0000000180063e00 f i GuSDF.obj
 0001:00062f50       ?recreate@?$PxArray@PEAUMap@Gu@physx@@V?$PxReflectionAllocator@PEAUMap@Gu@physx@@@3@@physx@@IEAAXI@Z 0000000180063f50 f i GuSDF.obj
 0001:00063060       ?recreate@?$PxArray@UBVHNode@Gu@physx@@V?$PxReflectionAllocator@UBVHNode@Gu@physx@@@3@@physx@@IEAAXI@Z 0000000180064060 f i GuSDF.obj
 0001:000632a0       ?recreate@?$PxArray@V?$PxVec3T@M@physx@@V?$PxReflectionAllocator@V?$PxVec3T@M@physx@@@2@@physx@@IEAAXI@Z 00000001800642a0 f i GuSDF.obj
 0001:00063390       ?release@PointOntoTriangleMeshProjector@Gu@physx@@UEAAXXZ 0000000180064390 f i GuSDF.obj
 0001:000633f0       ?reserveInternal@?$PxHashBase@V?$PxPair@$$CBIU?$ClusterApproximationT@MV?$PxVec3T@M@physx@@@Gu@physx@@@physx@@IU?$PxHash@I@2@UGetKey@?$PxHashMapBase@IU?$ClusterApproximationT@MV?$PxVec3T@M@physx@@@Gu@physx@@U?$PxHash@I@3@VPxAllocator@3@@2@VPxAllocator@2@$00@physx@@AEAAXI@Z 00000001800643f0 f i GuSDF.obj
 0001:00063600       ?reserveInternal@?$PxHashBase@V?$PxPair@$$CBUSortedTriangle@Gu@physx@@H@physx@@USortedTriangle@Gu@2@UTriangleHash@42@UGetKey@?$PxHashMapBase@USortedTriangle@Gu@physx@@HUTriangleHash@23@VPxAllocator@3@@2@VPxAllocator@2@$00@physx@@AEAAXI@Z 0000000180064600 f i GuSDF.obj
 0001:000637a0       ?reserveInternal@?$PxHashBase@V?$PxPair@$$CB_KH@physx@@_KU?$PxHash@_K@2@UGetKey@?$PxHashMapBase@_KHU?$PxHash@_K@physx@@VPxAllocator@2@@2@VPxAllocator@2@$00@physx@@AEAAXI@Z 00000001800647a0 f i GuSDF.obj
 0001:000637a0       ?reserveInternal@?$PxHashBase@V?$PxPair@$$CB_KI@physx@@_KU?$PxHash@_K@2@UGetKey@?$PxHashMapBase@_KIU?$PxHash@_K@physx@@VPxAllocator@2@@2@VPxAllocator@2@$00@physx@@AEAAXI@Z 00000001800647a0 f i GuSDF.obj
 0001:00063990       ?resize@?$PxArray@IV?$PxReflectionAllocator@I@physx@@@physx@@QEAAXIAEBI@Z 0000000180064990 f i GuSDF.obj
 0001:00063a50       ?resize@?$PxArray@MV?$PxReflectionAllocator@M@physx@@@physx@@QEAAXIAEBM@Z 0000000180064a50 f i GuSDF.obj
 0001:00063b50       ?resize@?$PxArray@PEAUMap@Gu@physx@@V?$PxReflectionAllocator@PEAUMap@Gu@physx@@@3@@physx@@QEAAXIAEBQEAUMap@Gu@2@@Z 0000000180064b50 f i GuSDF.obj
 0001:00063c10       ?resize@?$PxArray@UBVHNode@Gu@physx@@V?$PxReflectionAllocator@UBVHNode@Gu@physx@@@3@@physx@@QEAAXIAEBUBVHNode@Gu@2@@Z 0000000180064c10 f i GuSDF.obj
 0001:00063d80       ?sampleSDFDirect@DenseSDF@Gu@physx@@QEAAMAEBV?$PxVec3T@M@3@@Z 0000000180064d80 f i GuSDF.obj
 0001:00063f30       ?signedVolume@Gu@physx@@YAMPEBV?$PxVec3T@M@2@PEBII1I@Z 0000000180064f30 f   GuSDF.obj
 0001:00064390       ?windingNumbers@Gu@physx@@YAXPEBV?$PxVec3T@M@2@PEBIIIIIPEAMV32@3PEAV32@@Z 0000000180065390 f   GuSDF.obj
 0001:000647f0       ?windingNumbersInsideCheck@Gu@physx@@YAXPEBV?$PxVec3T@M@2@PEBIIIIIPEA_NV32@3PEAV32@@Z 00000001800657f0 f   GuSDF.obj
 0001:000651d0       ??$gjk@U?$RelativeConvex@UCustomConvexV@@@Gu@physx@@U?$LocalConvex@UCustomConvexV@@@23@@Gu@physx@@YA?AW4GjkStatus@01@AEBU?$RelativeConvex@UCustomConvexV@@@01@AEBU?$LocalConvex@UCustomConvexV@@@01@AEBT__m128@@2AEAT5@333@Z 00000001800661d0 f i GuGjkQuery.obj
 0001:00065e70       ??$gjkPenetration@U?$RelativeConvex@UCustomConvexV@@@Gu@physx@@U?$LocalConvex@UCustomConvexV@@@23@@Gu@physx@@YA?AW4GjkStatus@01@AEBU?$RelativeConvex@UCustomConvexV@@@01@AEBU?$LocalConvex@UCustomConvexV@@@01@AEBT__m128@@2_NPEIAE4PEIAT5@5AEAEAEAUGjkOutput@01@@Z 0000000180066e70 f i GuGjkQuery.obj
 0001:00067990       ??$gjkPenetration@U?$RelativeConvex@UCustomConvexV@@@Gu@physx@@U?$LocalConvex@UCustomConvexV@@@23@@Gu@physx@@YA?AW4GjkStatus@01@AEBU?$RelativeConvex@UCustomConvexV@@@01@AEBU?$LocalConvex@UCustomConvexV@@@01@AEBT__m128@@2_NPEIAT5@4AEAEAEAUGjkOutput@01@@Z 0000000180068990 f i GuGjkQuery.obj
 0001:000679f0       ??$gjkRaycast@U?$RelativeConvex@UCustomConvexV@@@Gu@physx@@U?$LocalConvex@UCustomConvexV@@@23@@Gu@physx@@YA_NAEBU?$RelativeConvex@UCustomConvexV@@@01@AEBU?$LocalConvex@UCustomConvexV@@@01@AEBT__m128@@222AEAT4@33M@Z 00000001800689f0 f i GuGjkQuery.obj
 0001:00068770       ??$gjkRaycast@U?$RelativeConvex@UCustomConvexV@@@Gu@physx@@U?$LocalConvex@UPointConvexV@@@23@@Gu@physx@@YA_NAEBU?$RelativeConvex@UCustomConvexV@@@01@AEBU?$LocalConvex@UPointConvexV@@@01@AEBT__m128@@222AEAT4@33M@Z 0000000180069770 f i GuGjkQuery.obj
 0001:000693e0       ?overlap@PxGjkQuery@physx@@SA_NAEBUSupport@12@0AEBV?$PxTransformT@M@2@1@Z 000000018006a3e0 f   GuGjkQuery.obj
 0001:00069780       ?proximityInfo@PxGjkQuery@physx@@SA_NAEBUSupport@12@0AEBV?$PxTransformT@M@2@1MMAEAV?$PxVec3T@M@2@22AEAM@Z 000000018006a780 f   GuGjkQuery.obj
 0001:0006a4f0       ?raycast@PxGjkQuery@physx@@SA_NAEBUSupport@12@AEBV?$PxTransformT@M@2@AEBV?$PxVec3T@M@2@2MAEAMAEAV52@4@Z 000000018006b4f0 f   GuGjkQuery.obj
 0001:0006a9e0       ?support@?$LocalConvex@UCustomConvexV@@@Gu@physx@@UEBA?AT__m128@@AEBT4@@Z 000000018006b9e0 f i GuGjkQuery.obj
 0001:0006aa50       ?support@?$LocalConvex@UCustomConvexV@@@Gu@physx@@UEBA?AT__m128@@AEBT4@AEAH@Z 000000018006ba50 f i GuGjkQuery.obj
 0001:0006aad0       ?support@?$LocalConvex@UPointConvexV@@@Gu@physx@@UEBA?AT__m128@@AEBT4@@Z 000000018006bad0 f i GuGjkQuery.obj
 0001:0006aad0       ?supportPoint@?$LocalConvex@UPointConvexV@@@Gu@physx@@UEBA?AT__m128@@H@Z 000000018006bad0 f i GuGjkQuery.obj
 0001:0006aae0       ?support@?$LocalConvex@UPointConvexV@@@Gu@physx@@UEBA?AT__m128@@AEBT4@AEAH@Z 000000018006bae0 f i GuGjkQuery.obj
 0001:0006ab00       ?support@?$RelativeConvex@UCustomConvexV@@@Gu@physx@@UEBA?AT__m128@@AEBT4@@Z 000000018006bb00 f i GuGjkQuery.obj
 0001:0006abd0       ?support@?$RelativeConvex@UCustomConvexV@@@Gu@physx@@UEBA?AT__m128@@AEBT4@AEAH@Z 000000018006bbd0 f i GuGjkQuery.obj
 0001:0006aca0       ?supportPoint@?$LocalConvex@UCustomConvexV@@@Gu@physx@@UEBA?AT__m128@@H@Z 000000018006bca0 f i GuGjkQuery.obj
 0001:0006ad00       ?supportPoint@?$RelativeConvex@UCustomConvexV@@@Gu@physx@@UEBA?AT__m128@@H@Z 000000018006bd00 f i GuGjkQuery.obj
 0001:0006ada0       ?sweep@PxGjkQuery@physx@@SA_NAEBUSupport@12@0AEBV?$PxTransformT@M@2@1AEBV?$PxVec3T@M@2@MAEAMAEAV52@4@Z 000000018006bda0 f   GuGjkQuery.obj
 0001:0006b560       ??$approximateCluster@MV?$PxVec3T@M@physx@@@Gu@physx@@YAXAEBV?$PxArray@HV?$PxReflectionAllocator@H@physx@@@1@IIPEBIPEBV?$PxVec3T@M@1@AEBV?$PxArray@MV?$PxReflectionAllocator@M@physx@@@1@AEBV?$PxArray@V?$PxVec3T@M@physx@@V?$PxReflectionAllocator@V?$PxVec3T@M@physx@@@2@@1@4AEAU?$ClusterApproximationT@MV?$PxVec3T@M@physx@@@01@@Z 000000018006c560 f i GuWindingNumber.obj
 0001:0006bc00       ??$precomputeClusterInformation@MV?$PxVec3T@M@physx@@@Gu@physx@@YAXHPEBUBVHNode@01@PEBIIPEBV?$PxVec3T@M@1@AEAV?$PxHashMap@IU?$ClusterApproximationT@MV?$PxVec3T@M@physx@@@Gu@physx@@U?$PxHash@I@3@VPxAllocator@3@@1@V?$PxArray@MV?$PxReflectionAllocator@M@physx@@@1@AEBV?$PxArray@V?$PxVec3T@M@physx@@V?$PxReflectionAllocator@V?$PxVec3T@M@physx@@@2@@1@5@Z 000000018006cc00 f i GuWindingNumber.obj
 0001:0006bfe0       ??$precomputeClusterInformation@MV?$PxVec3T@M@physx@@@Gu@physx@@YAXPEBUBVHNode@01@PEBIIPEBV?$PxVec3T@M@1@AEAV?$PxHashMap@IU?$ClusterApproximationT@MV?$PxVec3T@M@physx@@@Gu@physx@@U?$PxHash@I@3@VPxAllocator@3@@1@H@Z 000000018006cfe0 f i GuWindingNumber.obj
 0001:0006c3f0       ??$traverseBVH@V?$WindingNumberTraversalController@MV?$PxVec3T@M@physx@@@Gu@physx@@@Gu@physx@@YAXPEBUBVHNode@01@AEAV?$WindingNumberTraversalController@MV?$PxVec3T@M@physx@@@01@H@Z 000000018006d3f0 f i GuWindingNumber.obj
 0001:0006c980       ?computeWindingNumber@Gu@physx@@YAMAEBV?$PxVec3T@M@2@PEBIIPEBV32@@Z 000000018006d980 f   GuWindingNumber.obj
 0001:0006ccb0       ?computeWindingNumber@Gu@physx@@YAMPEBUBVHNode@12@AEBV?$PxVec3T@M@2@AEBV?$PxHashMap@IU?$ClusterApproximationT@MV?$PxVec3T@M@physx@@@Gu@physx@@U?$PxHash@I@3@VPxAllocator@3@@2@PEBIPEBV42@@Z 000000018006dcb0 f   GuWindingNumber.obj
 0001:0006cd20       ?computeWindingNumber@Gu@physx@@YAMPEBUBVHNode@12@AEBV?$PxVec3T@M@2@MAEBV?$PxHashMap@IU?$ClusterApproximationT@MV?$PxVec3T@M@physx@@@Gu@physx@@U?$PxHash@I@3@VPxAllocator@3@@2@PEBIPEBV42@@Z 000000018006dd20 f   GuWindingNumber.obj
 0001:0006cd90       ?create@?$PxHashBase@V?$PxPair@$$CBIU?$ClusterApproximationT@MV?$PxVec3T@M@physx@@@Gu@physx@@@physx@@IU?$PxHash@I@2@UGetKey@?$PxHashMapBase@IU?$ClusterApproximationT@MV?$PxVec3T@M@physx@@@Gu@physx@@U?$PxHash@I@3@VPxAllocator@3@@2@VPxAllocator@2@$00@physx@@QEAAPEAV?$PxPair@$$CBIU?$ClusterApproximationT@MV?$PxVec3T@M@physx@@@Gu@physx@@@2@AEBIAEA_N@Z 000000018006dd90 f i GuWindingNumber.obj
 0001:0006cef0       ?growAndPushBack@?$PxArray@HV?$PxReflectionAllocator@H@physx@@@physx@@IEAAAEAHAEBH@Z 000000018006def0 f i GuWindingNumber.obj
 0001:0006d030       ?growAndPushBack@?$PxArray@USection@Gu@physx@@V?$PxReflectionAllocator@USection@Gu@physx@@@3@@physx@@IEAAAEAUSection@Gu@2@AEBU342@@Z 000000018006e030 f i GuWindingNumber.obj
 0001:0006d170       ?precomputeClusterInformation@Gu@physx@@YAXPEBUBVHNode@12@PEBIIPEBV?$PxVec3T@M@2@AEAV?$PxHashMap@IU?$ClusterApproximationT@MV?$PxVec3T@M@physx@@@Gu@physx@@U?$PxHash@I@3@VPxAllocator@3@@2@H@Z 000000018006e170 f   GuWindingNumber.obj
 0001:0006d180       ?resize@?$PxArray@V?$PxVec3T@M@physx@@V?$PxReflectionAllocator@V?$PxVec3T@M@physx@@@2@@physx@@QEAAXIAEBV?$PxVec3T@M@2@@Z 000000018006e180 f i GuWindingNumber.obj
 0001:0006d270       ?computeMassInfo@Gu@physx@@YAXAEBVPxConvexCoreGeometry@2@AEAMAEAV?$PxMat33T@M@2@AEAV?$PxVec3T@M@2@@Z 000000018006e270 f   GuConvexGeometry.obj
 0001:0006dbb0       ?coneRadiusAtHeight@aux@@YAMMMMM@Z 000000018006ebb0 f   GuConvexGeometry.obj
 0001:00070120       ?isGPUCompatible@Gu@physx@@YA_NAEBVPxConvexCoreGeometry@2@@Z 0000000180071120 f   GuConvexGeometry.obj
 0001:00070160       ?isValid@PxConvexCoreGeometry@physx@@QEBA_NXZ 0000000180071160 f   GuConvexGeometry.obj
 0001:00070260       ?makeConvexShape@Gu@physx@@YA_NAEBVPxGeometry@2@AEBV?$PxTransformT@M@2@AEAUConvexShape@12@@Z 0000000180071260 f   GuConvexGeometry.obj
 0001:000703f0       ?visualize@Gu@physx@@YAXAEBVPxConvexCoreGeometry@2@AEBV?$PxTransformT@M@2@_NAEBVPxBounds3@2@AEAVPxRenderOutput@2@@Z 00000001800713f0 f   GuConvexGeometry.obj
 0001:00070930       ?generateContacts@Gu@physx@@YAIAEBVPxPlane@2@AEBUConvexShape@12@MAEAV?$PxVec3T@M@2@QEAV52@QEAM@Z 0000000180071930 f   GuConvexSupport.obj
 0001:00070e40       ?SweepAnyShapeHeightfield@Gu@physx@@YAMAEBUCCDShape@12@0AEBUPxTransformPadded@2@111MAEAV?$PxVec3T@M@2@2MAEAIM@Z 0000000180071e40 f   GuCCDSweepConvexMesh.obj
 0001:000723a0       ?SweepAnyShapeMesh@Gu@physx@@YAMAEBUCCDShape@12@0AEBUPxTransformPadded@2@111MAEAV?$PxVec3T@M@2@2MAEAIM@Z 00000001800733a0 f   GuCCDSweepConvexMesh.obj
 0001:000739f0       ?SweepEstimateAnyShapeHeightfield@Gu@physx@@YAMAEBUCCDShape@12@0MM@Z 00000001800749f0 f   GuCCDSweepConvexMesh.obj
 0001:00074650       ?SweepEstimateAnyShapeMesh@Gu@physx@@YAMAEBUCCDShape@12@0MM@Z 0000000180075650 f   GuCCDSweepConvexMesh.obj
 0001:000748f0       ?allocate@?$PxArray@IV?$PxInlineAllocator@$0BAA@V?$PxReflectionAllocator@I@physx@@@physx@@@physx@@IEAAPEAIIPEAI@Z 00000001800758f0 f i GuCCDSweepConvexMesh.obj
 0001:00075420       ?growAndPushBack@?$PxArray@IV?$PxInlineAllocator@$0BAA@V?$PxReflectionAllocator@I@physx@@@physx@@@physx@@IEAAAEAIAEBI@Z 0000000180076420 f i GuCCDSweepConvexMesh.obj
 0001:00075a70       ?recreate@?$PxArray@IV?$PxInlineAllocator@$0BAA@V?$PxReflectionAllocator@I@physx@@@physx@@@physx@@IEAAXI@Z 0000000180076a70 f i GuCCDSweepConvexMesh.obj
 0001:00075bc0       ?resize@?$PxArray@IV?$PxInlineAllocator@$0BAA@V?$PxReflectionAllocator@I@physx@@@physx@@@physx@@QEAAXIAEBI@Z 0000000180076bc0 f i GuCCDSweepConvexMesh.obj
 0001:00075c90       ?transformBoxOrthonormal@physx@@YA?AVBox@Gu@1@AEBV231@AEBV?$PxTransformT@M@1@@Z 0000000180076c90 f i GuCCDSweepConvexMesh.obj
 0001:00076120       ?UnimplementedSweep@Gu@physx@@YAMAEBUCCDShape@12@0AEBUPxTransformPadded@2@111MAEAV?$PxVec3T@M@2@2MAEAIM@Z 0000000180077120 f   GuCCDSweepPrimitives.obj
 0001:000798e0       ?UnimplementedTriangleSweep@Gu@physx@@YAMAEBVPxGeometry@2@0AEBUPxTransformPadded@2@111MAEAV?$PxVec3T@M@2@2AEBVFastVertex2ShapeScaling@Cm@2@AEAVTriangleV@12@M@Z 000000018007a8e0 f   GuCCDSweepPrimitives.obj
 0001:000798f0       ??$SweepGeomTriangles@VCapsuleV@Gu@physx@@@Gu@physx@@YAMAEBVPxGeometry@1@0AEBUPxTransformPadded@1@111MAEAV?$PxVec3T@M@1@2AEBVFastVertex2ShapeScaling@Cm@1@AEAVTriangleV@01@M@Z 000000018007a8f0 f i GuCCDSweepPrimitives.obj
 0001:0007a010       ??$SweepGeomTriangles@VBoxV@Gu@physx@@@Gu@physx@@YAMAEBVPxGeometry@1@0AEBUPxTransformPadded@1@111MAEAV?$PxVec3T@M@1@2AEBVFastVertex2ShapeScaling@Cm@1@AEAVTriangleV@01@M@Z 000000018007b010 f i GuCCDSweepPrimitives.obj
 0001:0007a740       ??$SweepGeomTriangles@VConvexHullV@Gu@physx@@@Gu@physx@@YAMAEBVPxGeometry@1@0AEBUPxTransformPadded@1@111MAEAV?$PxVec3T@M@1@2AEBVFastVertex2ShapeScaling@Cm@1@AEAVTriangleV@01@M@Z 000000018007b740 f i GuCCDSweepPrimitives.obj
 0001:0007b000       ?supportPoint@?$RelativeConvex@VCapsuleV@Gu@physx@@@Gu@physx@@UEBA?AT__m128@@H@Z 000000018007c000 f i GuCCDSweepPrimitives.obj
 0001:0007b060       ?support@?$RelativeConvex@VCapsuleV@Gu@physx@@@Gu@physx@@UEBA?AT__m128@@AEBT4@@Z 000000018007c060 f i GuCCDSweepPrimitives.obj
 0001:0007b110       ?support@?$RelativeConvex@VCapsuleV@Gu@physx@@@Gu@physx@@UEBA?AT__m128@@AEBT4@AEAH@Z 000000018007c110 f i GuCCDSweepPrimitives.obj
 0001:0007b1d0       ?supportPoint@?$RelativeConvex@VTriangleV@Gu@physx@@@Gu@physx@@UEBA?AT__m128@@H@Z 000000018007c1d0 f i GuCCDSweepPrimitives.obj
 0001:0007b220       ?support@?$RelativeConvex@VTriangleV@Gu@physx@@@Gu@physx@@UEBA?AT__m128@@AEBT4@@Z 000000018007c220 f i GuCCDSweepPrimitives.obj
 0001:0007b300       ?support@?$RelativeConvex@VTriangleV@Gu@physx@@@Gu@physx@@UEBA?AT__m128@@AEBT4@AEAH@Z 000000018007c300 f i GuCCDSweepPrimitives.obj
 0001:0007b440       ??$gjkPenetration@U?$RelativeConvex@VCapsuleV@Gu@physx@@@Gu@physx@@U?$LocalConvex@VBoxV@Gu@physx@@@23@@Gu@physx@@YA?AW4GjkStatus@01@AEBU?$RelativeConvex@VCapsuleV@Gu@physx@@@01@AEBU?$LocalConvex@VBoxV@Gu@physx@@@01@AEBT__m128@@2_NPEIAE4AEAEAEAUGjkOutput@01@@Z 000000018007c440 f i GuCCDSweepPrimitives.obj
 0001:0007b4b0       ??$gjkPenetration@U?$RelativeConvex@VCapsuleV@Gu@physx@@@Gu@physx@@U?$LocalConvex@VBoxV@Gu@physx@@@23@@Gu@physx@@YA?AW4GjkStatus@01@AEBU?$RelativeConvex@VCapsuleV@Gu@physx@@@01@AEBU?$LocalConvex@VBoxV@Gu@physx@@@01@AEBT__m128@@2_NPEIAE4PEIAT5@5AEAEAEAUGjkOutput@01@@Z 000000018007c4b0 f i GuCCDSweepPrimitives.obj
 0001:0007cf70       ??$gjkPenetration@U?$RelativeConvex@VCapsuleV@Gu@physx@@@Gu@physx@@U?$LocalConvex@VCapsuleV@Gu@physx@@@23@@Gu@physx@@YA?AW4GjkStatus@01@AEBU?$RelativeConvex@VCapsuleV@Gu@physx@@@01@AEBU?$LocalConvex@VCapsuleV@Gu@physx@@@01@AEBT__m128@@2_NPEIAE4AEAEAEAUGjkOutput@01@@Z 000000018007df70 f i GuCCDSweepPrimitives.obj
 0001:0007cfe0       ??$gjkPenetration@U?$RelativeConvex@VCapsuleV@Gu@physx@@@Gu@physx@@U?$LocalConvex@VCapsuleV@Gu@physx@@@23@@Gu@physx@@YA?AW4GjkStatus@01@AEBU?$RelativeConvex@VCapsuleV@Gu@physx@@@01@AEBU?$LocalConvex@VCapsuleV@Gu@physx@@@01@AEBT__m128@@2_NPEIAE4PEIAT5@5AEAEAEAUGjkOutput@01@@Z 000000018007dfe0 f i GuCCDSweepPrimitives.obj
 0001:0007ea90       ??$gjkPenetration@U?$RelativeConvex@VCapsuleV@Gu@physx@@@Gu@physx@@U?$LocalConvex@VConvexHullV@Gu@physx@@@23@@Gu@physx@@YA?AW4GjkStatus@01@AEBU?$RelativeConvex@VCapsuleV@Gu@physx@@@01@AEBU?$LocalConvex@VConvexHullV@Gu@physx@@@01@AEBT__m128@@2_NPEIAE4AEAEAEAUGjkOutput@01@@Z 000000018007fa90 f i GuCCDSweepPrimitives.obj
 0001:0007eb00       ??$gjkPenetration@U?$RelativeConvex@VCapsuleV@Gu@physx@@@Gu@physx@@U?$LocalConvex@VConvexHullV@Gu@physx@@@23@@Gu@physx@@YA?AW4GjkStatus@01@AEBU?$RelativeConvex@VCapsuleV@Gu@physx@@@01@AEBU?$LocalConvex@VConvexHullV@Gu@physx@@@01@AEBT__m128@@2_NPEIAE4PEIAT5@5AEAEAEAUGjkOutput@01@@Z 000000018007fb00 f i GuCCDSweepPrimitives.obj
 0001:00080640       ??$gjkPenetration@U?$RelativeConvex@VTriangleV@Gu@physx@@@Gu@physx@@U?$LocalConvex@VBoxV@Gu@physx@@@23@@Gu@physx@@YA?AW4GjkStatus@01@AEBU?$RelativeConvex@VTriangleV@Gu@physx@@@01@AEBU?$LocalConvex@VBoxV@Gu@physx@@@01@AEBT__m128@@2_NPEIAE4AEAEAEAUGjkOutput@01@@Z 0000000180081640 f i GuCCDSweepPrimitives.obj
 0001:000806b0       ??$gjkPenetration@U?$RelativeConvex@VTriangleV@Gu@physx@@@Gu@physx@@U?$LocalConvex@VBoxV@Gu@physx@@@23@@Gu@physx@@YA?AW4GjkStatus@01@AEBU?$RelativeConvex@VTriangleV@Gu@physx@@@01@AEBU?$LocalConvex@VBoxV@Gu@physx@@@01@AEBT__m128@@2_NPEIAE4PEIAT5@5AEAEAEAUGjkOutput@01@@Z 00000001800816b0 f i GuCCDSweepPrimitives.obj
 0001:000821b0       ??$gjkPenetration@U?$RelativeConvex@VTriangleV@Gu@physx@@@Gu@physx@@U?$LocalConvex@VCapsuleV@Gu@physx@@@23@@Gu@physx@@YA?AW4GjkStatus@01@AEBU?$RelativeConvex@VTriangleV@Gu@physx@@@01@AEBU?$LocalConvex@VCapsuleV@Gu@physx@@@01@AEBT__m128@@2_NPEIAE4AEAEAEAUGjkOutput@01@@Z 00000001800831b0 f i GuCCDSweepPrimitives.obj
 0001:00082220       ??$gjkPenetration@U?$RelativeConvex@VTriangleV@Gu@physx@@@Gu@physx@@U?$LocalConvex@VCapsuleV@Gu@physx@@@23@@Gu@physx@@YA?AW4GjkStatus@01@AEBU?$RelativeConvex@VTriangleV@Gu@physx@@@01@AEBU?$LocalConvex@VCapsuleV@Gu@physx@@@01@AEBT__m128@@2_NPEIAE4PEIAT5@5AEAEAEAUGjkOutput@01@@Z 0000000180083220 f i GuCCDSweepPrimitives.obj
 0001:00083d30       ??$gjkPenetration@U?$RelativeConvex@VTriangleV@Gu@physx@@@Gu@physx@@U?$LocalConvex@VConvexHullV@Gu@physx@@@23@@Gu@physx@@YA?AW4GjkStatus@01@AEBU?$RelativeConvex@VTriangleV@Gu@physx@@@01@AEBU?$LocalConvex@VConvexHullV@Gu@physx@@@01@AEBT__m128@@2_NPEIAE4AEAEAEAUGjkOutput@01@@Z 0000000180084d30 f i GuCCDSweepPrimitives.obj
 0001:00083da0       ??$gjkPenetration@U?$RelativeConvex@VTriangleV@Gu@physx@@@Gu@physx@@U?$LocalConvex@VConvexHullV@Gu@physx@@@23@@Gu@physx@@YA?AW4GjkStatus@01@AEBU?$RelativeConvex@VTriangleV@Gu@physx@@@01@AEBU?$LocalConvex@VConvexHullV@Gu@physx@@@01@AEBT__m128@@2_NPEIAE4PEIAT5@5AEAEAEAUGjkOutput@01@@Z 0000000180084da0 f i GuCCDSweepPrimitives.obj
 0001:00085940       ??$gjkRaycast@U?$RelativeConvex@VCapsuleV@Gu@physx@@@Gu@physx@@U?$LocalConvex@VBoxV@Gu@physx@@@23@@Gu@physx@@YA_NAEBU?$RelativeConvex@VCapsuleV@Gu@physx@@@01@AEBU?$LocalConvex@VBoxV@Gu@physx@@@01@AEBT__m128@@222AEAT4@33M@Z 0000000180086940 f i GuCCDSweepPrimitives.obj
 0001:000865d0       ??$gjkRaycast@U?$RelativeConvex@VCapsuleV@Gu@physx@@@Gu@physx@@U?$LocalConvex@VCapsuleV@Gu@physx@@@23@@Gu@physx@@YA_NAEBU?$RelativeConvex@VCapsuleV@Gu@physx@@@01@AEBU?$LocalConvex@VCapsuleV@Gu@physx@@@01@AEBT__m128@@222AEAT4@33M@Z 00000001800875d0 f i GuCCDSweepPrimitives.obj
 0001:000872d0       ??$gjkRaycast@U?$RelativeConvex@VCapsuleV@Gu@physx@@@Gu@physx@@U?$LocalConvex@VConvexHullV@Gu@physx@@@23@@Gu@physx@@YA_NAEBU?$RelativeConvex@VCapsuleV@Gu@physx@@@01@AEBU?$LocalConvex@VConvexHullV@Gu@physx@@@01@AEBT__m128@@222AEAT4@33M@Z 00000001800882d0 f i GuCCDSweepPrimitives.obj
 0001:00088100       ??$gjkRaycast@U?$RelativeConvex@VTriangleV@Gu@physx@@@Gu@physx@@U?$LocalConvex@VBoxV@Gu@physx@@@23@@Gu@physx@@YA_NAEBU?$RelativeConvex@VTriangleV@Gu@physx@@@01@AEBU?$LocalConvex@VBoxV@Gu@physx@@@01@AEBT__m128@@222AEAT4@33M@Z 0000000180089100 f i GuCCDSweepPrimitives.obj
 0001:00088e30       ??$gjkRaycast@U?$RelativeConvex@VTriangleV@Gu@physx@@@Gu@physx@@U?$LocalConvex@VCapsuleV@Gu@physx@@@23@@Gu@physx@@YA_NAEBU?$RelativeConvex@VTriangleV@Gu@physx@@@01@AEBU?$LocalConvex@VCapsuleV@Gu@physx@@@01@AEBT__m128@@222AEAT4@33M@Z 0000000180089e30 f i GuCCDSweepPrimitives.obj
 0001:00089bf0       ??$gjkRaycast@U?$RelativeConvex@VTriangleV@Gu@physx@@@Gu@physx@@U?$LocalConvex@VConvexHullV@Gu@physx@@@23@@Gu@physx@@YA_NAEBU?$RelativeConvex@VTriangleV@Gu@physx@@@01@AEBU?$LocalConvex@VConvexHullV@Gu@physx@@@01@AEBT__m128@@222AEAT4@33M@Z 000000018008abf0 f i GuCCDSweepPrimitives.obj
 0001:0008aaa0       ??$gjkRaycastPenetration@U?$RelativeConvex@VCapsuleV@Gu@physx@@@Gu@physx@@U?$LocalConvex@VConvexHullV@Gu@physx@@@23@@Gu@physx@@YA_NAEBU?$RelativeConvex@VCapsuleV@Gu@physx@@@01@AEBU?$LocalConvex@VConvexHullV@Gu@physx@@@01@AEBT__m128@@222AEAT4@33M_N@Z 000000018008baa0 f i GuCCDSweepPrimitives.obj
 0001:0008ad30       ??$gjkRaycastPenetration@U?$RelativeConvex@VTriangleV@Gu@physx@@@Gu@physx@@U?$LocalConvex@VConvexHullV@Gu@physx@@@23@@Gu@physx@@YA_NAEBU?$RelativeConvex@VTriangleV@Gu@physx@@@01@AEBU?$LocalConvex@VConvexHullV@Gu@physx@@@01@AEBT__m128@@222AEAT4@33M_N@Z 000000018008bd30 f i GuCCDSweepPrimitives.obj
 0001:0008afc0       ?SweepShapeShape@Gu@physx@@YAMAEBUCCDShape@12@0AEBUPxTransformPadded@2@111MAEAV?$PxVec3T@M@2@2MAEAIM@Z 000000018008bfc0 f   GuCCDSweepPrimitives.obj
 0001:0008aff0       ?SweepShapeTriangle@Gu@physx@@YAMAEBVPxGeometry@2@0AEBUPxTransformPadded@2@111MAEAV?$PxVec3T@M@2@2AEBVFastVertex2ShapeScaling@Cm@2@AEAVTriangleV@12@M@Z 000000018008bff0 f   GuCCDSweepPrimitives.obj
 0001:0008b010       ?barycentricCoordinates@Gu@physx@@YAXAEBT__m128@@000AEAT3@1@Z 000000018008c010 f   GuBarycentricCoordinates.obj
 0001:0008b160       ?barycentricCoordinates@Gu@physx@@YAXAEBT__m128@@00AEAT3@@Z 000000018008c160 f   GuBarycentricCoordinates.obj
 0001:0008b1d0       ??$?_UV?$PxReflectionAllocator@VAdjTriangle@Gu@physx@@@physx@@@PxUserAllocated@physx@@SAPEAX_KV?$PxReflectionAllocator@VAdjTriangle@Gu@physx@@@1@PEBDH@Z 000000018008c1d0 f i GuAdjacencies.obj
 0001:0008b2c0       ??0AdjacenciesBuilder@Gu@physx@@QEAA@XZ 000000018008c2c0 f   GuAdjacencies.obj
 0001:0008b2d0       ??1AdjacenciesBuilder@Gu@physx@@QEAA@XZ 000000018008c2d0 f   GuAdjacencies.obj
 0001:0008b320       ?ComputeNbBoundaryEdges@Adjacencies@Gu@physx@@QEBAIXZ 000000018008c320 f   GuAdjacencies.obj
 0001:0008b5c0       ?Init@AdjacenciesBuilder@Gu@physx@@QEAA_NAEBUADJACENCIESCREATE@23@@Z 000000018008c5c0 f   GuAdjacencies.obj
 0001:0008bc00       ??0EdgeList@Gu@physx@@QEAA@XZ 000000018008cc00 f   GuEdgeList.obj
 0001:0008bc20       ??1EdgeList@Gu@physx@@QEAA@XZ 000000018008cc20 f   GuEdgeList.obj
 0001:0008bce0       ?computeActiveEdges@EdgeList@Gu@physx@@AEAA_NIPEBIPEBGPEBV?$PxVec3T@M@3@M@Z 000000018008cce0 f   GuEdgeList.obj
 0001:0008d060       ?createEdgesToFaces@EdgeList@Gu@physx@@AEAA_NIPEBIPEBG@Z 000000018008e060 f   GuEdgeList.obj
 0001:0008d2c0       ?createFacesToEdges@EdgeList@Gu@physx@@AEAA_NIPEBIPEBG@Z 000000018008e2c0 f   GuEdgeList.obj
 0001:0008d750       ?init@EdgeList@Gu@physx@@QEAA_NAEBUEDGELISTCREATE@23@@Z 000000018008e750 f   GuEdgeList.obj
 0001:0008d890       ?addAxis@SeparatingAxes@Gu@physx@@QEAA_NAEBV?$PxVec3T@M@3@@Z 000000018008e890 f   GuSeparatingAxes.obj
 0001:0008d950       ??$kmeans_cluster@V?$PxVec3T@M@physx@@M@@YAIPEBV?$PxVec3T@M@physx@@IIPEAV01@PEAIMM@Z 000000018008e950 f i GuQuantizer.obj
 0001:0008e330       ??_EQuantizer@Gu@physx@@MEAAPEAXI@Z 000000018008f330 f i GuQuantizer.obj
 0001:0008e330       ??_GQuantizer@Gu@physx@@MEAAPEAXI@Z 000000018008f330 f i GuQuantizer.obj
 0001:0008e360       ??_EQuantizerImpl@@EEAAPEAXI@Z 000000018008f360 f i GuQuantizer.obj
 0001:0008e360       ??_GQuantizerImpl@@EEAAPEAXI@Z 000000018008f360 f i GuQuantizer.obj
 0001:0008e440       ?createQuantizer@Gu@physx@@YAPEAVQuantizer@12@XZ 000000018008f440 f   GuQuantizer.obj
 0001:0008e4f0       ?getDenormalizeCenter@QuantizerImpl@@UEBAAEBV?$PxVec3T@M@physx@@XZ 000000018008f4f0 f i GuQuantizer.obj
 0001:0008e500       ?getCurrentAABBTreeBounds@PruningPool@Gu@physx@@QEBAAEBVAABBTreeBounds@23@XZ 000000018008f500 f i GuIncrementalAABBPrunerCore.obj
 0001:0008e500       ?getDenormalizeScale@QuantizerImpl@@UEBAAEBV?$PxVec3T@M@physx@@XZ 000000018008f500 f i GuQuantizer.obj
 0001:0008e510       ?kmeansQuantize3D@QuantizerImpl@@UEAAPEBV?$PxVec3T@M@physx@@IPEBV23@I_NIAEAI@Z 000000018008f510 f i GuQuantizer.obj
 0001:0008e780       ?normalizeInput@QuantizerImpl@@AEAAXIPEBV?$PxVec3T@M@physx@@I@Z 000000018008f780 f i GuQuantizer.obj
 0001:0008eb80       ?release@QuantizerImpl@@UEAAXXZ 000000018008fb80 f i GuQuantizer.obj
 0001:0008eba0       ??0MeshCleaner@Gu@physx@@QEAA@IPEBV?$PxVec3T@M@2@IPEBIMM@Z 000000018008fba0 f   GuMeshCleaner.obj
 0001:0008f5e0       ??1MeshCleaner@Gu@physx@@QEAA@XZ 00000001800905e0 f   GuMeshCleaner.obj
 0001:0008f670       ??0ReducedVertexCloud@Gu@physx@@QEAA@PEBV?$PxVec3T@M@2@I@Z 0000000180090670 f   GuVertexReducer.obj
 0001:0008f690       ??1ReducedVertexCloud@Gu@physx@@QEAA@XZ 0000000180090690 f   GuVertexReducer.obj
 0001:0008f6a0       ?clean@ReducedVertexCloud@Gu@physx@@QEAAAEAV123@XZ 00000001800906a0 f   GuVertexReducer.obj
 0001:0008f710       ?reduce@ReducedVertexCloud@Gu@physx@@QEAA_NPEAUREDUCEDCLOUD@23@@Z 0000000180090710 f   GuVertexReducer.obj
 0001:0008f9c0       ?buildConsistentTriangleOrientationMap@MeshAnalyzer@Gu@physx@@SA_NPEBU?$IndexedTriangleT@H@23@IAEAV?$PxArray@_NV?$PxReflectionAllocator@_N@physx@@@3@AEAV?$PxHashMap@_KHU?$PxHash@_K@physx@@VPxAllocator@2@@3@AEAV?$PxArray@V?$PxArray@IV?$PxReflectionAllocator@I@physx@@@physx@@V?$PxReflectionAllocator@V?$PxArray@IV?$PxReflectionAllocator@I@physx@@@physx@@@2@@3@@Z 00000001800909c0 f   GuMeshAnalysis.obj
 0001:0008ff30       ?buildTriangleAdjacency@MeshAnalyzer@Gu@physx@@SA_NPEBU?$IndexedTriangleT@H@23@IAEAV?$PxArray@HV?$PxReflectionAllocator@H@physx@@@3@AEAV?$PxHashMap@_KHU?$PxHash@_K@physx@@VPxAllocator@2@@3@@Z 0000000180090f30 f   GuMeshAnalysis.obj
 0001:00090240       ?checkConsistentTriangleOrientation@MeshAnalyzer@Gu@physx@@SA_NPEBU?$IndexedTriangleT@H@23@I@Z 0000000180091240 f   GuMeshAnalysis.obj
 0001:00090390       ?checkMeshWatertightness@MeshAnalyzer@Gu@physx@@SA_NPEBU?$IndexedTriangleT@H@23@I_N@Z 0000000180091390 f   GuMeshAnalysis.obj
 0001:00090560       ?destroy@?$PxArray@V?$PxArray@IV?$PxReflectionAllocator@I@physx@@@physx@@V?$PxReflectionAllocator@V?$PxArray@IV?$PxReflectionAllocator@I@physx@@@physx@@@2@@physx@@KAXPEAV?$PxArray@IV?$PxReflectionAllocator@I@physx@@@2@0@Z 0000000180091560 f i GuMeshAnalysis.obj
 0001:000905d0       ?erase@?$PxHashBase@V?$PxPair@$$CB_KH@physx@@_KU?$PxHash@_K@2@UGetKey@?$PxHashMapBase@_KHU?$PxHash@_K@physx@@VPxAllocator@2@@2@VPxAllocator@2@$00@physx@@QEAA_NAEB_K@Z 00000001800915d0 f i GuMeshAnalysis.obj
 0001:00090780       ?growAndPushBack@?$PxArray@V?$PxArray@IV?$PxReflectionAllocator@I@physx@@@physx@@V?$PxReflectionAllocator@V?$PxArray@IV?$PxReflectionAllocator@I@physx@@@physx@@@2@@physx@@IEAAAEAV?$PxArray@IV?$PxReflectionAllocator@I@physx@@@2@AEBV32@@Z 0000000180091780 f i GuMeshAnalysis.obj
 0001:000908f0       ?makeTriOrientationConsistent@MeshAnalyzer@Gu@physx@@SA_NPEAU?$IndexedTriangleT@H@23@I_N@Z 00000001800918f0 f   GuMeshAnalysis.obj
 0001:00090a60       ?recreate@?$PxArray@_NV?$PxReflectionAllocator@_N@physx@@@physx@@IEAAXI@Z 0000000180091a60 f i GuMeshAnalysis.obj
 0001:00090b60       ?resize@?$PxArray@HV?$PxReflectionAllocator@H@physx@@@physx@@QEAAXIAEBH@Z 0000000180091b60 f i GuMeshAnalysis.obj
 0001:00090c20       ?resize@?$PxArray@_NV?$PxReflectionAllocator@_N@physx@@@physx@@QEAAXIAEB_N@Z 0000000180091c20 f i GuMeshAnalysis.obj
 0001:00090ce0       ?contactBoxBox@Gu@physx@@YA_NAEBVPxGeometry@2@0AEBUPxTransformPadded@2@1AEBUNarrowPhaseParams@12@AEAUCache@12@AEAVPxContactBuffer@2@PEAVPxRenderOutput@2@@Z 0000000180091ce0 f   GuContactBoxBox.obj
 0001:00094980       ?contactCapsuleBox@Gu@physx@@YA_NAEBVPxGeometry@2@0AEBUPxTransformPadded@2@1AEBUNarrowPhaseParams@12@AEAUCache@12@AEAVPxContactBuffer@2@PEAVPxRenderOutput@2@@Z 0000000180095980 f   GuContactCapsuleBox.obj
 0001:00095180       ?contactCapsuleCapsule@Gu@physx@@YA_NAEBVPxGeometry@2@0AEBUPxTransformPadded@2@1AEBUNarrowPhaseParams@12@AEAUCache@12@AEAVPxContactBuffer@2@PEAVPxRenderOutput@2@@Z 0000000180096180 f   GuContactCapsuleCapsule.obj
 0001:00097c40       ?contactCapsuleConvex@Gu@physx@@YA_NAEBVPxGeometry@2@0AEBUPxTransformPadded@2@1AEBUNarrowPhaseParams@12@AEAUCache@12@AEAVPxContactBuffer@2@PEAVPxRenderOutput@2@@Z 0000000180098c40 f   GuContactCapsuleConvex.obj
 0001:0009a1a0       ?contactCapsuleHeightfield@Gu@physx@@YA_NAEBVPxGeometry@2@0AEBUPxTransformPadded@2@1AEBUNarrowPhaseParams@12@AEAUCache@12@AEAVPxContactBuffer@2@PEAVPxRenderOutput@2@@Z 000000018009b1a0 f   GuContactCapsuleMesh.obj
 0001:0009a960       ?contactCapsuleMesh@Gu@physx@@YA_NAEBVPxGeometry@2@0AEBUPxTransformPadded@2@1AEBUNarrowPhaseParams@12@AEAUCache@12@AEAVPxContactBuffer@2@PEAVPxRenderOutput@2@@Z 000000018009b960 f   GuContactCapsuleMesh.obj
 0001:0009bad0       ?transformQueryBounds@FastVertex2ShapeScaling@Cm@physx@@QEBAXAEAV?$PxVec3T@M@3@0AEAV?$PxMat33T@M@3@@Z 000000018009cad0 f i GuContactCapsuleMesh.obj
 0001:0009fe50       ?contactBoxConvex@Gu@physx@@YA_NAEBVPxGeometry@2@0AEBUPxTransformPadded@2@1AEBUNarrowPhaseParams@12@AEAUCache@12@AEAVPxContactBuffer@2@PEAVPxRenderOutput@2@@Z 00000001800a0e50 f   GuContactConvexConvex.obj
 0001:000a0020       ?contactConvexConvex@Gu@physx@@YA_NAEBVPxGeometry@2@0AEBUPxTransformPadded@2@1AEBUNarrowPhaseParams@12@AEAUCache@12@AEAVPxContactBuffer@2@PEAVPxRenderOutput@2@@Z 00000001800a1020 f   GuContactConvexConvex.obj
 0001:000a0480       ?transformPlaneToShapeSpace@FastVertex2ShapeScaling@Cm@physx@@QEBAXAEBV?$PxVec3T@M@3@MAEAV43@AEAM@Z 00000001800a1480 f i GuContactConvexConvex.obj
 0001:000a0950       ??_EConvexMeshContactGenerationCallback@@UEAAPEAXI@Z 00000001800a1950 f i GuContactConvexMesh.obj
 0001:000a0950       ??_GConvexMeshContactGenerationCallback@@UEAAPEAXI@Z 00000001800a1950 f i GuContactConvexMesh.obj
 0001:000a09b0       ?addData@?$CacheMap@UCachedEdge@Gu@physx@@$0IA@@Gu@physx@@QEAA_NAEBUCachedEdge@23@@Z 00000001800a19b0 f i GuContactConvexMesh.obj
 0001:000a0a90       ?addData@?$CacheMap@UCachedVertex@Gu@physx@@$0IA@@Gu@physx@@QEAA_NAEBUCachedVertex@23@@Z 00000001800a1a90 f i GuContactConvexMesh.obj
 0001:000a0b30       ?allocate@?$PxArray@IV?$PxInlineAllocator@$0BBAA@V?$PxReflectionAllocator@I@physx@@@physx@@@physx@@IEAAPEAIIPEAI@Z 00000001800a1b30 f i GuContactConvexMesh.obj
 0001:000a0f30       ?contactBoxHeightfield@Gu@physx@@YA_NAEBVPxGeometry@2@0AEBUPxTransformPadded@2@1AEBUNarrowPhaseParams@12@AEAUCache@12@AEAVPxContactBuffer@2@PEAVPxRenderOutput@2@@Z 00000001800a1f30 f   GuContactConvexMesh.obj
 0001:000a10b0       ?contactBoxMesh@Gu@physx@@YA_NAEBVPxGeometry@2@0AEBUPxTransformPadded@2@1AEBUNarrowPhaseParams@12@AEAUCache@12@AEAVPxContactBuffer@2@PEAVPxRenderOutput@2@@Z 00000001800a20b0 f   GuContactConvexMesh.obj
 0001:000a1280       ?contactConvexHeightfield@Gu@physx@@YA_NAEBVPxGeometry@2@0AEBUPxTransformPadded@2@1AEBUNarrowPhaseParams@12@AEAUCache@12@AEAVPxContactBuffer@2@PEAVPxRenderOutput@2@@Z 00000001800a2280 f   GuContactConvexMesh.obj
 0001:000a13d0       ?contactConvexMesh@Gu@physx@@YA_NAEBVPxGeometry@2@0AEBUPxTransformPadded@2@1AEBUNarrowPhaseParams@12@AEAUCache@12@AEAVPxContactBuffer@2@PEAVPxRenderOutput@2@@Z 00000001800a23d0 f   GuContactConvexMesh.obj
 0001:000a27c0       ?contains@?$CacheMap@UCachedEdge@Gu@physx@@$0IA@@Gu@physx@@QEBA_NAEBUCachedEdge@23@@Z 00000001800a37c0 f i GuContactConvexMesh.obj
 0001:000a4b50       ?processHit@ConvexMeshContactGenerationCallback@@UEAA_NAEBUPxGeomRaycastHit@physx@@AEBV?$PxVec3T@M@3@11AEAMPEBI@Z 00000001800a5b50 f i GuContactConvexMesh.obj
 0001:000a5470       ?recreate@?$PxArray@IV?$PxInlineAllocator@$0BBAA@V?$PxReflectionAllocator@I@physx@@@physx@@@physx@@IEAAXI@Z 00000001800a6470 f i GuContactConvexMesh.obj
 0001:000a7190       ?addPatch@Contact@Gu@physx@@IEAAXAEBV?$PxVec3T@M@3@AEBUPoint@123@@Z 00000001800a8190 f i GuContactConvexCoreMesh.obj
 0001:000a7570       ?addPatchPoint@Contact@Gu@physx@@IEAAXIAEBUPoint@123@@Z 00000001800a8570 f i GuContactConvexCoreMesh.obj
 0001:000a7890       ?contactConvexCoreHeightfield@Gu@physx@@YA_NAEBVPxGeometry@2@0AEBUPxTransformPadded@2@1AEBUNarrowPhaseParams@12@AEAUCache@12@AEAVPxContactBuffer@2@PEAVPxRenderOutput@2@@Z 00000001800a8890 f   GuContactConvexCoreMesh.obj
 0001:000a8070       ?contactConvexCoreTrimesh@Gu@physx@@YA_NAEBVPxGeometry@2@0AEBUPxTransformPadded@2@1AEBUNarrowPhaseParams@12@AEAUCache@12@AEAVPxContactBuffer@2@PEAVPxRenderOutput@2@@Z 00000001800a9070 f   GuContactConvexCoreMesh.obj
 0001:000a87d0       ?getTriangleVertexIndices@HeightField@Gu@physx@@QEBAXIAEAI00@Z 00000001800a97d0 f i GuContactConvexCoreMesh.obj
 0001:000a97d0       ?contactConvexCoreConvex@Gu@physx@@YA_NAEBVPxGeometry@2@0AEBUPxTransformPadded@2@1AEBUNarrowPhaseParams@12@AEAUCache@12@AEAVPxContactBuffer@2@PEAVPxRenderOutput@2@@Z 00000001800aa7d0 f   GuContactConvexCoreConvex.obj
 0001:000a9c30       ?contactPlaneConvexCore@Gu@physx@@YA_NAEBVPxGeometry@2@0AEBUPxTransformPadded@2@1AEBUNarrowPhaseParams@12@AEAUCache@12@AEAVPxContactBuffer@2@PEAVPxRenderOutput@2@@Z 00000001800aac30 f   GuContactPlaneConvexCore.obj
 0001:000a9fe0       ?contactPlaneBox@Gu@physx@@YA_NAEBVPxGeometry@2@0AEBUPxTransformPadded@2@1AEBUNarrowPhaseParams@12@AEAUCache@12@AEAVPxContactBuffer@2@PEAVPxRenderOutput@2@@Z 00000001800aafe0 f   GuContactPlaneBox.obj
 0001:000aace0       ?contactPlaneCapsule@Gu@physx@@YA_NAEBVPxGeometry@2@0AEBUPxTransformPadded@2@1AEBUNarrowPhaseParams@12@AEAUCache@12@AEAVPxContactBuffer@2@PEAVPxRenderOutput@2@@Z 00000001800abce0 f   GuContactPlaneCapsule.obj
 0001:000ab3c0       ?contactPlaneConvex@Gu@physx@@YA_NAEBVPxGeometry@2@0AEBUPxTransformPadded@2@1AEBUNarrowPhaseParams@12@AEAUCache@12@AEAVPxContactBuffer@2@PEAVPxRenderOutput@2@@Z 00000001800ac3c0 f   GuContactPlaneConvex.obj
 0001:000abc30       ?contactPlaneMesh@Gu@physx@@YA_NAEBVPxGeometry@2@0AEBUPxTransformPadded@2@1AEBUNarrowPhaseParams@12@AEAUCache@12@AEAVPxContactBuffer@2@PEAVPxRenderOutput@2@@Z 00000001800acc30 f   GuContactPlaneMesh.obj
 0001:000acd60       ?reduce@?$BufferedPatch@$05$0EA@$00@Gu@physx@@QEAAXXZ 00000001800add60 f i GuContactPlaneMesh.obj
 0001:000af020       ?contactPolygonPolygonExt@Gu@physx@@YA_NIPEBV?$PxVec3T@M@2@PEBEAEBV?$PxMat34T@M@2@AEBVPxPlane@2@AEBV?$PxMat33T@M@2@I01234AEBV32@22IIAEAVPxContactBuffer@2@_N5M@Z 00000001800b0020 f   GuContactPolygonPolygon.obj
 0001:000b07d0       ?findRotationMatrixFromZ@Gu@physx@@YA?AV?$PxMat33T@M@2@AEBV?$PxVec3T@M@2@@Z 00000001800b17d0 f   GuContactPolygonPolygon.obj
 0001:000b1210       ??$PxSort@PEAV?$BufferedPatch@$04$0CA@$00@Gu@physx@@UPatchPenetrationPredicate@?$SDFContactReduction@$04$0CHBA@$0CA@@23@V?$PxReflectionAllocator@PEAV?$BufferedPatch@$04$0CA@$00@Gu@physx@@@3@@physx@@YAXPEAPEAV?$BufferedPatch@$04$0CA@$00@Gu@0@IAEBUPatchPenetrationPredicate@?$SDFContactReduction@$04$0CHBA@$0CA@@20@AEBV?$PxReflectionAllocator@PEAV?$BufferedPatch@$04$0CA@$00@Gu@physx@@@0@I@Z 00000001800b2210 f i GuContactMeshMesh.obj
 0001:000b17b0       ??$copy@V?$PxReflectionAllocator@V?$BufferedPatch@$04$0CA@$00@Gu@physx@@@physx@@@?$PxArray@V?$BufferedPatch@$04$0CA@$00@Gu@physx@@V?$PxReflectionAllocator@V?$BufferedPatch@$04$0CA@$00@Gu@physx@@@3@@physx@@IEAAXAEBV01@@Z 00000001800b27b0 f i GuContactMeshMesh.obj
 0001:000b1810       ??$sdfTriangleCollision@$0A@$0CA@$00@Gu@physx@@YAMAEIBUCollisionSDF@01@AEIBV?$PxVec3T@M@1@11AEAV31@2M@Z 00000001800b2810 f i GuContactMeshMesh.obj
 0001:000b1f70       ??0?$BufferedPatch@$04$0CA@$00@Gu@physx@@QEAA@AEBV012@@Z 00000001800b2f70 f i GuContactMeshMesh.obj
 0001:000b2040       ??0CollisionSDF@Gu@physx@@QEAA@AEBVSDF@12@@Z 00000001800b3040 f i GuContactMeshMesh.obj
 0001:000b2210       ?TriLerpWithGradient@CollisionSDF@Gu@physx@@SAMMMMMMMMMMMMPEAV?$PxVec3T@M@3@@Z 00000001800b3210 f i GuContactMeshMesh.obj
 0001:000b23c0       ?addContact@?$BufferedPatch@$04$0CA@$00@Gu@physx@@QEAAXAEBUTinyContact@23@@Z 00000001800b33c0 f i GuContactMeshMesh.obj
 0001:000b2470       ?allocate@?$PxArray@V?$BufferedPatch@$04$0CA@$00@Gu@physx@@V?$PxReflectionAllocator@V?$BufferedPatch@$04$0CA@$00@Gu@physx@@@3@@physx@@IEAAPEAV?$BufferedPatch@$04$0CA@$00@Gu@2@IPEAI@Z 00000001800b3470 f i GuContactMeshMesh.obj
 0001:000b2520       ?clampToBox@CollisionSDF@Gu@physx@@QEBA?AV?$PxVec3T@M@3@AEBV43@@Z 00000001800b3520 f i GuContactMeshMesh.obj
 0001:000b25e0       ?clampToFine@CollisionSDF@Gu@physx@@QEBA?AV?$PxVec3T@M@3@AEBV43@@Z 00000001800b35e0 f i GuContactMeshMesh.obj
 0001:000b26a0       ?contactMeshMesh@Gu@physx@@YA_NAEBVPxGeometry@2@0AEBUPxTransformPadded@2@1AEBUNarrowPhaseParams@12@AEAUCache@12@AEAVPxContactBuffer@2@PEAVPxRenderOutput@2@@Z 00000001800b36a0 f   GuContactMeshMesh.obj
 0001:000b2960       ?copy@?$PxArray@V?$BufferedPatch@$04$0CA@$00@Gu@physx@@V?$PxReflectionAllocator@V?$BufferedPatch@$04$0CA@$00@Gu@physx@@@3@@physx@@KAXPEAV?$BufferedPatch@$04$0CA@$00@Gu@2@0PEBV342@@Z 00000001800b3960 f i GuContactMeshMesh.obj
 0001:000b2a50       ?cullPatches@?$SDFContactReduction@$04$0CHBA@$0CA@@Gu@physx@@QEAAXM@Z 00000001800b3a50 f i GuContactMeshMesh.obj
 0001:000b2e10       ?dist@CollisionSDF@Gu@physx@@QEBAMAEBV?$PxVec3T@M@3@PEAV43@@Z 00000001800b3e10 f i GuContactMeshMesh.obj
 0001:000b2f40       ?distUsingGradient@CollisionSDF@Gu@physx@@QEBAMAEBV?$PxVec3T@M@3@AEAV43@AEBM@Z 00000001800b3f40 f i GuContactMeshMesh.obj
 0001:000b3190       ?evaluateCoarse@CollisionSDF@Gu@physx@@QEBAMAEBV?$PxVec3T@M@3@PEAV43@@Z 00000001800b4190 f i GuContactMeshMesh.obj
 0001:000b32e0       ?evaluateSubgrid@CollisionSDF@Gu@physx@@QEBAMIAEBV?$PxVec3T@M@3@PEAV43@@Z 00000001800b42e0 f i GuContactMeshMesh.obj
 0001:000b36a0       ?flushToContactBuffer@?$SDFContactReduction@$04$0CHBA@$0CA@@Gu@physx@@QEAAIAEAVPxContactBuffer@3@@Z 00000001800b46a0 f i GuContactMeshMesh.obj
 0001:000b39e0       ?grad@CollisionSDF@Gu@physx@@QEBA?AV?$PxVec3T@M@3@AEBV43@@Z 00000001800b49e0 f i GuContactMeshMesh.obj
 0001:000b3d70       ?growAndPushBack@?$PxArray@PEAV?$BufferedPatch@$04$0CA@$00@Gu@physx@@V?$PxReflectionAllocator@PEAV?$BufferedPatch@$04$0CA@$00@Gu@physx@@@3@@physx@@IEAAAEAPEAV?$BufferedPatch@$04$0CA@$00@Gu@2@AEBQEAV342@@Z 00000001800b4d70 f i GuContactMeshMesh.obj
 0001:000b3eb0       ?growAndPushBack@?$PxArray@V?$BufferedPatch@$04$0CA@$00@Gu@physx@@V?$PxReflectionAllocator@V?$BufferedPatch@$04$0CA@$00@Gu@physx@@@3@@physx@@IEAAAEAV?$BufferedPatch@$04$0CA@$00@Gu@2@AEBV342@@Z 00000001800b4eb0 f i GuContactMeshMesh.obj
 0001:000b3fe0       ?recreate@?$PxArray@PEAV?$BufferedPatch@$04$0CA@$00@Gu@physx@@V?$PxReflectionAllocator@PEAV?$BufferedPatch@$04$0CA@$00@Gu@physx@@@3@@physx@@IEAAXI@Z 00000001800b4fe0 f i GuContactMeshMesh.obj
 0001:000b40f0       ?recreate@?$PxArray@V?$BufferedPatch@$04$0CA@$00@Gu@physx@@V?$PxReflectionAllocator@V?$BufferedPatch@$04$0CA@$00@Gu@physx@@@3@@physx@@IEAAXI@Z 00000001800b50f0 f i GuContactMeshMesh.obj
 0001:000b41e0       ?reduce@?$BufferedPatch@$04$0CA@$00@Gu@physx@@QEAAXXZ 00000001800b51e0 f i GuContactMeshMesh.obj
 0001:000b4bb0       ?sample@CollisionSDF@Gu@physx@@QEBAMV?$PxVec3T@M@3@PEAV43@@Z 00000001800b5bb0 f i GuContactMeshMesh.obj
 0001:000b4d70       ?sdfMeshCollision@@YAIAEIBUPxTransformPadded@physx@@AEIBVPxTriangleMeshGeometry@2@01AEAV?$SDFContactReduction@$04$0CHBA@$0CA@@Gu@2@M_N@Z 00000001800b5d70 f   GuContactMeshMesh.obj
 0001:000b7930       ?contactSphereBox@Gu@physx@@YA_NAEBVPxGeometry@2@0AEBUPxTransformPadded@2@1AEBUNarrowPhaseParams@12@AEAUCache@12@AEAVPxContactBuffer@2@PEAVPxRenderOutput@2@@Z 00000001800b8930 f   GuContactSphereBox.obj
 0001:000b7ec0       ?contactSphereCapsule@Gu@physx@@YA_NAEBVPxGeometry@2@0AEBUPxTransformPadded@2@1AEBUNarrowPhaseParams@12@AEAUCache@12@AEAVPxContactBuffer@2@PEAVPxRenderOutput@2@@Z 00000001800b8ec0 f   GuContactSphereCapsule.obj
 0001:000b8cc0       ?contactSphereHeightfield@Gu@physx@@YA_NAEBVPxGeometry@2@0AEBUPxTransformPadded@2@1AEBUNarrowPhaseParams@12@AEAUCache@12@AEAVPxContactBuffer@2@PEAVPxRenderOutput@2@@Z 00000001800b9cc0 f   GuContactSphereMesh.obj
 0001:000b8fa0       ?contactSphereMesh@Gu@physx@@YA_NAEBVPxGeometry@2@0AEBUPxTransformPadded@2@1AEBUNarrowPhaseParams@12@AEAUCache@12@AEAVPxContactBuffer@2@PEAVPxRenderOutput@2@@Z 00000001800b9fa0 f   GuContactSphereMesh.obj
 0001:000ba640       ?contactSpherePlane@Gu@physx@@YA_NAEBVPxGeometry@2@0AEBUPxTransformPadded@2@1AEBUNarrowPhaseParams@12@AEAUCache@12@AEAVPxContactBuffer@2@PEAVPxRenderOutput@2@@Z 00000001800bb640 f   GuContactSpherePlane.obj
 0001:000ba840       ?contactSphereSphere@Gu@physx@@YA_NAEBVPxGeometry@2@0AEBUPxTransformPadded@2@1AEBUNarrowPhaseParams@12@AEAUCache@12@AEAVPxContactBuffer@2@PEAVPxRenderOutput@2@@Z 00000001800bb840 f   GuContactSphereSphere.obj
 0001:000baa00       ?contactCustomGeometryGeometry@Gu@physx@@YA_NAEBVPxGeometry@2@0AEBUPxTransformPadded@2@1AEBUNarrowPhaseParams@12@AEAUCache@12@AEAVPxContactBuffer@2@PEAVPxRenderOutput@2@@Z 00000001800bba00 f   GuContactCustomGeometry.obj
 0001:000baa60       ?contactGeometryCustomGeometry@Gu@physx@@YA_NAEBVPxGeometry@2@0AEBUPxTransformPadded@2@1AEBUNarrowPhaseParams@12@AEAUCache@12@AEAVPxContactBuffer@2@PEAVPxRenderOutput@2@@Z 00000001800bba60 f   GuContactCustomGeometry.obj
 0001:000bab20       ?selectNormal@Gu@physx@@YA_NEMM@Z 00000001800bbb20 f   GuFeatureCode.obj
 0001:000baba0       ??0BigConvexData@physx@@QEAA@XZ 00000001800bbba0 f   GuBigConvexData.obj
 0001:000babc0       ??1BigConvexData@physx@@QEAA@XZ 00000001800bbbc0 f   GuBigConvexData.obj
 0001:000bac90       ??4BigConvexData@physx@@QEAAAEAV01@AEBV01@@Z 00000001800bbc90 f i GuBigConvexData.obj
 0001:000bacb0       ?ComputeNearestOffset@BigConvexData@physx@@QEBAIAEBV?$PxVec3T@M@2@@Z 00000001800bbcb0 f   GuBigConvexData.obj
 0001:000badc0       ?ComputeOffset@BigConvexData@physx@@QEBAIAEBV?$PxVec3T@M@2@@Z 00000001800bbdc0 f   GuBigConvexData.obj
 0001:000baec0       ?CreateOffsets@BigConvexData@physx@@IEAAXXZ 00000001800bbec0 f   GuBigConvexData.obj
 0001:000baf10       ?GetAdjacentVerts@BigConvexData@physx@@QEBAPEBEXZ 00000001800bbf10 f i GuBigConvexData.obj
 0001:000baf10       ?getDeformableVolumeAuxData@DeformableVolumeMesh@Gu@physx@@UEAAPEAVPxDeformableVolumeAuxData@3@XZ 00000001800bbf10 f i GuTetrahedronMesh.obj
 0001:000baf10       ?getDeformableVolumeAuxData@DeformableVolumeMesh@Gu@physx@@UEBAPEBVPxDeformableVolumeAuxData@3@XZ 00000001800bbf10 f i GuTetrahedronMesh.obj
 0001:000baf10       ?getTransforms@PruningPool@Gu@physx@@QEAAPEAV?$PxTransformT@M@3@XZ 00000001800bbf10 f i GuIncrementalAABBPrunerCore.obj
 0001:000baf10       ?getTransforms@PruningPool@Gu@physx@@QEBAPEBV?$PxTransformT@M@3@XZ 00000001800bbf10 f i GuIncrementalAABBPrunerCore.obj
 0001:000baf10       ?getTriangles@TriangleMesh@Gu@physx@@UEBAPEBXXZ 00000001800bbf10 f i GuTriangleMesh.obj
 0001:000baf20       ?GetNbNeighbors@BigConvexData@physx@@QEBAGI@Z 00000001800bbf20 f i GuBigConvexData.obj
 0001:000baf20       ?GetValency@BigConvexData@physx@@QEBAGI@Z 00000001800bbf20 f i GuBigConvexData.obj
 0001:000baf30       ?GetNbSamples@BigConvexData@physx@@QEBAIXZ 00000001800bbf30 f i GuBigConvexData.obj
 0001:000baf40       ?GetNbVerts@BigConvexData@physx@@QEBAIXZ 00000001800bbf40 f i GuBigConvexData.obj
 0001:000baf40       ?getNbVertices@TetrahedronMesh@Gu@physx@@UEBAIXZ 00000001800bbf40 f i GuTetrahedronMesh.obj
 0001:000baf40       ?getNbVertices@TriangleMesh@Gu@physx@@UEBAIXZ 00000001800bbf40 f i GuTriangleMesh.obj
 0001:000baf40       ?length@pcharNode@@UEBAHXZ 00000001800bbf40 f i libvcruntime:undname.obj
 0001:000baf40       ?raw_length@pcharNode@@UEBAHXZ 00000001800bbf40 f i libvcruntime:undname.obj
 0001:000baf50       ?GetNeighbors@BigConvexData@physx@@QEBAPEBEI@Z 00000001800bbf50 f i GuBigConvexData.obj
 0001:000baf60       ?GetOffset@BigConvexData@physx@@QEBAGI@Z 00000001800bbf60 f i GuBigConvexData.obj
 0001:000baf70       ?GetSubdiv@BigConvexData@physx@@QEBAIXZ 00000001800bbf70 f i GuBigConvexData.obj
 0001:000baf80       ?Load@BigConvexData@physx@@QEAA_NAEAVPxInputStream@2@@Z 00000001800bbf80 f   GuBigConvexData.obj
 0001:000bb090       ?VLoad@BigConvexData@physx@@IEAA_NAEAVPxInputStream@2@@Z 00000001800bc090 f   GuBigConvexData.obj
 0001:000bb240       ?exportExtraData@BigConvexData@physx@@QEAAXAEAVPxSerializationContext@2@@Z 00000001800bc240 f   GuBigConvexData.obj
 0001:000bb2c0       ?importExtraData@BigConvexData@physx@@QEAAXAEAVPxDeserializationContext@2@@Z 00000001800bc2c0 f   GuBigConvexData.obj
 0001:000bb330       ?findUniqueConvexEdges@Gu@physx@@YAIIPEIAUConvexEdge@12@IPEIBUHullPolygonData@12@PEIBE@Z 00000001800bc330 f   GuConvexHelper.obj
 0001:000bb470       ?getConvexData@Gu@physx@@YA_NAEBVPxConvexMeshGeometry@2@AEAVFastVertex2ShapeScaling@Cm@2@AEAVPxBounds3@2@AEAUPolygonalData@12@@Z 00000001800bc470 f   GuConvexHelper.obj
 0001:000bb690       ?getScaledConvex@Gu@physx@@YAXAEAPEAV?$PxVec3T@M@2@AEAPEAEPEAV32@PEAE_NPEBV32@PEBEIAEBVFastVertex2ShapeScaling@Cm@2@@Z 00000001800bc690 f   GuConvexHelper.obj
 0001:000bb7c0       ??0ConvexMesh@Gu@physx@@QEAA@PEAVMeshFactory@12@@Z 00000001800bc7c0 f   GuConvexMesh.obj
 0001:000bb850       ??0ConvexMesh@Gu@physx@@QEAA@PEAVMeshFactory@12@AEAUConvexHullInitData@12@@Z 00000001800bc850 f   GuConvexMesh.obj
 0001:000bb990       ??_EConvexMesh@Gu@physx@@UEAAPEAXI@Z 00000001800bc990 f i GuConvexMesh.obj
 0001:000bb990       ??_GConvexMesh@Gu@physx@@UEAAPEAXI@Z 00000001800bc990 f i GuConvexMesh.obj
 0001:000bbaa0       ??_EPxBVH@physx@@MEAAPEAXI@Z 00000001800bcaa0 f i GuBVH.obj
 0001:000bbaa0       ??_EPxBase@physx@@MEAAPEAXI@Z 00000001800bcaa0 f i GuConvexMesh.obj
 0001:000bbaa0       ??_GPxBVH@physx@@MEAAPEAXI@Z 00000001800bcaa0 f i GuBVH.obj
 0001:000bbaa0       ??_GPxBase@physx@@MEAAPEAXI@Z 00000001800bcaa0 f i GuConvexMesh.obj
 0001:000bbad0       ?acquireReference@ConvexMesh@Gu@physx@@UEAAXXZ 00000001800bcad0 f   GuConvexMesh.obj
 0001:000bbad0       ?acquireReference@DeformableVolumeAuxData@Gu@physx@@UEAAXXZ 00000001800bcad0 f   GuTetrahedronMesh.obj
 0001:000bbad0       ?acquireReference@DeformableVolumeMesh@Gu@physx@@UEAAXXZ 00000001800bcad0 f   GuTetrahedronMesh.obj
 0001:000bbad0       ?acquireReference@HeightField@Gu@physx@@UEAAXXZ 00000001800bcad0 f   GuHeightField.obj
 0001:000bbad0       ?acquireReference@TetrahedronMesh@Gu@physx@@UEAAXXZ 00000001800bcad0 f   GuTetrahedronMesh.obj
 0001:000bbad0       ?acquireReference@TriangleMesh@Gu@physx@@UEAAXXZ 00000001800bcad0 f   GuTriangleMesh.obj
 0001:000bbf90       ?createObject@ConvexMesh@Gu@physx@@SAPEAV123@AEAPEAEAEAVPxDeserializationContext@3@@Z 00000001800bcf90 f   GuConvexMesh.obj
 0001:000bc0b0       ?exportExtraData@ConvexMesh@Gu@physx@@UEAAXAEAVPxSerializationContext@3@@Z 00000001800bd0b0 f   GuConvexMesh.obj
 0001:000bc1b0       ?getConcreteTypeName@PxConvexMesh@physx@@UEBAPEBDXZ 00000001800bd1b0 f i GuConvexMesh.obj
 0001:000bc1c0       ?getIndexBuffer@ConvexMesh@Gu@physx@@UEBAPEBEXZ 00000001800bd1c0 f i GuConvexMesh.obj
 0001:000bc200       ?getLocalBounds@ConvexMesh@Gu@physx@@UEBA?AVPxBounds3@3@XZ 00000001800bd200 f   GuConvexMesh.obj
 0001:000bc280       ?getMassInformation@ConvexMesh@Gu@physx@@UEBAXAEAMAEAV?$PxMat33T@M@3@AEAV?$PxVec3T@M@3@@Z 00000001800bd280 f   GuConvexMesh.obj
 0001:000bc2f0       ?getNbPolygons@ConvexMesh@Gu@physx@@UEBAIXZ 00000001800bd2f0 f i GuConvexMesh.obj
 0001:000bc300       ?getNbVertices@ConvexMesh@Gu@physx@@UEBAIXZ 00000001800bd300 f i GuConvexMesh.obj
 0001:000bc310       ?getPolygonData@ConvexMesh@Gu@physx@@UEBA_NIAEAUPxHullPolygon@3@@Z 00000001800bd310 f   GuConvexMesh.obj
 0001:000bc360       ?getReferenceCount@ConvexMesh@Gu@physx@@UEBAIXZ 00000001800bd360 f   GuConvexMesh.obj
 0001:000bc360       ?getReferenceCount@DeformableVolumeAuxData@Gu@physx@@UEBAIXZ 00000001800bd360 f   GuTetrahedronMesh.obj
 0001:000bc360       ?getReferenceCount@DeformableVolumeMesh@Gu@physx@@UEBAIXZ 00000001800bd360 f   GuTetrahedronMesh.obj
 0001:000bc360       ?getReferenceCount@HeightField@Gu@physx@@UEBAIXZ 00000001800bd360 f   GuHeightField.obj
 0001:000bc360       ?getReferenceCount@TetrahedronMesh@Gu@physx@@UEBAIXZ 00000001800bd360 f   GuTetrahedronMesh.obj
 0001:000bc360       ?getReferenceCount@TriangleMesh@Gu@physx@@UEBAIXZ 00000001800bd360 f   GuTriangleMesh.obj
 0001:000bc360       ?length@DNameStatusNode@@UEBAHXZ 00000001800bd360 f   libvcruntime:undname.obj
 0001:000bc360       ?raw_length@DNameStatusNode@@UEBAHXZ 00000001800bd360 f   libvcruntime:undname.obj
 0001:000bc370       ?getSDF@ConvexMesh@Gu@physx@@UEBAPEBMXZ 00000001800bd370 f   GuConvexMesh.obj
 0001:000bc380       ?getVertices@ConvexMesh@Gu@physx@@UEBAPEBV?$PxVec3T@M@3@XZ 00000001800bd380 f i GuConvexMesh.obj
 0001:000bc3a0       ?isGpuCompatible@ConvexMesh@Gu@physx@@UEBA_NXZ 00000001800bd3a0 f   GuConvexMesh.obj
 0001:000bc3e0       ?isKindOf@PxBase@physx@@MEBA_NPEBD@Z 00000001800bd3e0 f i GuConvexMesh.obj
 0001:000bc400       ?isKindOf@PxConvexMesh@physx@@MEBA_NPEBD@Z 00000001800bd400 f i GuConvexMesh.obj
 0001:000bc490       ?isReleasable@PxBase@physx@@UEBA_NXZ 00000001800bd490 f i GuConvexMesh.obj
 0001:000bc4a0       ?load@ConvexMesh@Gu@physx@@QEAA_NAEAVPxInputStream@3@@Z 00000001800bd4a0 f   GuConvexMesh.obj
 0001:000bca70       ?onRefCountZero@ConvexMesh@Gu@physx@@UEAAXXZ 00000001800bda70 f   GuConvexMesh.obj
 0001:000bcba0       ?release@ConvexMesh@Gu@physx@@UEAAXXZ 00000001800bdba0 f   GuConvexMesh.obj
 0001:000bcba0       ?release@DeformableVolumeAuxData@Gu@physx@@UEAAXXZ 00000001800bdba0 f   GuTetrahedronMesh.obj
 0001:000bcba0       ?release@DeformableVolumeMesh@Gu@physx@@UEAAXXZ 00000001800bdba0 f   GuTetrahedronMesh.obj
 0001:000bcba0       ?release@HeightField@Gu@physx@@UEAAXXZ 00000001800bdba0 f   GuHeightField.obj
 0001:000bcba0       ?release@TetrahedronMesh@Gu@physx@@UEAAXXZ 00000001800bdba0 f   GuTetrahedronMesh.obj
 0001:000bcba0       ?release@TriangleMesh@Gu@physx@@UEAAXXZ 00000001800bdba0 f   GuTriangleMesh.obj
 0001:000bcbd0       ??Dphysx@@YA?AV?$PxMat34T@M@0@AEBVPxMeshScale@0@AEBV10@@Z 00000001800bdbd0 f i GuConvexUtilsInternal.obj
 0001:000bd170       ?computeHullOBB@Gu@physx@@YAXAEAVBox@12@AEBVPxBounds3@2@MAEBV?$PxMat34T@M@2@2AEBVFastVertex2ShapeScaling@Cm@2@_N@Z 00000001800be170 f   GuConvexUtilsInternal.obj
 0001:000bd600       ?computeOBBAroundConvex@Gu@physx@@YAXAEAVBox@12@AEBVPxConvexMeshGeometry@2@PEBVPxConvexMesh@2@AEBV?$PxTransformT@M@2@@Z 00000001800be600 f   GuConvexUtilsInternal.obj
 0001:000bde30       ?computeVertexSpaceOBB@Gu@physx@@YAXAEAVBox@12@AEBV312@AEBV?$PxTransformT@M@2@AEBVPxMeshScale@2@@Z 00000001800bee30 f   GuConvexUtilsInternal.obj
 0001:000be160       ?transform@physx@@YA?AVBox@Gu@1@AEBV?$PxMat34T@M@1@AEBV231@@Z 00000001800bf160 f i GuConvexUtilsInternal.obj
 0001:000be3b0       ?localSearch@physx@@YAXAEAIAEBV?$PxVec3T@M@1@PEBV21@PEBUBigConvexRawData@Gu@1@@Z 00000001800bf3b0 f   GuHillClimbing.obj
 0001:000be4d0       ??0PCMPolygonalBox@Gu@physx@@QEAA@AEBV?$PxVec3T@M@2@@Z 00000001800bf4d0 f   GuPCMShapeConvex.obj
 0001:000be4d0       ??0PolygonalBox@Gu@physx@@QEAA@AEBV?$PxVec3T@M@2@@Z 00000001800bf4d0 f   GuShapeConvex.obj
 0001:000bf830       ?getPolygonalData@PolygonalBox@Gu@physx@@QEBAXPEIAUPolygonalData@23@@Z 00000001800c0830 f   GuShapeConvex.obj
 0001:000bf8a0       ?getPolygonalData_Convex@Gu@physx@@YAXPEIAUPolygonalData@12@PEIBUConvexHullData@12@AEBVFastVertex2ShapeScaling@Cm@2@@Z 00000001800c08a0 f   GuShapeConvex.obj
 0001:000bfa10       ?distancePointBoxSquared@Gu@physx@@YAMAEBV?$PxVec3T@M@2@00AEBV?$PxMat33T@M@2@PEAV32@@Z 00000001800c0a10 f   GuDistancePointBox.obj
 0001:000bfb60       ?closestPtPointTriangle@Gu@physx@@YA?AV?$PxVec3T@M@2@AEBV32@000AEAM1@Z 00000001800c0b60 f   GuDistancePointTriangle.obj
 0001:000c0090       ?distancePointTriangleSquared2UnitBox@Gu@physx@@YA?AT__m128@@AEBT3@000AEAT3@11@Z 00000001800c1090 f   GuDistancePointTriangle.obj
 0001:000c01b0       ?distancePointTriangleSquared@Gu@physx@@YA?AT__m128@@AEBT3@000AEAT3@11@Z 00000001800c11b0 f   GuDistancePointTriangle.obj
 0001:000c0f20       ?distanceSegmentBoxSquared@Gu@physx@@YAMAEBV?$PxVec3T@M@2@000AEBV?$PxMat33T@M@2@PEAMPEAV32@@Z 00000001800c1f20 f   GuDistanceSegmentBox.obj
 0001:000c17a0       ?distanceSegmentSegmentSquared4@Gu@physx@@YA?AT__m128@@AEBT3@000000000AEAT3@1@Z 00000001800c27a0 f   GuDistanceSegmentSegment.obj
 0001:000c1ab0       ?distanceSegmentSegmentSquared@Gu@physx@@YA?AT__m128@@AEBT3@000AEAT3@1@Z 00000001800c2ab0 f   GuDistanceSegmentSegment.obj
 0001:000c1c80       ?distanceSegmentSegmentSquared@Gu@physx@@YAMAEBV?$PxVec3T@M@2@000PEAM1@Z 00000001800c2c80 f   GuDistanceSegmentSegment.obj
 0001:000c1f20       ?distanceSegmentSegmentSquared@Gu@physx@@YAMAEBV?$PxVec3T@M@2@0M00MPEAM1@Z 00000001800c2f20 f   GuDistanceSegmentSegment.obj
 0001:000c2800       ?distanceSegmentTriangleSquared@Gu@physx@@YA?AT__m128@@AEBT3@0000AEAT3@1@Z 00000001800c3800 f   GuDistanceSegmentTriangle.obj
 0001:000c2f40       ?distanceSegmentTriangleSquared@Gu@physx@@YAMAEBV?$PxVec3T@M@2@0000PEAM11@Z 00000001800c3f40 f   GuDistanceSegmentTriangle.obj
 0001:000c4720       ?distanceTriangleTriangleSquared@Gu@physx@@YAMAEAV?$PxVec3T@M@2@0QEBVPxVec3Padded@2@1@Z 00000001800c5720 f   GuDistanceTriangleTriangle.obj
 0001:000c5270       ?closestPtPointTetrahedron@Gu@physx@@YA?AV?$PxVec3T@M@2@AEBV32@0000AEBV?$PxVec4T@M@2@@Z 00000001800c6270 f   GuDistancePointTetrahedron.obj
 0001:000c6340       ?PenetrationDepth@EPA@Gu@physx@@QEAA?AW4GjkStatus@23@AEBUGjkConvex@23@0PEIBT__m128@@1E_NT6@AEAUGjkOutput@23@@Z 00000001800c7340 f   GuEPA.obj
 0001:000c6dc0       ?addFacet@EPA@Gu@physx@@QEAAPEAVFacet@23@IIIAEBT__m128@@@Z 00000001800c7dc0 f   GuEPA.obj
 0001:000c71d0       ?epaPenetration@Gu@physx@@YA?AW4GjkStatus@12@AEBUGjkConvex@12@0PEIBE1E_NT__m128@@AEAUGjkOutput@12@@Z 00000001800c81d0 f   GuEPA.obj
 0001:000c7330       ?epaPenetration@Gu@physx@@YA?AW4GjkStatus@12@AEBUGjkConvex@12@0PEIBT__m128@@1E_NT5@AEAUGjkOutput@12@@Z 00000001800c8330 f   GuEPA.obj
 0001:000c73e0       ?silhouette@Facet@Gu@physx@@QEAAXAEBT__m128@@PEIBT4@1AEAVEdgeBuffer@23@AEAV?$InlineDeferredIDPool@$0EA@@Cm@3@@Z 00000001800c83e0 f   GuEPA.obj
 0001:000c75a0       ?closestPtPointTetrahedron@Gu@physx@@YA?AT__m128@@PEIAT3@00AEAI@Z 00000001800c85a0 f   GuGJKSimplex.obj
 0001:000c7d20       ?closestPtPointTetrahedron@Gu@physx@@YA?AT__m128@@PEIAT3@00PEIAH1AEAI@Z 00000001800c8d20 f   GuGJKSimplex.obj
 0001:000c97b0       ??$gjk@UGjkConvex@Gu@physx@@U123@@Gu@physx@@YA?AW4GjkStatus@01@AEBUGjkConvex@01@0AEBT__m128@@1AEAT4@222@Z 00000001800ca7b0 f i GuGJKTest.obj
 0001:000ca370       ??$gjkPenetration@UGjkConvex@Gu@physx@@U123@@Gu@physx@@YA?AW4GjkStatus@01@AEBUGjkConvex@01@0AEBT__m128@@1_NPEIAE3AEAEAEAUGjkOutput@01@@Z 00000001800cb370 f i GuGJKTest.obj
 0001:000ca3e0       ??$gjkPenetration@UGjkConvex@Gu@physx@@U123@@Gu@physx@@YA?AW4GjkStatus@01@AEBUGjkConvex@01@0AEBT__m128@@1_NPEIAE3PEIAT4@4AEAEAEAUGjkOutput@01@@Z 00000001800cb3e0 f i GuGJKTest.obj
 0001:000cbe00       ??$gjkRaycast@UGjkConvex@Gu@physx@@U123@@Gu@physx@@YA_NAEBUGjkConvex@01@0AEBT__m128@@111AEAT3@22M@Z 00000001800cce00 f i GuGJKTest.obj
 0001:000cc9a0       ?testEpaPenetration@Gu@physx@@YA?AW4GjkStatus@12@AEBUGjkConvex@12@0PEBE1EAEAUGjkOutput@12@@Z 00000001800cd9a0 f   GuGJKTest.obj
 0001:000cc9f0       ?testGjk@Gu@physx@@YA?AW4GjkStatus@12@AEBUGjkConvex@12@0AEBT__m128@@1AEAT5@222@Z 00000001800cd9f0 f   GuGJKTest.obj
 0001:000cca00       ?testGjkPenetration@Gu@physx@@YA?AW4GjkStatus@12@AEBUGjkConvex@12@0AEBT__m128@@1PEAE2AEAEAEAUGjkOutput@12@@Z 00000001800cda00 f   GuGJKTest.obj
 0001:000cca50       ?testGjkRaycast@Gu@physx@@YA_NAEBUGjkConvex@12@0AEBT__m128@@111AEAT4@22M@Z 00000001800cda50 f   GuGJKTest.obj
 0001:000cca60       ??0HeightField@Gu@physx@@QEAA@PEAVMeshFactory@12@@Z 00000001800cda60 f   GuHeightField.obj
 0001:000ccab0       ??0HeightField@Gu@physx@@QEAA@PEAVMeshFactory@12@AEAUHeightFieldData@12@@Z 00000001800cdab0 f   GuHeightField.obj
 0001:000ccb60       ??1HeightField@Gu@physx@@UEAA@XZ 00000001800cdb60 f   GuHeightField.obj
 0001:000ccbf0       ??_EHeightField@Gu@physx@@UEAAPEAXI@Z 00000001800cdbf0 f i GuHeightField.obj
 0001:000ccbf0       ??_GHeightField@Gu@physx@@UEAAPEAXI@Z 00000001800cdbf0 f i GuHeightField.obj
 0001:000ccca0       ?computeCellCoordinates@HeightField@Gu@physx@@QEBAIMMAEAM0@Z 00000001800cdca0 f   GuHeightField.obj
 0001:000ccdc0       ?createObject@HeightField@Gu@physx@@SAPEAV123@AEAPEAEAEAVPxDeserializationContext@3@@Z 00000001800cddc0 f   GuHeightField.obj
 0001:000cce10       ?exportExtraData@HeightField@Gu@physx@@UEAAXAEAVPxSerializationContext@3@@Z 00000001800cde10 f   GuHeightField.obj
 0001:000cce60       ?getConcreteTypeName@PxHeightField@physx@@UEBAPEBDXZ 00000001800cde60 f i GuHeightField.obj
 0001:000cce70       ?getConvexEdgeThreshold@HeightField@Gu@physx@@UEBAMXZ 00000001800cde70 f i GuHeightField.obj
 0001:000cce80       ?getFlags@HeightField@Gu@physx@@UEBA?AV?$PxFlags@W4Enum@PxHeightFieldFlag@physx@@G@3@XZ 00000001800cde80 f i GuHeightField.obj
 0001:000cce90       ?getFormat@HeightField@Gu@physx@@UEBA?AW4Enum@PxHeightFieldFormat@3@XZ 00000001800cde90 f i GuHeightField.obj
 0001:000ccea0       ?getHeight@HeightField@Gu@physx@@UEBAMMM@Z 00000001800cdea0 f i GuHeightField.obj
 0001:000ccfc0       ?getNbColumns@HeightField@Gu@physx@@UEBAIXZ 00000001800cdfc0 f i GuHeightField.obj
 0001:000ccfd0       ?getNbBounds@BVH@Gu@physx@@UEBAIXZ 00000001800cdfd0 f i GuBVH.obj
 0001:000ccfd0       ?getNbPrimitives@SourceMesh@Gu@physx@@UEBAIXZ 00000001800cdfd0 f i GuBV4.obj
 0001:000ccfd0       ?getNbPrimitives@TetrahedronSourceMesh@Gu@physx@@UEBAIXZ 00000001800cdfd0 f i GuBV4.obj
 0001:000ccfd0       ?getNbRows@HeightField@Gu@physx@@UEBAIXZ 00000001800cdfd0 f i GuHeightField.obj
 0001:000ccfe0       ?getSample@HeightField@Gu@physx@@UEBAAEBUPxHeightFieldSample@3@II@Z 00000001800cdfe0 f i GuHeightField.obj
 0001:000ccff0       ?getSampleStride@HeightField@Gu@physx@@UEBAIXZ 00000001800cdff0 f i GuHeightField.obj
 0001:000cd000       ?getTimestamp@HeightField@Gu@physx@@UEBAIXZ 00000001800ce000 f i GuHeightField.obj
 0001:000cd010       ?getTriangleMaterialIndex@HeightField@Gu@physx@@UEBAGI@Z 00000001800ce010 f i GuHeightField.obj
 0001:000cd030       ?getTriangleNormal@HeightField@Gu@physx@@UEBA?AV?$PxVec3T@M@3@I@Z 00000001800ce030 f i GuHeightField.obj
 0001:000cd140       ?isKindOf@PxHeightField@physx@@MEBA_NPEBD@Z 00000001800ce140 f i GuHeightField.obj
 0001:000cd1d0       ?load@HeightField@Gu@physx@@QEAA_NAEAVPxInputStream@3@@Z 00000001800ce1d0 f   GuHeightField.obj
 0001:000cd540       ?loadFromDesc@HeightField@Gu@physx@@QEAA_NAEBVPxHeightFieldDesc@3@@Z 00000001800ce540 f   GuHeightField.obj
 0001:000cd7d0       ?modifySamples@HeightField@Gu@physx@@UEAA_NHHAEBVPxHeightFieldDesc@3@_N@Z 00000001800ce7d0 f   GuHeightField.obj
 0001:000cdbc0       ?onRefCountZero@HeightField@Gu@physx@@UEAAXXZ 00000001800cebc0 f   GuHeightField.obj
 0001:000cdc90       ?releaseMemory@HeightField@Gu@physx@@QEAAXXZ 00000001800cec90 f   GuHeightField.obj
 0001:000cdce0       ?save@HeightField@Gu@physx@@QEAA_NAEAVPxOutputStream@3@_N@Z 00000001800cece0 f   GuHeightField.obj
 0001:000cdf20       ?saveCells@HeightField@Gu@physx@@UEBAIPEAXI@Z 00000001800cef20 f   GuHeightField.obj
 0001:000cdf60       ?computeLocalBounds@HeightFieldUtil@Gu@physx@@QEBAXAEAVPxBounds3@3@@Z 00000001800cef60 f   GuHeightFieldUtil.obj
 0001:000ce400       ?getTriangle@HeightFieldUtil@Gu@physx@@QEBAIAEBV?$PxTransformT@M@3@AEAVPxTriangle@3@PEAI2I_N3@Z 00000001800cf400 f   GuHeightFieldUtil.obj
 0001:000ced00       ?getTriangleAdjacencyIndices@HeightField@Gu@physx@@QEBAXIIIIAEAI00@Z 00000001800cfd00 f i GuHeightFieldUtil.obj
 0001:000ceec0       ?overlapAABBTriangles@HeightFieldUtil@Gu@physx@@QEBAXAEBVPxBounds3@3@AEAVOverlapReport@23@I@Z 00000001800cfec0 f   GuHeightFieldUtil.obj
 0001:000cf320       ??$gjk@U?$RelativeConvex@VTriangleV@Gu@physx@@@Gu@physx@@U?$LocalConvex@VConvexHullV@Gu@physx@@@23@@Gu@physx@@YA?AW4GjkStatus@01@AEBU?$RelativeConvex@VTriangleV@Gu@physx@@@01@AEBU?$LocalConvex@VConvexHullV@Gu@physx@@@01@AEBT__m128@@2AEAT5@333@Z 00000001800d0320 f i GuOverlapTestsHF.obj
 0001:000d00c0       ?GeomOverlapCallback_BoxHeightfield@@YA_NAEBVPxGeometry@physx@@AEBV?$PxTransformT@M@2@01PEAUTriggerCache@Gu@2@PEAUPxQueryThreadContext@2@@Z 00000001800d10c0 f   GuOverlapTestsHF.obj
 0001:000d0630       ?GeomOverlapCallback_CapsuleHeightfield@@YA_NAEBVPxGeometry@physx@@AEBV?$PxTransformT@M@2@01PEAUTriggerCache@Gu@2@PEAUPxQueryThreadContext@2@@Z 00000001800d1630 f   GuOverlapTestsHF.obj
 0001:000d0c40       ?GeomOverlapCallback_ConvexHeightfield@@YA_NAEBVPxGeometry@physx@@AEBV?$PxTransformT@M@2@01PEAUTriggerCache@Gu@2@PEAUPxQueryThreadContext@2@@Z 00000001800d1c40 f   GuOverlapTestsHF.obj
 0001:000d1690       ?GeomOverlapCallback_SphereHeightfield@@YA_NAEBVPxGeometry@physx@@AEBV?$PxTransformT@M@2@01PEAUTriggerCache@Gu@2@PEAUPxQueryThreadContext@2@@Z 00000001800d2690 f   GuOverlapTestsHF.obj
 0001:000d22b0       ??$gjkRaycast@U?$LocalConvex@VTriangleV@Gu@physx@@@Gu@physx@@U?$LocalConvex@VConvexHullV@Gu@physx@@@23@@Gu@physx@@YA_NAEBU?$LocalConvex@VTriangleV@Gu@physx@@@01@AEBU?$LocalConvex@VConvexHullV@Gu@physx@@@01@AEBT__m128@@222AEAT4@33M@Z 00000001800d32b0 f i GuSweepsHF.obj
 0001:000d30c0       ??$traceSegment@VBoxTraceSegmentReport@@$0A@$00@HeightFieldTraceUtil@Gu@physx@@QEBAXAEBV?$PxVec3T@M@2@0MPEAVBoxTraceSegmentReport@@AEBVPxBounds3@2@_NPEBV32@@Z 00000001800d40c0 f i GuSweepsHF.obj
 0001:000d30c0       ??$traceSegment@VCapsuleTraceSegmentReport@@$0A@$00@HeightFieldTraceUtil@Gu@physx@@QEBAXAEBV?$PxVec3T@M@2@0MPEAVCapsuleTraceSegmentReport@@AEBVPxBounds3@2@_NPEBV32@@Z 00000001800d40c0 f i GuSweepsHF.obj
 0001:000d30c0       ??$traceSegment@VConvexTraceSegmentReport@@$0A@$00@HeightFieldTraceUtil@Gu@physx@@QEBAXAEBV?$PxVec3T@M@2@0MPEAVConvexTraceSegmentReport@@AEBVPxBounds3@2@_NPEBV32@@Z 00000001800d40c0 f i GuSweepsHF.obj
 0001:000d38a0       ??0ConvexTraceSegmentReport@@QEAA@AEBVHeightFieldUtil@Gu@physx@@AEBUConvexHullData@23@AEBVPxMeshScale@3@AEBV?$PxTransformT@M@3@3AEBV?$PxVec3T@M@3@MV?$PxFlags@W4Enum@PxHitFlag@physx@@G@3@M@Z 00000001800d48a0 f i GuSweepsHF.obj
 0001:000d4220       ??_EBoxTraceSegmentReport@@UEAAPEAXI@Z 00000001800d5220 f i GuSweepsHF.obj
 0001:000d4220       ??_GBoxTraceSegmentReport@@UEAAPEAXI@Z 00000001800d5220 f i GuSweepsHF.obj
 0001:000d4250       ??_ECapsuleTraceSegmentReport@@UEAAPEAXI@Z 00000001800d5250 f i GuSweepsHF.obj
 0001:000d4250       ??_GCapsuleTraceSegmentReport@@UEAAPEAXI@Z 00000001800d5250 f i GuSweepsHF.obj
 0001:000d4280       ??_EConvexTraceSegmentReport@@UEAAPEAXI@Z 00000001800d5280 f i GuSweepsHF.obj
 0001:000d4280       ??_GConvexTraceSegmentReport@@UEAAPEAXI@Z 00000001800d5280 f i GuSweepsHF.obj
 0001:000d42b0       ??_EHeightFieldTraceSegmentReport@@UEAAPEAXI@Z 00000001800d52b0 f i GuSweepsHF.obj
 0001:000d42b0       ??_GHeightFieldTraceSegmentReport@@UEAAPEAXI@Z 00000001800d52b0 f i GuSweepsHF.obj
 0001:000d42e0       ?onEvent@BoxTraceSegmentReport@@UEAA_NIPEBI@Z 00000001800d52e0 f i GuSweepsHF.obj
 0001:000d4740       ?onEvent@CapsuleTraceSegmentReport@@UEAA_NIPEBI@Z 00000001800d5740 f i GuSweepsHF.obj
 0001:000d4960       ?onEvent@ConvexTraceSegmentReport@@UEAA_NIPEBI@Z 00000001800d5960 f i GuSweepsHF.obj
 0001:000d4f20       ?prepare@?$OverlapTraceSegment@VBoxTraceSegmentReport@@@HeightFieldTraceUtil@Gu@physx@@QEAAXAEBV?$PxVec3T@M@4@00AEAM1@Z 00000001800d5f20 f i GuSweepsHF.obj
 0001:000d4f20       ?prepare@?$OverlapTraceSegment@VCapsuleTraceSegmentReport@@@HeightFieldTraceUtil@Gu@physx@@QEAAXAEBV?$PxVec3T@M@4@00AEAM1@Z 00000001800d5f20 f i GuSweepsHF.obj
 0001:000d4f20       ?prepare@?$OverlapTraceSegment@VConvexTraceSegmentReport@@@HeightFieldTraceUtil@Gu@physx@@QEAAXAEBV?$PxVec3T@M@4@00AEAM1@Z 00000001800d5f20 f i GuSweepsHF.obj
 0001:000d51c0       ?sweepBox_HeightFieldGeom@@YA_NAEBVPxGeometry@physx@@AEBV?$PxTransformT@M@2@AEBVPxBoxGeometry@2@1AEBVBox@Gu@2@AEBV?$PxVec3T@M@2@MAEAUPxGeomSweepHit@2@V?$PxFlags@W4Enum@PxHitFlag@physx@@G@2@MPEAUPxQueryThreadContext@2@@Z 00000001800d61c0 f   GuSweepsHF.obj
 0001:000d5ff0       ?sweepCapsule_HeightFieldGeom@@YA_NAEBVPxGeometry@physx@@AEBV?$PxTransformT@M@2@AEBVPxCapsuleGeometry@2@1AEBVCapsule@Gu@2@AEBV?$PxVec3T@M@2@MAEAUPxGeomSweepHit@2@V?$PxFlags@W4Enum@PxHitFlag@physx@@G@2@MPEAUPxQueryThreadContext@2@@Z 00000001800d6ff0 f   GuSweepsHF.obj
 0001:000d6940       ?sweepConvex_HeightFieldGeom@@YA_NAEBVPxGeometry@physx@@AEBV?$PxTransformT@M@2@AEBVPxConvexMeshGeometry@2@1AEBV?$PxVec3T@M@2@MAEAUPxGeomSweepHit@2@V?$PxFlags@W4Enum@PxHitFlag@physx@@G@2@MPEAUPxQueryThreadContext@2@@Z 00000001800d7940 f   GuSweepsHF.obj
 0001:000d74e0       ?testVertexIndex@?$OverlapTraceSegment@VBoxTraceSegmentReport@@@HeightFieldTraceUtil@Gu@physx@@QEAA_NI@Z 00000001800d84e0 f i GuSweepsHF.obj
 0001:000d74e0       ?testVertexIndex@?$OverlapTraceSegment@VCapsuleTraceSegmentReport@@@HeightFieldTraceUtil@Gu@physx@@QEAA_NI@Z 00000001800d84e0 f i GuSweepsHF.obj
 0001:000d74e0       ?testVertexIndex@?$OverlapTraceSegment@VConvexTraceSegmentReport@@@HeightFieldTraceUtil@Gu@physx@@QEAA_NI@Z 00000001800d84e0 f i GuSweepsHF.obj
 0001:000d7640       ?transformFast@PxBounds3@physx@@SA?AV12@AEBV?$PxTransformT@M@2@AEBV12@@Z 00000001800d8640 f i GuSweepsHF.obj
 0001:000d7a20       ?visitCells@?$OverlapTraceSegment@VBoxTraceSegmentReport@@@HeightFieldTraceUtil@Gu@physx@@QEAA_NAEBUOverlapRectangle@1234@@Z 00000001800d8a20 f i GuSweepsHF.obj
 0001:000d7a20       ?visitCells@?$OverlapTraceSegment@VCapsuleTraceSegmentReport@@@HeightFieldTraceUtil@Gu@physx@@QEAA_NAEBUOverlapRectangle@1234@@Z 00000001800d8a20 f i GuSweepsHF.obj
 0001:000d7a20       ?visitCells@?$OverlapTraceSegment@VConvexTraceSegmentReport@@@HeightFieldTraceUtil@Gu@physx@@QEAA_NAEBUOverlapRectangle@1234@@Z 00000001800d8a20 f i GuSweepsHF.obj
 0001:000d7c00       ?intersectOBBOBB@Gu@physx@@YA_NAEBV?$PxVec3T@M@2@0AEBV?$PxMat33T@M@2@001_N@Z 00000001800d8c00 f   GuIntersectionBoxBox.obj
 0001:000d82a0       ?intersectCapsuleTriangle@Gu@physx@@YA_NAEBV?$PxVec3T@M@2@000AEBVCapsule@12@AEBUCapsuleTriangleOverlapData@12@@Z 00000001800d92a0 f   GuIntersectionCapsuleTriangle.obj
 0001:000d8de0       ?intersectEdgeEdge@Gu@physx@@YA_NAEBV?$PxVec3T@M@2@0000AEAMAEAV32@@Z 00000001800d9de0 f   GuIntersectionEdgeEdge.obj
 0001:000d9110       ?intersectRayAABB2@Gu@physx@@YA_NAEBT__m128@@0000AEAT3@1@Z 00000001800da110 f   GuIntersectionRayBox.obj
 0001:000d91d0       ?intersectRayAABB2@Gu@physx@@YA_NAEBV?$PxVec3T@M@2@000MAEAM1@Z 00000001800da1d0 f   GuIntersectionRayBox.obj
 0001:000d9380       ?intersectRayAABB@Gu@physx@@YAHAEBV?$PxVec3T@M@2@000AEAM1@Z 00000001800da380 f   GuIntersectionRayBox.obj
 0001:000d94a0       ?rayAABBIntersect2@Gu@physx@@YAIAEBV?$PxVec3T@M@2@000AEAV32@AEAM@Z 00000001800da4a0 f   GuIntersectionRayBox.obj
 0001:000d96e0       ?intersectRayCapsuleInternal@Gu@physx@@YAIAEBV?$PxVec3T@M@2@000MQEAM@Z 00000001800da6e0 f   GuIntersectionRayCapsule.obj
 0001:000d9bc0       ?intersectRaySphere@Gu@physx@@YA_NAEBV?$PxVec3T@M@2@0M0MAEAMPEAV32@@Z 00000001800dabc0 f   GuIntersectionRaySphere.obj
 0001:000d9cc0       ?intersectRaySphereBasic@Gu@physx@@YA_NAEBV?$PxVec3T@M@2@0M0MAEAMPEAV32@@Z 00000001800dacc0 f   GuIntersectionRaySphere.obj
 0001:000d9e20       ?intersectSphereBox@Gu@physx@@YA_NAEBVSphere@12@AEBVBox@12@@Z 00000001800dae20 f   GuIntersectionSphereBox.obj
 0001:000da050       ?intersectTetrahedronBox@Gu@physx@@YA_NAEBV?$PxVec3T@M@2@000AEBVPxBounds3@2@@Z 00000001800db050 f   GuIntersectionTetrahedronBox.obj
 0001:000da420       ?intersectTriangleBox@Gu@physx@@YAHAEBVBoxPadded@12@AEBV?$PxVec3T@M@2@11@Z 00000001800db420 f   GuIntersectionTriangleBox.obj
 0001:000daa00       ?intersectTriangleBoxBV4@@YAHAEBV?$PxVec3T@M@physx@@00AEBV?$PxMat33T@M@2@00@Z 00000001800dba00 f   GuIntersectionTriangleBox.obj
 0001:000dae40       ?intersectTriangleBox_ReferenceCode@Gu@physx@@YAHAEBV?$PxVec3T@M@2@0000@Z 00000001800dbe40 f   GuIntersectionTriangleBox.obj
 0001:000db680       ?intersectTriangleBox_Unsafe@Gu@physx@@YAHAEBV?$PxVec3T@M@2@0000@Z 00000001800dc680 f   GuIntersectionTriangleBox.obj
 0001:000dba40       ?intersectTriangleTriangle@Gu@physx@@YA_NAEBV?$PxVec3T@M@2@00000_N@Z 00000001800dca40 f   GuIntersectionTriangleTriangle.obj
 0001:000dce80       ??0BV4Tree@Gu@physx@@QEAA@W4PxEMPTY@2@@Z 00000001800dde80 f   GuBV4.obj
 0001:000dce90       ??0BV4Tree@Gu@physx@@QEAA@XZ 00000001800dde90 f   GuBV4.obj
 0001:000dcec0       ??0SourceMesh@Gu@physx@@QEAA@XZ 00000001800ddec0 f   GuBV4.obj
 0001:000dcef0       ??0TetrahedronSourceMesh@Gu@physx@@QEAA@XZ 00000001800ddef0 f   GuBV4.obj
 0001:000dcf20       ??1BV4Tree@Gu@physx@@QEAA@XZ 00000001800ddf20 f   GuBV4.obj
 0001:000dcf30       ??1SourceMesh@Gu@physx@@UEAA@XZ 00000001800ddf30 f   GuBV4.obj
 0001:000dcf30       ??1TetrahedronSourceMesh@Gu@physx@@UEAA@XZ 00000001800ddf30 f   GuBV4.obj
 0001:000dcf80       ??4BV4Tree@Gu@physx@@QEAAXAEAV012@@Z 00000001800ddf80 f   GuBV4.obj
 0001:000dd010       ??4SourceMesh@Gu@physx@@QEAAXAEAV012@@Z 00000001800de010 f   GuBV4.obj
 0001:000dd060       ??_ESourceMesh@Gu@physx@@UEAAPEAXI@Z 00000001800de060 f i GuBV4.obj
 0001:000dd060       ??_ETetrahedronSourceMesh@Gu@physx@@UEAAPEAXI@Z 00000001800de060 f i GuBV4.obj
 0001:000dd060       ??_GSourceMesh@Gu@physx@@UEAAPEAXI@Z 00000001800de060 f i GuBV4.obj
 0001:000dd060       ??_GTetrahedronSourceMesh@Gu@physx@@UEAAPEAXI@Z 00000001800de060 f i GuBV4.obj
 0001:000dd100       ??_ESourceMeshBase@Gu@physx@@UEAAPEAXI@Z 00000001800de100 f i GuBV4.obj
 0001:000dd100       ??_GSourceMeshBase@Gu@physx@@UEAAPEAXI@Z 00000001800de100 f i GuBV4.obj
 0001:000dd1a0       ?exportExtraData@BV4Tree@Gu@physx@@QEAAXAEAVPxSerializationContext@3@@Z 00000001800de1a0 f   GuBV4.obj
 0001:000dd200       ?getPrimitiveBox@SourceMesh@Gu@physx@@UEAAXIAEAT__m128@@0@Z 00000001800de200 f   GuBV4.obj
 0001:000dd290       ?getPrimitiveBox@TetrahedronSourceMesh@Gu@physx@@UEAAXIAEAT__m128@@0@Z 00000001800de290 f   GuBV4.obj
 0001:000dd340       ?importExtraData@BV4Tree@Gu@physx@@QEAAXAEAVPxDeserializationContext@3@@Z 00000001800de340 f   GuBV4.obj
 0001:000dd380       ?init@BV32Tree@Gu@physx@@QEAA_NPEAVSourceMeshBase@23@AEBVPxBounds3@3@@Z 00000001800de380 f   GuBV32.obj
 0001:000dd380       ?init@BV4Tree@Gu@physx@@QEAA_NPEAVSourceMeshBase@23@AEBVPxBounds3@3@@Z 00000001800de380 f   GuBV4.obj
 0001:000dd420       ?load@BV4Tree@Gu@physx@@QEAA_NAEAVPxInputStream@3@_N@Z 00000001800de420 f   GuBV4.obj
 0001:000dd600       ?refit@BV4Tree@Gu@physx@@QEAA_NAEAVPxBounds3@3@M@Z 00000001800de600 f   GuBV4.obj
 0001:000ddd60       ?refit@SourceMesh@Gu@physx@@UEAAXIAEAVPxBounds3@3@@Z 00000001800ded60 f   GuBV4.obj
 0001:000ddf10       ?refit@TetrahedronSourceMesh@Gu@physx@@UEAAXIAEAVPxBounds3@3@@Z 00000001800def10 f   GuBV4.obj
 0001:000de140       ?release@BV4Tree@Gu@physx@@QEAAXXZ 00000001800df140 f   GuBV4.obj
 0001:000de1b0       ?remapTopology@SourceMesh@Gu@physx@@UEAAXPEBI@Z 00000001800df1b0 f   GuBV4.obj
 0001:000de490       ?remapTopology@TetrahedronSourceMesh@Gu@physx@@UEAAXPEBI@Z 00000001800df490 f   GuBV4.obj
 0001:000de780       ??0BV4_AABBTree@Gu@physx@@QEAA@XZ 00000001800df780 f   GuBV4Build.obj
 0001:000de790       ??0BVData@@QEAA@XZ         00000001800df790 f   GuBV4Build.obj
 0001:000de7c0       ??0BuildStats@Gu@physx@@QEAA@XZ 00000001800df7c0 f i GuBV4Build.obj
 0001:000de7d0       ??1BV4_AABBTree@Gu@physx@@QEAA@XZ 00000001800df7d0 f   GuBV4Build.obj
 0001:000de7e0       ??4BuildStats@Gu@physx@@QEAAAEAU012@$$QEAU012@@Z 00000001800df7e0 f i GuBV4Build.obj
 0001:000de7f0       ??4BuildStats@Gu@physx@@QEAAAEAU012@AEBU012@@Z 00000001800df7f0 f i GuBV4Build.obj
 0001:000de800       ?BuildBV4Ex@Gu@physx@@YA_NAEAVBV4Tree@12@AEAVSourceMeshBase@12@MI_NW4BV4_BuildStrategy@12@@Z 00000001800df800 f   GuBV4Build.obj
 0001:000df6e0       ?allocateNode@BV4BuildParams@@QEAAPEAUBV4Node@@XZ 00000001800e06e0 f   GuBV4Build.obj
 0001:000dfb50       ?buildFromMesh@BV4_AABBTree@Gu@physx@@QEAA_NAEAVSourceMeshBase@23@IW4BV4_BuildStrategy@23@@Z 00000001800e0b50 f   GuBV4Build.obj
 0001:000e0ab0       ?getCount@BuildStats@Gu@physx@@QEBAIXZ 00000001800e1ab0 f i GuBV4Build.obj
 0001:000e0ab0       ?getNbActiveObjects@PruningPool@Gu@physx@@QEBAIXZ 00000001800e1ab0 f i GuIncrementalAABBPrunerCore.obj
 0001:000e0b90       ?increaseCount@BuildStats@Gu@physx@@QEAAXI@Z 00000001800e1b90 f i GuBV4Build.obj
 0001:000e15e0       ?release@BV4_AABBTree@Gu@physx@@QEAAXXZ 00000001800e25e0 f   GuBV4Build.obj
 0001:000e1690       ?releaseNodes@BV4BuildParams@@QEAAXXZ 00000001800e2690 f   GuBV4Build.obj
 0001:000e1700       ?reset@BuildStats@Gu@physx@@QEAAXXZ 00000001800e2700 f i GuBV4Build.obj
 0001:000e1710       ?setCount@BuildStats@Gu@physx@@QEAAXI@Z 00000001800e2710 f i GuBV4Build.obj
 0001:000e1d80       ?walk@BV4_AABBTree@Gu@physx@@QEBAIP6A_NPEBVAABBTreeNode@23@IPEAX@Z1@Z 00000001800e2d80 f   GuBV4Build.obj
 0001:000e1e40       ?walkDistance@BV4_AABBTree@Gu@physx@@QEBAIP6A_NPEBVAABBTreeNode@23@IPEAX@ZP6A_N01@Z1@Z 00000001800e2e40 f   GuBV4Build.obj
 0001:000e5d60       ?GenericSweep_AABB_CB@@YAXAEBVBox@Gu@physx@@AEBV?$PxVec3T@M@3@MAEBVBV4Tree@23@P6A_NPEAX111IAEAM@Z3I@Z 00000001800e6d60 f   GuBV4_AABBSweep.obj
 0001:000e5e80       ?Sweep_AABB_BV4@@YAHAEBVBox@Gu@physx@@AEBV?$PxVec3T@M@3@MAEBVBV4Tree@23@PEIAVSweepHit@23@I@Z 00000001800e6e80 f   GuBV4_AABBSweep.obj
 0001:000eee80       ?BV4_OverlapBoxAll@@YAIAEBVBox@Gu@physx@@AEBVBV4Tree@23@PEIBV?$PxMat44T@M@3@PEAIIAEA_N@Z 00000001800efe80 f   GuBV4_BoxOverlap.obj
 0001:000ef6a0       ?BV4_OverlapBoxAny@@YAHAEBVBox@Gu@physx@@AEBVBV4Tree@23@PEIBV?$PxMat44T@M@3@@Z 00000001800f06a0 f   GuBV4_BoxOverlap.obj
 0001:000efe60       ?BV4_OverlapBoxCB@@YAXAEBVBox@Gu@physx@@AEBVBV4Tree@23@P6A_NPEAXAEBV?$PxVec3T@M@3@333IPEBI@Z2@Z 00000001800f0e60 f   GuBV4_BoxOverlap.obj
 0001:000f04f0       ?BV4_OverlapBoxCB@@YAXAEBVBox@Gu@physx@@AEBVBV4Tree@23@P6A_NPEAXAEBV?$PxVec3T@M@3@33IPEBI@Z2@Z 00000001800f14f0 f   GuBV4_BoxOverlap.obj
 0001:000f09b0       ?BV4_OverlapCapsuleAll@@YAIAEBVCapsule@Gu@physx@@AEBVBV4Tree@23@PEIBV?$PxMat44T@M@3@PEAIIAEA_N@Z 00000001800f19b0 f   GuBV4_BoxOverlap.obj
 0001:000f10b0       ?BV4_OverlapCapsuleAny@@YAHAEBVCapsule@Gu@physx@@AEBVBV4Tree@23@PEIBV?$PxMat44T@M@3@@Z 00000001800f20b0 f   GuBV4_BoxOverlap.obj
 0001:000f3de0       ?BV4_CapsuleSweepSingle@@YAHAEBVCapsule@Gu@physx@@AEBV?$PxVec3T@M@3@MAEBVBV4Tree@23@PEIAVSweepHit@23@I@Z 00000001800f4de0 f   GuBV4_CapsuleSweep.obj
 0001:000f7e90       ?BV4_CapsuleSweepSingleAA@@YAHAEBVCapsule@Gu@physx@@AEBV?$PxVec3T@M@3@MAEBVBV4Tree@23@PEIAVSweepHit@23@I@Z 00000001800f8e90 f   GuBV4_CapsuleSweepAA.obj
 0001:00108ec0       ?BV4_OverlapMeshVsMesh@@YA_NAEAV?$PxReportCallback@UPxGeomIndexPair@physx@@@physx@@AEBVBV4Tree@Gu@2@1PEBV?$PxMat44T@M@2@2AEBV?$PxTransformT@M@2@3AEBVPxMeshScale@2@4V?$PxFlags@W4Enum@PxMeshMeshQueryFlag@physx@@I@2@M@Z 0000000180109ec0 f   GuBV4_MeshMeshOverlap.obj
 0001:00108f40       ?BV4_OverlapMeshVsMeshDistance@@YA_NAEAV?$PxReportCallback@UPxGeomIndexClosePair@physx@@@physx@@AEBVBV4Tree@Gu@2@1PEBV?$PxMat44T@M@2@2AEBV?$PxTransformT@M@2@3AEBVPxMeshScale@2@4V?$PxFlags@W4Enum@PxMeshMeshQueryFlag@physx@@I@2@M@Z 0000000180109f40 f   GuBV4_MeshMeshOverlap.obj
 0001:00111e60       ?BV4_BoxSweepSingle@@YAHAEBVBox@Gu@physx@@AEBV?$PxVec3T@M@3@MAEBVBV4Tree@23@PEIBV?$PxMat44T@M@3@PEIAVSweepHit@23@I@Z 0000000180112e60 f   GuBV4_OBBSweep.obj
 0001:00112590       ?BV4_GenericSweepCB@@YAXAEBVBox@Gu@physx@@AEBV?$PxVec3T@M@3@MAEBVBV4Tree@23@P6A_NPEAX111IAEAM@Z3_N@Z 0000000180113590 f   GuBV4_OBBSweep.obj
 0001:001127b0       ?Sweep_OBB_BV4@@YAHAEBVBox@Gu@physx@@AEBV?$PxVec3T@M@3@MAEBVBV4Tree@23@PEIAVSweepHit@23@I@Z 00000001801137b0 f   GuBV4_OBBSweep.obj
 0001:00115300       ?BV4_RaycastCB@@YAXAEBV?$PxVec3T@M@physx@@0AEBVBV4Tree@Gu@2@PEIBV?$PxMat44T@M@2@MMIP6A?AW4HitCode@42@PEAX000IMMM@Z3@Z 0000000180116300 f   GuBV4_Raycast.obj
 0001:00115730       ?BV4_RaycastSingle@@YAHAEBV?$PxVec3T@M@physx@@0AEBVBV4Tree@Gu@2@PEIBV?$PxMat44T@M@2@PEIAUPxGeomRaycastHit@2@MMIV?$PxFlags@W4Enum@PxHitFlag@physx@@G@2@@Z 0000000180116730 f   GuBV4_Raycast.obj
 0001:00117cc0       ?BV4_OverlapSphereAll@@YAIAEBVSphere@Gu@physx@@AEBVBV4Tree@23@PEIBV?$PxMat44T@M@3@PEAIIAEA_N@Z 0000000180118cc0 f   GuBV4_SphereOverlap.obj
 0001:00117fe0       ?BV4_OverlapSphereAny@@YAHAEBVSphere@Gu@physx@@AEBVBV4Tree@23@PEIBV?$PxMat44T@M@3@@Z 0000000180118fe0 f   GuBV4_SphereOverlap.obj
 0001:001182c0       ?BV4_PointDistance@@YAXAEBV?$PxVec3T@M@physx@@AEBVBV4Tree@Gu@2@MAEAIAEAMAEAV12@@Z 00000001801192c0 f   GuBV4_SphereOverlap.obj
 0001:0011eb10       ?BV4_GenericSweepCB_Old@@YAXAEBV?$PxVec3T@M@physx@@00MAEBVBV4Tree@Gu@2@PEIBV?$PxMat44T@M@2@P6A_NPEAX000IAEAM@Z3@Z 000000018011fb10 f   GuBV4_SphereSweep.obj
 0001:0011ef30       ?BV4_SphereSweepSingle@@YAHAEBVSphere@Gu@physx@@AEBV?$PxVec3T@M@3@MAEBVBV4Tree@23@PEIBV?$PxMat44T@M@3@PEIAVSweepHit@23@I@Z 000000018011ff30 f   GuBV4_SphereSweep.obj
 0001:00120290       ?computeSweepData@physx@@YAMAEBVPxTriangleMeshGeometry@1@AEAV?$PxVec3T@M@1@11M@Z 0000000180121290 f i GuMidphaseBV4.obj
 0001:001205b0       ?distanceMeshVsMesh_BV4@Gu@physx@@YA_NAEAV?$PxReportCallback@UPxGeomIndexClosePair@physx@@@2@AEBVTriangleMesh@12@AEBV?$PxTransformT@M@2@AEBVPxMeshScale@2@123V?$PxFlags@W4Enum@PxMeshMeshQueryFlag@physx@@I@2@M@Z 00000001801215b0 f   GuMidphaseBV4.obj
 0001:00121ec0       ?intersectBoxVsMesh_BV4@Gu@physx@@YA_NAEBVBox@12@AEBVTriangleMesh@12@AEBV?$PxTransformT@M@2@AEBVPxMeshScale@2@PEAULimitedResults@12@@Z 0000000180122ec0 f   GuMidphaseBV4.obj
 0001:00122930       ?intersectCapsuleVsMesh_BV4@Gu@physx@@YA_NAEBVCapsule@12@AEBVTriangleMesh@12@AEBV?$PxTransformT@M@2@AEBVPxMeshScale@2@PEAULimitedResults@12@@Z 0000000180123930 f   GuMidphaseBV4.obj
 0001:00123180       ?intersectMeshVsMesh_BV4@Gu@physx@@YA_NAEAV?$PxReportCallback@UPxGeomIndexPair@physx@@@2@AEBVTriangleMesh@12@AEBV?$PxTransformT@M@2@AEBVPxMeshScale@2@123V?$PxFlags@W4Enum@PxMeshMeshQueryFlag@physx@@I@2@M@Z 0000000180124180 f   GuMidphaseBV4.obj
 0001:00123a10       ?intersectOBB_BV4@Gu@physx@@YAXPEBVTetrahedronMesh@12@AEBVBox@12@AEAU?$TetMeshHitCallback@UPxGeomRaycastHit@physx@@@12@@Z 0000000180124a10 f   GuMidphaseBV4.obj
 0001:00123a30       ?intersectOBB_BV4@Gu@physx@@YAXPEBVTriangleMesh@12@AEBVBox@12@AEAU?$MeshHitCallback@UPxGeomRaycastHit@physx@@@12@_N3@Z 0000000180124a30 f   GuMidphaseBV4.obj
 0001:00123a50       ?intersectSphereVsMesh_BV4@Gu@physx@@YA_NAEBVSphere@12@AEBVTriangleMesh@12@AEBV?$PxTransformT@M@2@AEBVPxMeshScale@2@PEAULimitedResults@12@@Z 0000000180124a50 f   GuMidphaseBV4.obj
 0001:00124190       ?pointMeshDistance_BV4@Gu@physx@@YAXPEBVTriangleMesh@12@AEBVPxTriangleMeshGeometry@2@AEBV?$PxTransformT@M@2@AEBV?$PxVec3T@M@2@MAEAIAEAMAEAV62@@Z 0000000180125190 f   GuMidphaseBV4.obj
 0001:00124830       ?raycast_triangleMesh_BV4@Gu@physx@@YAIPEBVTriangleMesh@12@AEBVPxTriangleMeshGeometry@2@AEBV?$PxTransformT@M@2@AEBV?$PxVec3T@M@2@3MV?$PxFlags@W4Enum@PxHitFlag@physx@@G@2@IPEIAUPxGeomRaycastHit@2@I@Z 0000000180125830 f   GuMidphaseBV4.obj
 0001:00125650       ?sweepBox_MeshGeom_BV4@Gu@physx@@YA_NPEBVTriangleMesh@12@AEBVPxTriangleMeshGeometry@2@AEBV?$PxTransformT@M@2@AEBVBox@12@AEBV?$PxVec3T@M@2@MAEAUPxGeomSweepHit@2@V?$PxFlags@W4Enum@PxHitFlag@physx@@G@2@M@Z 0000000180126650 f   GuMidphaseBV4.obj
 0001:00126c60       ?sweepCapsule_MeshGeom_BV4@Gu@physx@@YA_NPEBVTriangleMesh@12@AEBVPxTriangleMeshGeometry@2@AEBV?$PxTransformT@M@2@AEBVCapsule@12@AEBV?$PxVec3T@M@2@MAEAUPxGeomSweepHit@2@V?$PxFlags@W4Enum@PxHitFlag@physx@@G@2@M@Z 0000000180127c60 f   GuMidphaseBV4.obj
 0001:00127730       ?sweepConvex_MeshGeom_BV4@Gu@physx@@YAXPEBVTriangleMesh@12@AEBVBox@12@AEBV?$PxVec3T@M@2@MAEAUSweepConvexMeshHitCallback@12@_N@Z 0000000180128730 f   GuMidphaseBV4.obj
 0001:00127770       ?transform@PxMeshScale@physx@@QEBA?AV?$PxVec3T@M@2@AEBV32@@Z 0000000180128770 f i GuMidphaseBV4.obj
 0001:001279d0       ?findOverlapHeightField@PxMeshQuery@physx@@SAIAEBVPxGeometry@2@AEBV?$PxTransformT@M@2@AEBVPxHeightFieldGeometry@2@1PEAIIIAEA_NV?$PxFlags@W4Enum@PxGeometryQueryFlag@physx@@I@2@@Z 00000001801289d0 f   GuMeshQuery.obj
 0001:00128130       ?findOverlapTriangleMesh@PxMeshQuery@physx@@SAIAEBVPxGeometry@2@AEBV?$PxTransformT@M@2@AEBVPxTriangleMeshGeometry@2@1PEAIIIAEA_NV?$PxFlags@W4Enum@PxGeometryQueryFlag@physx@@I@2@@Z 0000000180129130 f   GuMeshQuery.obj
 0001:00128450       ?findOverlapTriangleMesh@PxMeshQuery@physx@@SA_NAEAV?$PxReportCallback@UPxGeomIndexClosePair@physx@@@2@AEBVPxTriangleMeshGeometry@2@AEBV?$PxTransformT@M@2@12V?$PxFlags@W4Enum@PxGeometryQueryFlag@physx@@I@2@V?$PxFlags@W4Enum@PxMeshMeshQueryFlag@physx@@I@2@M@Z 0000000180129450 f   GuMeshQuery.obj
 0001:00128580       ?findOverlapTriangleMesh@PxMeshQuery@physx@@SA_NAEAV?$PxReportCallback@UPxGeomIndexPair@physx@@@2@AEBVPxTriangleMeshGeometry@2@AEBV?$PxTransformT@M@2@12V?$PxFlags@W4Enum@PxGeometryQueryFlag@physx@@I@2@V?$PxFlags@W4Enum@PxMeshMeshQueryFlag@physx@@I@2@M@Z 0000000180129580 f   GuMeshQuery.obj
 0001:001286b0       ?getTriangle@PxMeshQuery@physx@@SAXAEBVPxHeightFieldGeometry@2@AEBV?$PxTransformT@M@2@IAEAVPxTriangle@2@PEAI3@Z 00000001801296b0 f   GuMeshQuery.obj
 0001:00128730       ?getTriangle@PxMeshQuery@physx@@SAXAEBVPxTriangleMeshGeometry@2@AEBV?$PxTransformT@M@2@IAEAVPxTriangle@2@PEAI3@Z 0000000180129730 f   GuMeshQuery.obj
 0001:00128c20       ?sweep@PxMeshQuery@physx@@SA_NAEBV?$PxVec3T@M@2@MAEBVPxGeometry@2@AEBV?$PxTransformT@M@2@IPEBVPxTriangle@2@AEAUPxGeomSweepHit@2@V?$PxFlags@W4Enum@PxHitFlag@physx@@G@2@PEBIM_NV?$PxFlags@W4Enum@PxGeometryQueryFlag@physx@@I@2@@Z 0000000180129c20 f   GuMeshQuery.obj
 0001:00129040       ??$collide@$00$00@MeshRayCollider@@SAXAEBV?$PxVec3T@M@physx@@0M_NPEBVRTreeTriangleMesh@Gu@2@AEAU?$MeshHitCallback@UPxGeomRaycastHit@physx@@@42@PEBV12@@Z 000000018012a040 f i GuMidphaseRTree.obj
 0001:001293b0       ??$collide@$00$0A@@MeshRayCollider@@SAXAEBV?$PxVec3T@M@physx@@0M_NPEBVRTreeTriangleMesh@Gu@2@AEAU?$MeshHitCallback@UPxGeomRaycastHit@physx@@@42@PEBV12@@Z 000000018012a3b0 f i GuMidphaseRTree.obj
 0001:001295f0       ??$collide@$0A@$00@MeshRayCollider@@SAXAEBV?$PxVec3T@M@physx@@0M_NPEBVRTreeTriangleMesh@Gu@2@AEAU?$MeshHitCallback@UPxGeomRaycastHit@physx@@@42@PEBV12@@Z 000000018012a5f0 f i GuMidphaseRTree.obj
 0001:0012b620       ??0?$RayRTreeCallback@$00$0A@@@QEAA@MAEAU?$MeshHitCallback@UPxGeomRaycastHit@physx@@@Gu@physx@@HPEBXPEBV?$PxVec3T@M@3@AEBV43@3M_N2@Z 000000018012c620 f i GuMidphaseRTree.obj
 0001:0012b740       ??1?$RayRTreeCallback@$00$00@@UEAA@XZ 000000018012c740 f i GuMidphaseRTree.obj
 0001:0012b7d0       ??1?$RayRTreeCallback@$00$0A@@@UEAA@XZ 000000018012c7d0 f i GuMidphaseRTree.obj
 0001:0012b7d0       ??1?$RayRTreeCallback@$0A@$0A@@@UEAA@XZ 000000018012c7d0 f i GuMidphaseRTree.obj
 0001:0012b860       ??1?$RayRTreeCallback@$0A@$00@@UEAA@XZ 000000018012c860 f i GuMidphaseRTree.obj
 0001:0012b8e8       ??_E?$RayRTreeCallback@$00$00@@W7EAAPEAXI@Z 000000018012c8e8 f i GuMidphaseRTree.obj
 0001:0012b8f4       ??_E?$RayRTreeCallback@$00$0A@@@W7EAAPEAXI@Z 000000018012c8f4 f i GuMidphaseRTree.obj
 0001:0012b8f4       ??_E?$RayRTreeCallback@$0A@$0A@@@W7EAAPEAXI@Z 000000018012c8f4 f i GuMidphaseRTree.obj
 0001:0012b900       ??_E?$RayRTreeCallback@$0A@$00@@W7EAAPEAXI@Z 000000018012c900 f i GuMidphaseRTree.obj
 0001:0012b970       ??_E?$RayRTreeCallback@$00$00@@UEAAPEAXI@Z 000000018012c970 f i GuMidphaseRTree.obj
 0001:0012b970       ??_G?$RayRTreeCallback@$00$00@@UEAAPEAXI@Z 000000018012c970 f i GuMidphaseRTree.obj
 0001:0012b9b0       ??_E?$RayRTreeCallback@$00$0A@@@UEAAPEAXI@Z 000000018012c9b0 f i GuMidphaseRTree.obj
 0001:0012b9b0       ??_E?$RayRTreeCallback@$0A@$0A@@@UEAAPEAXI@Z 000000018012c9b0 f i GuMidphaseRTree.obj
 0001:0012b9b0       ??_G?$RayRTreeCallback@$00$0A@@@UEAAPEAXI@Z 000000018012c9b0 f i GuMidphaseRTree.obj
 0001:0012b9b0       ??_G?$RayRTreeCallback@$0A@$0A@@@UEAAPEAXI@Z 000000018012c9b0 f i GuMidphaseRTree.obj
 0001:0012b9f0       ??_E?$RayRTreeCallback@$0A@$00@@UEAAPEAXI@Z 000000018012c9f0 f i GuMidphaseRTree.obj
 0001:0012b9f0       ??_G?$RayRTreeCallback@$0A@$00@@UEAAPEAXI@Z 000000018012c9f0 f i GuMidphaseRTree.obj
 0001:0012ba30       ??_ECallback@RTree@Gu@physx@@UEAAPEAXI@Z 000000018012ca30 f i GuMidphaseRTree.obj
 0001:0012ba30       ??_GCallback@RTree@Gu@physx@@UEAAPEAXI@Z 000000018012ca30 f i GuMidphaseRTree.obj
 0001:0012ba60       ??_ERayMeshColliderCallback@@UEAAPEAXI@Z 000000018012ca60 f i GuMidphaseRTree.obj
 0001:0012ba60       ??_ESweepCapsuleMeshHitCallback@Gu@physx@@UEAAPEAXI@Z 000000018012ca60 f i GuSweepsMesh.obj
 0001:0012ba60       ??_GRayMeshColliderCallback@@UEAAPEAXI@Z 000000018012ca60 f i GuMidphaseRTree.obj
 0001:0012ba60       ??_GSweepCapsuleMeshHitCallback@Gu@physx@@UEAAPEAXI@Z 000000018012ca60 f i GuSweepsMesh.obj
 0001:0012ba90       ?collideOBB@MeshRayCollider@@SAXAEBVBox@Gu@physx@@_NPEBVRTreeTriangleMesh@34@AEAU?$MeshHitCallback@UPxGeomRaycastHit@physx@@@34@1@Z 000000018012ca90 f   GuMidphaseRTree.obj
 0001:0012bf60       ?intersectBoxVsMesh_RTREE@Gu@physx@@YA_NAEBVBox@12@AEBVTriangleMesh@12@AEBV?$PxTransformT@M@2@AEBVPxMeshScale@2@PEAULimitedResults@12@@Z 000000018012cf60 f   GuMidphaseRTree.obj
 0001:0012bfd0       ?intersectCapsuleVsMesh_RTREE@Gu@physx@@YA_NAEBVCapsule@12@AEBVTriangleMesh@12@AEBV?$PxTransformT@M@2@AEBVPxMeshScale@2@PEAULimitedResults@12@@Z 000000018012cfd0 f   GuMidphaseRTree.obj
 0001:0012c050       ?intersectOBB_RTREE@Gu@physx@@YAXPEBVTriangleMesh@12@AEBVBox@12@AEAU?$MeshHitCallback@UPxGeomRaycastHit@physx@@@12@_N3@Z 000000018012d050 f   GuMidphaseRTree.obj
 0001:0012c080       ?intersectSphereVsMesh_RTREE@Gu@physx@@YA_NAEBVSphere@12@AEBVTriangleMesh@12@AEBV?$PxTransformT@M@2@AEBVPxMeshScale@2@PEAULimitedResults@12@@Z 000000018012d080 f   GuMidphaseRTree.obj
 0001:0012c340       ?pointMeshDistance_RTREE@Gu@physx@@YAXPEBVTriangleMesh@12@AEBVPxTriangleMeshGeometry@2@AEBV?$PxTransformT@M@2@AEBV?$PxVec3T@M@2@MAEAIAEAMAEAV62@@Z 000000018012d340 f   GuMidphaseRTree.obj
 0001:0012cfd0       ?processHit@RayMeshColliderCallback@@UEAA_NAEBUPxGeomRaycastHit@physx@@AEBV?$PxVec3T@M@3@11AEAMPEBI@Z 000000018012dfd0 f i GuMidphaseRTree.obj
 0001:0012d780       ?processResults@?$RayRTreeCallback@$00$00@@UEAA_NIPEAI@Z 000000018012e780 f i GuMidphaseRTree.obj
 0001:0012daf0       ?processResults@?$RayRTreeCallback@$00$00@@UEAA_NIPEAIAEAM@Z 000000018012eaf0 f i GuMidphaseRTree.obj
 0001:0012de50       ?processResults@?$RayRTreeCallback@$00$0A@@@UEAA_NIPEAI@Z 000000018012ee50 f i GuMidphaseRTree.obj
 0001:0012de50       ?processResults@?$RayRTreeCallback@$0A@$0A@@@UEAA_NIPEAI@Z 000000018012ee50 f i GuMidphaseRTree.obj
 0001:0012e0c0       ?processResults@?$RayRTreeCallback@$00$0A@@@UEAA_NIPEAIAEAM@Z 000000018012f0c0 f i GuMidphaseRTree.obj
 0001:0012e0c0       ?processResults@?$RayRTreeCallback@$0A@$0A@@@UEAA_NIPEAIAEAM@Z 000000018012f0c0 f i GuMidphaseRTree.obj
 0001:0012e330       ?processResults@?$RayRTreeCallback@$0A@$00@@UEAA_NIPEAI@Z 000000018012f330 f i GuMidphaseRTree.obj
 0001:0012e990       ?processResults@?$RayRTreeCallback@$0A@$00@@UEAA_NIPEAIAEAM@Z 000000018012f990 f i GuMidphaseRTree.obj
 0001:0012f000       ?raycast_triangleMesh_RTREE@Gu@physx@@YAIPEBVTriangleMesh@12@AEBVPxTriangleMeshGeometry@2@AEBV?$PxTransformT@M@2@AEBV?$PxVec3T@M@2@3MV?$PxFlags@W4Enum@PxHitFlag@physx@@G@2@IPEIAUPxGeomRaycastHit@2@I@Z 0000000180130000 f   GuMidphaseRTree.obj
 0001:0012f770       ?sweepBox_MeshGeom_RTREE@Gu@physx@@YA_NPEBVTriangleMesh@12@AEBVPxTriangleMeshGeometry@2@AEBV?$PxTransformT@M@2@AEBVBox@12@AEBV?$PxVec3T@M@2@MAEAUPxGeomSweepHit@2@V?$PxFlags@W4Enum@PxHitFlag@physx@@G@2@M@Z 0000000180130770 f   GuMidphaseRTree.obj
 0001:00130af0       ?sweepCapsule_MeshGeom_RTREE@Gu@physx@@YA_NPEBVTriangleMesh@12@AEBVPxTriangleMeshGeometry@2@AEBV?$PxTransformT@M@2@AEBVCapsule@12@AEBV?$PxVec3T@M@2@MAEAUPxGeomSweepHit@2@V?$PxFlags@W4Enum@PxHitFlag@physx@@G@2@M@Z 0000000180131af0 f   GuMidphaseRTree.obj
 0001:00131250       ?sweepConvex_MeshGeom_RTREE@Gu@physx@@YAXPEBVTriangleMesh@12@AEBVBox@12@AEBV?$PxVec3T@M@2@MAEAUSweepConvexMeshHitCallback@12@_N@Z 0000000180132250 f   GuMidphaseRTree.obj
 0001:00131c80       ??_EPxReportCallbackBase@physx@@UEAAPEAXI@Z 0000000180132c80 f i GuOverlapTestsMesh.obj
 0001:00131c80       ??_GPxReportCallbackBase@physx@@UEAAPEAXI@Z 0000000180132c80 f i GuOverlapTestsMesh.obj
 0001:00131cb0       ?GeomOverlapCallback_BoxMesh@@YA_NAEBVPxGeometry@physx@@AEBV?$PxTransformT@M@2@01PEAUTriggerCache@Gu@2@PEAUPxQueryThreadContext@2@@Z 0000000180132cb0 f   GuOverlapTestsMesh.obj
 0001:00131dc0       ?GeomOverlapCallback_CapsuleMesh@@YA_NAEBVPxGeometry@physx@@AEBV?$PxTransformT@M@2@01PEAUTriggerCache@Gu@2@PEAUPxQueryThreadContext@2@@Z 0000000180132dc0 f   GuOverlapTestsMesh.obj
 0001:00131ef0       ?GeomOverlapCallback_ConvexCoreMesh@@YA_NAEBVPxGeometry@physx@@AEBV?$PxTransformT@M@2@01PEAUTriggerCache@Gu@2@PEAUPxQueryThreadContext@2@@Z 0000000180132ef0 f   GuOverlapTestsMesh.obj
 0001:001324d0       ?GeomOverlapCallback_ConvexMesh@@YA_NAEBVPxGeometry@physx@@AEBV?$PxTransformT@M@2@01PEAUTriggerCache@Gu@2@PEAUPxQueryThreadContext@2@@Z 00000001801334d0 f   GuOverlapTestsMesh.obj
 0001:001329d0       ?GeomOverlapCallback_MeshMesh@@YA_NAEBVPxGeometry@physx@@AEBV?$PxTransformT@M@2@01PEAUTriggerCache@Gu@2@PEAUPxQueryThreadContext@2@@Z 00000001801339d0 f   GuOverlapTestsMesh.obj
 0001:00132aa0       ?GeomOverlapCallback_SphereMesh@@YA_NAEBVPxGeometry@physx@@AEBV?$PxTransformT@M@2@01PEAUTriggerCache@Gu@2@PEAUPxQueryThreadContext@2@@Z 0000000180133aa0 f   GuOverlapTestsMesh.obj
 0001:00132fc0       ??0RTree@Gu@physx@@QEAA@W4PxEMPTY@2@@Z 0000000180133fc0 f   GuRTree.obj
 0001:00132fd0       ?exportExtraData@RTree@Gu@physx@@QEAAXAEAVPxSerializationContext@3@@Z 0000000180133fd0 f   GuRTree.obj
 0001:00133010       ?importExtraData@RTree@Gu@physx@@QEAAXAEAVPxDeserializationContext@3@@Z 0000000180134010 f   GuRTree.obj
 0001:00133040       ?load@RTree@Gu@physx@@QEAA_NAEAVPxInputStream@3@I_N@Z 0000000180134040 f   GuRTree.obj
 0001:00133360       ?refitAllStaticTree@RTree@Gu@physx@@QEAAXAEAUCallbackRefit@123@PEAVPxBounds3@3@@Z 0000000180134360 f   GuRTree.obj
 0001:00133920       ?validate@RTree@Gu@physx@@QEAAXPEAUCallbackRefit@123@@Z 0000000180134920 f   GuRTree.obj
 0001:00133b60       ?validateRecursive@RTree@Gu@physx@@IEAAXIURTreeNodeQ@23@PEAURTreePage@23@PEAUCallbackRefit@123@@Z 0000000180134b60 f   GuRTree.obj
 0001:00133d20       ??$traverseRay@$00@RTree@Gu@physx@@QEBAXAEBV?$PxVec3T@M@2@0IPEAIPEAUCallbackRaycast@012@PEBV32@M@Z 0000000180134d20 f i GuRTreeQueries.obj
 0001:001340a0       ??$traverseRay@$0A@@RTree@Gu@physx@@QEBAXAEBV?$PxVec3T@M@2@0IPEAIPEAUCallbackRaycast@012@PEBV32@M@Z 00000001801350a0 f i GuRTreeQueries.obj
 0001:001343d0       ?traverseAABB@RTree@Gu@physx@@QEBAXAEBV?$PxVec3T@M@3@0IPEAIPEAUCallback@123@@Z 00000001801353d0 f   GuRTreeQueries.obj
 0001:001345b0       ?traverseOBB@RTree@Gu@physx@@QEBAXAEBVBox@23@IPEAIPEAUCallback@123@@Z 00000001801355b0 f   GuRTreeQueries.obj
 0001:00134e80       ??0SweepBoxMeshHitCallback@Gu@physx@@QEAA@W4Enum@CallbackMode@12@AEBVPxMat34Padded@2@M_NAEBVBox@12@AEBV?$PxVec3T@M@2@44AEBV?$PxFlags@W4Enum@PxHitFlag@physx@@G@2@M2M@Z 0000000180135e80 f   GuSweepsMesh.obj
 0001:00134f90       ??0SweepCapsuleMeshHitCallback@Gu@physx@@QEAA@AEAUPxGeomSweepHit@2@AEBV?$PxMat34T@M@2@M_NAEBVCapsule@12@AEBV?$PxVec3T@M@2@AEBV?$PxFlags@W4Enum@PxHitFlag@physx@@G@2@2M@Z 0000000180135f90 f   GuSweepsMesh.obj
 0001:00135060       ??0SweepConvexMeshHitCallback@Gu@physx@@QEAA@AEBUConvexHullData@12@AEBVPxMeshScale@2@AEBVFastVertex2ShapeScaling@Cm@2@AEBV?$PxTransformT@M@2@3AEBV?$PxVec3T@M@2@MV?$PxFlags@W4Enum@PxHitFlag@physx@@G@2@_NM6M@Z 0000000180136060 f   GuSweepsMesh.obj
 0001:001359c0       ??_ESweepBoxMeshHitCallback@Gu@physx@@UEAAPEAXI@Z 00000001801369c0 f i GuSweepsMesh.obj
 0001:001359c0       ??_GSweepBoxMeshHitCallback@Gu@physx@@UEAAPEAXI@Z 00000001801369c0 f i GuSweepsMesh.obj
 0001:001359f0       ??_ESweepConvexMeshHitCallback@Gu@physx@@UEAAPEAXI@Z 00000001801369f0 f i GuSweepsMesh.obj
 0001:001359f0       ??_GSweepConvexMeshHitCallback@Gu@physx@@UEAAPEAXI@Z 00000001801369f0 f i GuSweepsMesh.obj
 0001:00135a20       ??_ESweepShapeMeshHitCallback@Gu@physx@@UEAAPEAXI@Z 0000000180136a20 f i GuSweepsMesh.obj
 0001:00135a20       ??_GSweepShapeMeshHitCallback@Gu@physx@@UEAAPEAXI@Z 0000000180136a20 f i GuSweepsMesh.obj
 0001:00135a50       ?finalizeHit@SweepBoxMeshHitCallback@Gu@physx@@QEBA_NAEAUPxGeomSweepHit@3@AEBVPxTriangleMeshGeometry@3@AEBV?$PxTransformT@M@3@2AEBV?$PxVec3T@M@3@_N4@Z 0000000180136a50 f   GuSweepsMesh.obj
 0001:00136100       ?finalizeHit@SweepCapsuleMeshHitCallback@Gu@physx@@QEBA_NAEAUPxGeomSweepHit@3@AEBVCapsule@23@AEBVPxTriangleMeshGeometry@3@AEBV?$PxTransformT@M@3@_N@Z 0000000180137100 f   GuSweepsMesh.obj
 0001:001362b0       ?finalizeHit@SweepConvexMeshHitCallback@Gu@physx@@QEAA_NAEAUPxGeomSweepHit@3@AEBVPxTriangleMeshGeometry@3@AEBV?$PxTransformT@M@3@AEBVPxConvexMeshGeometry@3@2AEBV?$PxVec3T@M@3@M_N555@Z 00000001801372b0 f   GuSweepsMesh.obj
 0001:00136780       ?processHit@SweepBoxMeshHitCallback@Gu@physx@@UEAA_NAEBUPxGeomRaycastHit@3@AEBV?$PxVec3T@M@3@11AEAMPEBI@Z 0000000180137780 f   GuSweepsMesh.obj
 0001:00136f40       ?processHit@SweepCapsuleMeshHitCallback@Gu@physx@@UEAA_NAEBUPxGeomRaycastHit@3@AEBV?$PxVec3T@M@3@11AEAMPEBI@Z 0000000180137f40 f   GuSweepsMesh.obj
 0001:00137490       ?processHit@SweepConvexMeshHitCallback@Gu@physx@@UEAA_NAEBUPxGeomRaycastHit@3@AEBV?$PxVec3T@M@3@11AEAMPEBI@Z 0000000180138490 f   GuSweepsMesh.obj
 0001:00137be0       ?sweepBox_MeshGeom@@YA_NAEBVPxGeometry@physx@@AEBV?$PxTransformT@M@2@AEBVPxBoxGeometry@2@1AEBVBox@Gu@2@AEBV?$PxVec3T@M@2@MAEAUPxGeomSweepHit@2@V?$PxFlags@W4Enum@PxHitFlag@physx@@G@2@MPEAUPxQueryThreadContext@2@@Z 0000000180138be0 f   GuSweepsMesh.obj
 0001:00137c70       ?sweepCapsule_MeshGeom@@YA_NAEBVPxGeometry@physx@@AEBV?$PxTransformT@M@2@AEBVPxCapsuleGeometry@2@1AEBVCapsule@Gu@2@AEBV?$PxVec3T@M@2@MAEAUPxGeomSweepHit@2@V?$PxFlags@W4Enum@PxHitFlag@physx@@G@2@MPEAUPxQueryThreadContext@2@@Z 0000000180138c70 f   GuSweepsMesh.obj
 0001:00137d00       ?sweepConvex_MeshGeom@@YA_NAEBVPxGeometry@physx@@AEBV?$PxTransformT@M@2@AEBVPxConvexMeshGeometry@2@1AEBV?$PxVec3T@M@2@MAEAUPxGeomSweepHit@2@V?$PxFlags@W4Enum@PxHitFlag@physx@@G@2@MPEAUPxQueryThreadContext@2@@Z 0000000180138d00 f   GuSweepsMesh.obj
 0001:00138860       ??0TriangleMesh@Gu@physx@@QEAA@AEBUPxTriangleMeshInternalData@2@@Z 0000000180139860 f   GuTriangleMesh.obj
 0001:00138940       ??0TriangleMesh@Gu@physx@@QEAA@PEAVMeshFactory@12@AEAVTriangleMeshData@12@@Z 0000000180139940 f   GuTriangleMesh.obj
 0001:00138cc0       ??1TriangleMesh@Gu@physx@@UEAA@XZ 0000000180139cc0 f   GuTriangleMesh.obj
 0001:00138f50       ??_ETriangleMesh@Gu@physx@@UEAAPEAXI@Z 0000000180139f50 f i GuTriangleMesh.obj
 0001:00138f50       ??_GTriangleMesh@Gu@physx@@UEAAPEAXI@Z 0000000180139f50 f i GuTriangleMesh.obj
 0001:00138fc0       ?exportExtraData@TriangleMesh@Gu@physx@@UEAAXAEAVPxSerializationContext@3@@Z 0000000180139fc0 f   GuTriangleMesh.obj
 0001:00139240       ?getLocalBounds@TriangleMesh@Gu@physx@@UEBA?AVPxBounds3@3@XZ 000000018013a240 f i GuTriangleMesh.obj
 0001:001392c0       ?getMassInformation@TriangleMesh@Gu@physx@@UEBAXAEAMAEAV?$PxMat33T@M@3@AEAV?$PxVec3T@M@3@@Z 000000018013a2c0 f i GuTriangleMesh.obj
 0001:00139340       ?getNbTriangles@TriangleMesh@Gu@physx@@UEBAIXZ 000000018013a340 f i GuTriangleMesh.obj
 0001:00139350       ?getPreferSDFProjection@TriangleMesh@Gu@physx@@UEBA_NXZ 000000018013a350 f i GuTriangleMesh.obj
 0001:00139360       ?getSDF@TriangleMesh@Gu@physx@@UEBAPEBMXZ 000000018013a360 f i GuTriangleMesh.obj
 0001:00139370       ?getSDFDimensions@TriangleMesh@Gu@physx@@UEBAXAEAI00@Z 000000018013a370 f i GuTriangleMesh.obj
 0001:001393a0       ?getTriangleMaterialIndex@TriangleMesh@Gu@physx@@UEBAGI@Z 000000018013a3a0 f i GuTriangleMesh.obj
 0001:001393c0       ?getTriangleMeshFlags@TriangleMesh@Gu@physx@@UEBA?AV?$PxFlags@W4Enum@PxTriangleMeshFlag@physx@@E@3@XZ 000000018013a3c0 f i GuTriangleMesh.obj
 0001:001393d0       ?getTrianglesRemap@TriangleMesh@Gu@physx@@UEBAPEBIXZ 000000018013a3d0 f i GuTriangleMesh.obj
 0001:001393e0       ?getVerticesForModification@TriangleMesh@Gu@physx@@UEAAPEAV?$PxVec3T@M@3@XZ 000000018013a3e0 f   GuTriangleMesh.obj
 0001:00139420       ?importExtraData@TriangleMesh@Gu@physx@@QEAAXAEAVPxDeserializationContext@3@@Z 000000018013a420 f   GuTriangleMesh.obj
 0001:00139640       ?isKindOf@PxTriangleMesh@physx@@MEBA_NPEBD@Z 000000018013a640 f i GuTriangleMesh.obj
 0001:001396d0       ?onRefCountZero@TriangleMesh@Gu@physx@@UEAAXXZ 000000018013a6d0 f   GuTriangleMesh.obj
 0001:001397a0       ?refitBVH@TriangleMesh@Gu@physx@@UEAA?AVPxBounds3@3@XZ 000000018013a7a0 f   GuTriangleMesh.obj
 0001:00139860       ?requestEdgeList@TriangleMesh@Gu@physx@@QEBAPEBVEdgeList@23@XZ 000000018013a860 f   GuTriangleMesh.obj
 0001:00139950       ?setAllEdgesActive@TriangleMesh@Gu@physx@@QEAAXXZ 000000018013a950 f   GuTriangleMesh.obj
 0001:00139a40       ?setPreferSDFProjection@TriangleMesh@Gu@physx@@UEAAX_N@Z 000000018013aa40 f i GuTriangleMesh.obj
 0001:00139a70       ??0BV4TriangleMesh@Gu@physx@@QEAA@AEBUPxTriangleMeshInternalData@2@@Z 000000018013aa70 f   GuTriangleMeshBV4.obj
 0001:00139be0       ??0BV4TriangleMesh@Gu@physx@@QEAA@PEAVMeshFactory@12@AEAVTriangleMeshData@12@@Z 000000018013abe0 f   GuTriangleMeshBV4.obj
 0001:00139c70       ??_EBV4TriangleMesh@Gu@physx@@UEAAPEAXI@Z 000000018013ac70 f i GuTriangleMeshBV4.obj
 0001:00139c70       ??_GBV4TriangleMesh@Gu@physx@@UEAAPEAXI@Z 000000018013ac70 f i GuTriangleMeshBV4.obj
 0001:00139d00       ?createObject@BV4TriangleMesh@Gu@physx@@SAPEAVTriangleMesh@23@AEAPEAEAEAVPxDeserializationContext@3@@Z 000000018013ad00 f   GuTriangleMeshBV4.obj
 0001:00139de0       ?exportExtraData@BV4TriangleMesh@Gu@physx@@UEAAXAEAVPxSerializationContext@3@@Z 000000018013ade0 f   GuTriangleMeshBV4.obj
 0001:00139e20       ?getConcreteTypeName@BV4TriangleMesh@Gu@physx@@UEBAPEBDXZ 000000018013ae20 f i GuTriangleMeshBV4.obj
 0001:00139e30       ?getInternalData@BV4TriangleMesh@Gu@physx@@UEBA_NAEAUPxTriangleMeshInternalData@3@_N@Z 000000018013ae30 f   GuTriangleMeshBV4.obj
 0001:00139f20       ?getMidphaseID@BV4TriangleMesh@Gu@physx@@UEBA?AW4Enum@PxMeshMidPhase@3@XZ 000000018013af20 f i GuTriangleMeshBV4.obj
 0001:00139f20       ?getMidphaseID@BV4TriangleMeshBuilder@physx@@UEBA?AW4Enum@PxMeshMidPhase@2@XZ 000000018013af20 f i GuCookingTriangleMesh.obj
 0001:00139f20       ?length@charNode@@UEBAHXZ  000000018013af20 f i libvcruntime:undname.obj
 0001:00139f20       ?raw_length@charNode@@UEBAHXZ 000000018013af20 f i libvcruntime:undname.obj
 0001:00139f20       DllMain                    000000018013af20 f i LIBCMT:dll_dllmain_stub.obj
 0001:00139f20       _get_startup_argv_mode     000000018013af20 f i LIBCMT:argv_mode.obj
 0001:00139f30       ?getVerticesForModification@BV4TriangleMesh@Gu@physx@@UEAAPEAV?$PxVec3T@M@3@XZ 000000018013af30 f   GuTriangleMeshBV4.obj
 0001:00139f30       ?getVerticesForModification@RTreeTriangleMesh@Gu@physx@@UEAAPEAV?$PxVec3T@M@3@XZ 000000018013af30 f   GuTriangleMeshRTree.obj
 0001:00139f40       ?refitBVH@BV4TriangleMesh@Gu@physx@@UEAA?AVPxBounds3@3@XZ 000000018013af40 f   GuTriangleMeshBV4.obj
 0001:0013a0b0       PxGetTriangleMeshInternalData 000000018013b0b0 f   GuTriangleMeshBV4.obj
 0001:0013a0d0       ??0RTreeTriangleMesh@Gu@physx@@QEAA@PEAVMeshFactory@12@AEAVTriangleMeshData@12@@Z 000000018013b0d0 f   GuTriangleMeshRTree.obj
 0001:0013a240       ??_E?$RefitCallback@G@physx@@UEAAPEAXI@Z 000000018013b240 f i GuTriangleMeshRTree.obj
 0001:0013a240       ??_E?$RefitCallback@I@physx@@UEAAPEAXI@Z 000000018013b240 f i GuTriangleMeshRTree.obj
 0001:0013a240       ??_G?$RefitCallback@G@physx@@UEAAPEAXI@Z 000000018013b240 f i GuTriangleMeshRTree.obj
 0001:0013a240       ??_G?$RefitCallback@I@physx@@UEAAPEAXI@Z 000000018013b240 f i GuTriangleMeshRTree.obj
 0001:0013a270       ??_ERTreeTriangleMesh@Gu@physx@@UEAAPEAXI@Z 000000018013b270 f i GuTriangleMeshRTree.obj
 0001:0013a270       ??_GRTreeTriangleMesh@Gu@physx@@UEAAPEAXI@Z 000000018013b270 f i GuTriangleMeshRTree.obj
 0001:0013a330       ?createObject@RTreeTriangleMesh@Gu@physx@@SAPEAVTriangleMesh@23@AEAPEAEAEAVPxDeserializationContext@3@@Z 000000018013b330 f   GuTriangleMeshRTree.obj
 0001:0013a3b0       ?exportExtraData@RTreeTriangleMesh@Gu@physx@@UEAAXAEAVPxSerializationContext@3@@Z 000000018013b3b0 f   GuTriangleMeshRTree.obj
 0001:0013a3f0       ?getConcreteTypeName@RTreeTriangleMesh@Gu@physx@@UEBAPEBDXZ 000000018013b3f0 f i GuTriangleMeshRTree.obj
 0001:0013a400       ?recomputeBounds@?$RefitCallback@G@physx@@UEAAXIAEAT__m128@@0@Z 000000018013b400 f i GuTriangleMeshRTree.obj
 0001:0013a720       ?recomputeBounds@?$RefitCallback@I@physx@@UEAAXIAEAT__m128@@0@Z 000000018013b720 f i GuTriangleMeshRTree.obj
 0001:0013aa40       ?refitBVH@RTreeTriangleMesh@Gu@physx@@UEAA?AVPxBounds3@3@XZ 000000018013ba40 f   GuTriangleMeshRTree.obj
 0001:0013ab60       ??0BV32Tree@Gu@physx@@QEAA@W4PxEMPTY@2@@Z 000000018013bb60 f   GuBV32.obj
 0001:0013ab80       ??0BV32Tree@Gu@physx@@QEAA@XZ 000000018013bb80 f   GuBV32.obj
 0001:0013abb0       ??1BV32Tree@Gu@physx@@QEAA@XZ 000000018013bbb0 f   GuBV32.obj
 0001:0013abc0       ?createSOAformatNode@BV32Tree@Gu@physx@@QEAAXAEAUBV32DataPacked@23@AEBUBV32Data@23@IAEAI2@Z 000000018013bbc0 f   GuBV32.obj
 0001:0013aff0       ?exportExtraData@BV32Tree@Gu@physx@@QEAAXAEAVPxSerializationContext@3@@Z 000000018013bff0 f   GuBV32.obj
 0001:0013b030       ?importExtraData@BV32Tree@Gu@physx@@QEAAXAEAVPxDeserializationContext@3@@Z 000000018013c030 f   GuBV32.obj
 0001:0013b060       ?load@BV32Tree@Gu@physx@@QEAA_NAEAVPxInputStream@3@_N@Z 000000018013c060 f   GuBV32.obj
 0001:0013b3d0       ?release@BV32Tree@Gu@physx@@QEAAXXZ 000000018013c3d0 f   GuBV32.obj
 0001:0013b4a0       ??0BV32Node@@QEAA@XZ       000000018013c4a0 f i GuBV32Build.obj
 0001:0013b920       ?BuildBV32Ex@Gu@physx@@YA_NAEAVBV32Tree@12@AEAVSourceMeshBase@12@MI@Z 000000018013c920 f   GuBV32Build.obj
 0001:0013c920       ??0BVTetrahedronMesh@Gu@physx@@QEAA@AEAVTetrahedronMeshData@12@AEAVDeformableVolumeCollisionData@12@PEAVMeshFactory@12@@Z 000000018013d920 f   GuTetrahedronMesh.obj
 0001:0013cb80       ??0DeformableVolumeMesh@Gu@physx@@QEAA@PEAVMeshFactory@12@AEAVDeformableVolumeMeshData@12@@Z 000000018013db80 f   GuTetrahedronMesh.obj
 0001:0013cf30       ??0TetrahedronMesh@Gu@physx@@QEAA@PEAVMeshFactory@12@AEAVTetrahedronMeshData@12@@Z 000000018013df30 f   GuTetrahedronMesh.obj
 0001:0013d020       ??1DeformableVolumeAuxData@Gu@physx@@UEAA@XZ 000000018013e020 f   GuTetrahedronMesh.obj
 0001:0013d2d0       ??1TetrahedronMesh@Gu@physx@@UEAA@XZ 000000018013e2d0 f   GuTetrahedronMesh.obj
 0001:0013d380       ??_EBVTetrahedronMesh@Gu@physx@@UEAAPEAXI@Z 000000018013e380 f i GuTetrahedronMesh.obj
 0001:0013d380       ??_GBVTetrahedronMesh@Gu@physx@@UEAAPEAXI@Z 000000018013e380 f i GuTetrahedronMesh.obj
 0001:0013d520       ??_EDeformableVolumeAuxData@Gu@physx@@UEAAPEAXI@Z 000000018013e520 f i GuTetrahedronMesh.obj
 0001:0013d520       ??_GDeformableVolumeAuxData@Gu@physx@@UEAAPEAXI@Z 000000018013e520 f i GuTetrahedronMesh.obj
 0001:0013d590       ??_EDeformableVolumeMesh@Gu@physx@@UEAAPEAXI@Z 000000018013e590 f i GuTetrahedronMesh.obj
 0001:0013d590       ??_GDeformableVolumeMesh@Gu@physx@@UEAAPEAXI@Z 000000018013e590 f i GuTetrahedronMesh.obj
 0001:0013d660       ??_ETetrahedronMesh@Gu@physx@@UEAAPEAXI@Z 000000018013e660 f i GuTetrahedronMesh.obj
 0001:0013d660       ??_GTetrahedronMesh@Gu@physx@@UEAAPEAXI@Z 000000018013e660 f i GuTetrahedronMesh.obj
 0001:0013d6d0       ?exportExtraData@DeformableVolumeMesh@Gu@physx@@UEAAXAEAVPxSerializationContext@3@@Z 000000018013e6d0 f   GuTetrahedronMesh.obj
 0001:0013d7c0       ?getConcreteTypeName@DeformableVolumeAuxData@Gu@physx@@UEBAPEBDXZ 000000018013e7c0 f i GuTetrahedronMesh.obj
 0001:0013d7d0       ?getConcreteTypeName@DeformableVolumeMesh@Gu@physx@@UEBAPEBDXZ 000000018013e7d0 f i GuTetrahedronMesh.obj
 0001:0013d7e0       ?getConcreteTypeName@TetrahedronMesh@Gu@physx@@UEBAPEBDXZ 000000018013e7e0 f i GuTetrahedronMesh.obj
 0001:0013d7f0       ?getLocalBounds@TetrahedronMesh@Gu@physx@@UEBA?AVPxBounds3@3@XZ 000000018013e7f0 f i GuTetrahedronMesh.obj
 0001:0013d870       ?getNbTetrahedrons@TetrahedronMesh@Gu@physx@@UEBAIXZ 000000018013e870 f i GuTetrahedronMesh.obj
 0001:0013d880       ?getBounds@BVH@Gu@physx@@UEBAPEBVPxBounds3@3@XZ 000000018013e880 f i GuBVH.obj
 0001:0013d880       ?getTetrahedraRemap@BVTetrahedronMesh@Gu@physx@@UEBAPEBIXZ 000000018013e880 f i GuTetrahedronMesh.obj
 0001:0013d890       ?getTetrahedronMeshFlags@TetrahedronMesh@Gu@physx@@UEBA?AV?$PxFlags@W4Enum@PxTetrahedronMeshFlag@physx@@E@3@XZ 000000018013e890 f i GuTetrahedronMesh.obj
 0001:0013d8a0       ?getTetrahedrons@TetrahedronMesh@Gu@physx@@UEBAPEBXXZ 000000018013e8a0 f i GuTetrahedronMesh.obj
 0001:0013d8b0       ?isKindOf@PxDeformableVolumeAuxData@physx@@MEBA_NPEBD@Z 000000018013e8b0 f i GuTetrahedronMesh.obj
 0001:0013d940       ?isKindOf@PxDeformableVolumeMesh@physx@@MEBA_NPEBD@Z 000000018013e940 f i GuTetrahedronMesh.obj
 0001:0013d9d0       ?isKindOf@PxTetrahedronMesh@physx@@MEBA_NPEBD@Z 000000018013e9d0 f i GuTetrahedronMesh.obj
 0001:0013da60       ?onRefCountZero@DeformableVolumeAuxData@Gu@physx@@UEAAXXZ 000000018013ea60 f i GuTetrahedronMesh.obj
 0001:0013da60       ?release@SimulationTetrahedronMeshData@Gu@physx@@UEAAXXZ 000000018013ea60 f i GuCookingTetrahedronMesh.obj
 0001:0013da80       ?onRefCountZero@DeformableVolumeMesh@Gu@physx@@UEAAXXZ 000000018013ea80 f   GuTetrahedronMesh.obj
 0001:0013db30       ?onRefCountZero@TetrahedronMesh@Gu@physx@@UEAAXXZ 000000018013eb30 f   GuTetrahedronMesh.obj
 0001:0013dbe0       ?PxComputeBarycentric@physx@@YAXAEBV?$PxVec3T@M@1@0000AEAV?$PxVec4T@M@1@@Z 000000018013ebe0 f i GuTetrahedronMeshUtils.obj
 0001:0013dea0       ?addAxisToSimMeshBarycentric@Gu@physx@@YA?AV?$PxVec4T@M@2@AEBVPxTetrahedronMesh@2@IAEBV32@AEBV?$PxVec3T@M@2@@Z 000000018013eea0 f   GuTetrahedronMeshUtils.obj
 0001:0013e170       ?closestPtPointTetrahedron@Gu@physx@@YA?AV?$PxVec3T@M@2@AEBV32@0000@Z 000000018013f170 f i GuTetrahedronMeshUtils.obj
 0001:0013f250       ?convertDeformableVolumeCollisionToSimMeshTets@Gu@physx@@YAXAEBVPxTetrahedronMesh@2@AEBVDeformableVolumeAuxData@12@AEBVBVTetrahedronMesh@12@IAEBV?$PxVec4T@M@2@AEAIAEAV62@_N@Z 0000000180140250 f   GuTetrahedronMeshUtils.obj
 0001:00141bf0       ?pcmContactBoxBox@Gu@physx@@YA_NAEBVPxGeometry@2@0AEBUPxTransformPadded@2@1AEBUNarrowPhaseParams@12@AEAUCache@12@AEAVPxContactBuffer@2@PEAVPxRenderOutput@2@@Z 0000000180142bf0 f   GuPCMContactBoxBox.obj
 0001:00142a20       ??$gjkPenetration@U?$RelativeConvex@VBoxV@Gu@physx@@@Gu@physx@@U?$LocalConvex@VConvexHullNoScaleV@Gu@physx@@@23@@Gu@physx@@YA?AW4GjkStatus@01@AEBU?$RelativeConvex@VBoxV@Gu@physx@@@01@AEBU?$LocalConvex@VConvexHullNoScaleV@Gu@physx@@@01@AEBT__m128@@2_NPEIAE4AEAEAEAUGjkOutput@01@@Z 0000000180143a20 f i GuPCMContactBoxConvex.obj
 0001:00142a90       ??$gjkPenetration@U?$RelativeConvex@VBoxV@Gu@physx@@@Gu@physx@@U?$LocalConvex@VConvexHullNoScaleV@Gu@physx@@@23@@Gu@physx@@YA?AW4GjkStatus@01@AEBU?$RelativeConvex@VBoxV@Gu@physx@@@01@AEBU?$LocalConvex@VConvexHullNoScaleV@Gu@physx@@@01@AEBT__m128@@2_NPEIAE4PEIAT5@5AEAEAEAUGjkOutput@01@@Z 0000000180143a90 f i GuPCMContactBoxConvex.obj
 0001:00144ba0       ?pcmContactBoxConvex@Gu@physx@@YA_NAEBVPxGeometry@2@0AEBUPxTransformPadded@2@1AEBUNarrowPhaseParams@12@AEAUCache@12@AEAVPxContactBuffer@2@PEAVPxRenderOutput@2@@Z 0000000180145ba0 f   GuPCMContactBoxConvex.obj
 0001:001459b0       ?support@?$LocalConvex@VConvexHullNoScaleV@Gu@physx@@@Gu@physx@@UEBA?AT__m128@@AEBT4@@Z 00000001801469b0 f i GuPCMContactBoxConvex.obj
 0001:00145a00       ?support@?$LocalConvex@VConvexHullNoScaleV@Gu@physx@@@Gu@physx@@UEBA?AT__m128@@AEBT4@AEAH@Z 0000000180146a00 f i GuPCMContactBoxConvex.obj
 0001:00145a60       ?supportPoint@?$LocalConvex@VConvexHullNoScaleV@Gu@physx@@@Gu@physx@@UEBA?AT__m128@@H@Z 0000000180146a60 f i GuPCMContactBoxConvex.obj
 0001:00145a90       ?pcmContactCapsuleBox@Gu@physx@@YA_NAEBVPxGeometry@2@0AEBUPxTransformPadded@2@1AEBUNarrowPhaseParams@12@AEAUCache@12@AEAVPxContactBuffer@2@PEAVPxRenderOutput@2@@Z 0000000180146a90 f   GuPCMContactCapsuleBox.obj
 0001:00146930       ?pcmContactCapsuleCapsule@Gu@physx@@YA_NAEBVPxGeometry@2@0AEBUPxTransformPadded@2@1AEBUNarrowPhaseParams@12@AEAUCache@12@AEAVPxContactBuffer@2@PEAVPxRenderOutput@2@@Z 0000000180147930 f   GuPCMContactCapsuleCapsule.obj
 0001:001470f0       ??$gjkPenetration@U?$LocalConvex@VCapsuleV@Gu@physx@@@Gu@physx@@U?$LocalConvex@VConvexHullNoScaleV@Gu@physx@@@23@@Gu@physx@@YA?AW4GjkStatus@01@AEBU?$LocalConvex@VCapsuleV@Gu@physx@@@01@AEBU?$LocalConvex@VConvexHullNoScaleV@Gu@physx@@@01@AEBT__m128@@2_NPEIAE4AEAEAEAUGjkOutput@01@@Z 00000001801480f0 f i GuPCMContactCapsuleConvex.obj
 0001:00147160       ??$gjkPenetration@U?$LocalConvex@VCapsuleV@Gu@physx@@@Gu@physx@@U?$LocalConvex@VConvexHullNoScaleV@Gu@physx@@@23@@Gu@physx@@YA?AW4GjkStatus@01@AEBU?$LocalConvex@VCapsuleV@Gu@physx@@@01@AEBU?$LocalConvex@VConvexHullNoScaleV@Gu@physx@@@01@AEBT__m128@@2_NPEIAE4PEIAT5@5AEAEAEAUGjkOutput@01@@Z 0000000180148160 f i GuPCMContactCapsuleConvex.obj
 0001:00148dd0       ?pcmContactCapsuleConvex@Gu@physx@@YA_NAEBVPxGeometry@2@0AEBUPxTransformPadded@2@1AEBUNarrowPhaseParams@12@AEAUCache@12@AEAVPxContactBuffer@2@PEAVPxRenderOutput@2@@Z 0000000180149dd0 f   GuPCMContactCapsuleConvex.obj
 0001:00149fe0       ??_EPCMCapsuleVsHeightfieldContactGenerationCallback@@UEAAPEAXI@Z 000000018014afe0 f i GuPCMContactCapsuleHeightField.obj
 0001:00149fe0       ??_GPCMCapsuleVsHeightfieldContactGenerationCallback@@UEAAPEAXI@Z 000000018014afe0 f i GuPCMContactCapsuleHeightField.obj
 0001:0014a010       ?pcmContactCapsuleHeightField@Gu@physx@@YA_NAEBVPxGeometry@2@0AEBUPxTransformPadded@2@1AEBUNarrowPhaseParams@12@AEAUCache@12@AEAVPxContactBuffer@2@PEAVPxRenderOutput@2@@Z 000000018014b010 f   GuPCMContactCapsuleHeightField.obj
 0001:0014aef0       ?reportTouchedTris@?$PCMHeightfieldContactGenerationCallback@UPCMCapsuleVsHeightfieldContactGenerationCallback@@@Gu@physx@@UEAA_NIPEBI@Z 000000018014bef0 f i GuPCMContactCapsuleHeightField.obj
 0001:0014b540       ?generateContacts@PCMCapsuleVsMeshContactGeneration@Gu@physx@@SAXAEBT__m128@@0000I000PEAVMeshPersistentContact@23@AEAI@Z 000000018014c540 f   GuPCMContactCapsuleMesh.obj
 0001:0014b980       ?generateEE@PCMCapsuleVsMeshContactGeneration@Gu@physx@@QEAAXAEBT__m128@@000I00PEAVMeshPersistentContact@23@AEAI@Z 000000018014c980 f   GuPCMContactCapsuleMesh.obj
 0001:0014bbf0       ?generateEEMTD@PCMCapsuleVsMeshContactGeneration@Gu@physx@@SAXAEBT__m128@@000I00PEAVMeshPersistentContact@23@AEAI@Z 000000018014cbf0 f   GuPCMContactCapsuleMesh.obj
 0001:0014be20       ?pcmContactCapsuleMesh@Gu@physx@@YA_NAEBVPxGeometry@2@0AEBUPxTransformPadded@2@1AEBUNarrowPhaseParams@12@AEAUCache@12@AEAVPxContactBuffer@2@PEAVPxRenderOutput@2@@Z 000000018014ce20 f   GuPCMContactCapsuleMesh.obj
 0001:0014d690       ?pcmDistanceSegmentTriangleSquaredExported@@YA?AT__m128@@AEBT1@0000AEAT1@11@Z 000000018014e690 f   GuPCMContactCapsuleMesh.obj
 0001:0014dad0       ?processTriangle@PCMCapsuleVsMeshContactGeneration@Gu@physx@@QEAA_NPEBV?$PxVec3T@M@3@IEPEBI@Z 000000018014ead0 f   GuPCMContactCapsuleMesh.obj
 0001:0014e6a0       ?processTriangle@PCMCapsuleVsMeshContactGeneration@Gu@physx@@SA_NAEBVTriangleV@23@IAEBVCapsuleV@23@AEBT__m128@@EPEAVMeshPersistentContact@23@AEAI@Z 000000018014f6a0 f   GuPCMContactCapsuleMesh.obj
 0001:0014e9b0       ?addContactsToPatch@PCMConvexVsMeshContactGeneration@Gu@physx@@QEAAXAEBT__m128@@I@Z 000000018014f9b0 f   GuPCMContactConvexCommon.obj
 0001:0014f2d0       ?doSupport@?$SupportLocalImpl@VTriangleV@Gu@physx@@@Gu@physx@@UEBA?AT__m128@@AEBT4@@Z 00000001801502d0 f i GuPCMContactConvexCommon.obj
 0001:0014f360       ?doSupport@?$SupportLocalImpl@VTriangleV@Gu@physx@@@Gu@physx@@UEBAXAEBT__m128@@AEAT4@1@Z 0000000180150360 f i GuPCMContactConvexCommon.obj
 0001:0014f3d0       ?generateLastContacts@PCMConvexVsMeshContactGeneration@Gu@physx@@QEAAXXZ 00000001801503d0 f   GuPCMContactConvexCommon.obj
 0001:0014f880       ?get@?$CacheMap@UCachedEdge@Gu@physx@@$0IA@@Gu@physx@@QEBAPEBUCachedEdge@23@AEBU423@@Z 0000000180150880 f i GuPCMContactConvexCommon.obj
 0001:0014f900       ?populateVerts@?$SupportLocalImpl@VTriangleV@Gu@physx@@@Gu@physx@@UEBAXPEBEIPEBV?$PxVec3T@M@3@PEAT__m128@@@Z 0000000180150900 f i GuPCMContactConvexCommon.obj
 0001:0014fa40       ?processTriangle@PCMConvexVsMeshContactGeneration@Gu@physx@@QEAA_NPEBV?$PxVec3T@M@3@IEPEBI@Z 0000000180150a40 f   GuPCMContactConvexCommon.obj
 0001:0014fe60       ?processTriangle@PCMConvexVsMeshContactGeneration@Gu@physx@@SA_NAEBUPolygonalData@23@PEBVSupportLocal@23@PEBV?$PxVec3T@M@3@IEAEBT__m128@@_NAEBVPxTransformV@aos@3@AEBVPxMatTransformV@93@PEAVMeshPersistentContact@23@AEAI@Z 0000000180150e60 f   GuPCMContactConvexCommon.obj
 0001:00150100       ??$gjkPenetration@U?$RelativeConvex@VConvexHullNoScaleV@Gu@physx@@@Gu@physx@@U?$LocalConvex@VConvexHullNoScaleV@Gu@physx@@@23@@Gu@physx@@YA?AW4GjkStatus@01@AEBU?$RelativeConvex@VConvexHullNoScaleV@Gu@physx@@@01@AEBU?$LocalConvex@VConvexHullNoScaleV@Gu@physx@@@01@AEBT__m128@@2_NPEIAE4AEAEAEAUGjkOutput@01@@Z 0000000180151100 f i GuPCMContactConvexConvex.obj
 0001:00150170       ??$gjkPenetration@U?$RelativeConvex@VConvexHullNoScaleV@Gu@physx@@@Gu@physx@@U?$LocalConvex@VConvexHullNoScaleV@Gu@physx@@@23@@Gu@physx@@YA?AW4GjkStatus@01@AEBU?$RelativeConvex@VConvexHullNoScaleV@Gu@physx@@@01@AEBU?$LocalConvex@VConvexHullNoScaleV@Gu@physx@@@01@AEBT__m128@@2_NPEIAE4PEIAT5@5AEAEAEAUGjkOutput@01@@Z 0000000180151170 f i GuPCMContactConvexConvex.obj
 0001:00151c20       ??$gjkPenetration@U?$RelativeConvex@VConvexHullNoScaleV@Gu@physx@@@Gu@physx@@U?$LocalConvex@VConvexHullV@Gu@physx@@@23@@Gu@physx@@YA?AW4GjkStatus@01@AEBU?$RelativeConvex@VConvexHullNoScaleV@Gu@physx@@@01@AEBU?$LocalConvex@VConvexHullV@Gu@physx@@@01@AEBT__m128@@2_NPEIAE4AEAEAEAUGjkOutput@01@@Z 0000000180152c20 f i GuPCMContactConvexConvex.obj
 0001:00151c90       ??$gjkPenetration@U?$RelativeConvex@VConvexHullNoScaleV@Gu@physx@@@Gu@physx@@U?$LocalConvex@VConvexHullV@Gu@physx@@@23@@Gu@physx@@YA?AW4GjkStatus@01@AEBU?$RelativeConvex@VConvexHullNoScaleV@Gu@physx@@@01@AEBU?$LocalConvex@VConvexHullV@Gu@physx@@@01@AEBT__m128@@2_NPEIAE4PEIAT5@5AEAEAEAUGjkOutput@01@@Z 0000000180152c90 f i GuPCMContactConvexConvex.obj
 0001:001537e0       ??$gjkPenetration@U?$RelativeConvex@VConvexHullV@Gu@physx@@@Gu@physx@@U?$LocalConvex@VConvexHullNoScaleV@Gu@physx@@@23@@Gu@physx@@YA?AW4GjkStatus@01@AEBU?$RelativeConvex@VConvexHullV@Gu@physx@@@01@AEBU?$LocalConvex@VConvexHullNoScaleV@Gu@physx@@@01@AEBT__m128@@2_NPEIAE4AEAEAEAUGjkOutput@01@@Z 00000001801547e0 f i GuPCMContactConvexConvex.obj
 0001:00153850       ??$gjkPenetration@U?$RelativeConvex@VConvexHullV@Gu@physx@@@Gu@physx@@U?$LocalConvex@VConvexHullNoScaleV@Gu@physx@@@23@@Gu@physx@@YA?AW4GjkStatus@01@AEBU?$RelativeConvex@VConvexHullV@Gu@physx@@@01@AEBU?$LocalConvex@VConvexHullNoScaleV@Gu@physx@@@01@AEBT__m128@@2_NPEIAE4PEIAT5@5AEAEAEAUGjkOutput@01@@Z 0000000180154850 f i GuPCMContactConvexConvex.obj
 0001:00155da0       ?pcmContactConvexConvex@Gu@physx@@YA_NAEBVPxGeometry@2@0AEBUPxTransformPadded@2@1AEBUNarrowPhaseParams@12@AEAUCache@12@AEAVPxContactBuffer@2@PEAVPxRenderOutput@2@@Z 0000000180156da0 f   GuPCMContactConvexConvex.obj
 0001:00156ed0       ?support@?$RelativeConvex@VConvexHullNoScaleV@Gu@physx@@@Gu@physx@@UEBA?AT__m128@@AEBT4@@Z 0000000180157ed0 f i GuPCMContactConvexConvex.obj
 0001:00156f80       ?support@?$RelativeConvex@VConvexHullNoScaleV@Gu@physx@@@Gu@physx@@UEBA?AT__m128@@AEBT4@AEAH@Z 0000000180157f80 f i GuPCMContactConvexConvex.obj
 0001:00157040       ?supportPoint@?$RelativeConvex@VConvexHullNoScaleV@Gu@physx@@@Gu@physx@@UEBA?AT__m128@@H@Z 0000000180158040 f i GuPCMContactConvexConvex.obj
 0001:001570d0       ?PCMContactConvexHeightfield@Gu@physx@@YA_NAEBUPolygonalData@12@PEBVSupportLocal@12@AEBT__m128@@AEBVPxBounds3@2@AEBVPxHeightFieldGeometry@2@AEBV?$PxTransformT@M@2@5MAEAVPxContactBuffer@2@AEBVFastVertex2ShapeScaling@Cm@2@_NAEAVMultiplePersistentContactManifold@12@PEAVPxRenderOutput@2@@Z 00000001801580d0 f   GuPCMContactConvexHeightField.obj
 0001:00157f30       ?pcmContactBoxHeightField@Gu@physx@@YA_NAEBVPxGeometry@2@0AEBUPxTransformPadded@2@1AEBUNarrowPhaseParams@12@AEAUCache@12@AEAVPxContactBuffer@2@PEAVPxRenderOutput@2@@Z 0000000180158f30 f   GuPCMContactConvexHeightField.obj
 0001:001581d0       ?pcmContactConvexHeightField@Gu@physx@@YA_NAEBVPxGeometry@2@0AEBUPxTransformPadded@2@1AEBUNarrowPhaseParams@12@AEAUCache@12@AEAVPxContactBuffer@2@PEAVPxRenderOutput@2@@Z 00000001801591d0 f   GuPCMContactConvexHeightField.obj
 0001:00158ea0       ?PCMContactConvexMesh@Gu@physx@@YA_NAEBUPolygonalData@12@PEBVSupportLocal@12@AEBT__m128@@AEBVPxBounds3@2@AEBVPxTriangleMeshGeometry@2@AEBV?$PxTransformT@M@2@5MAEAVPxContactBuffer@2@AEBVFastVertex2ShapeScaling@Cm@2@7_N8AEAVMultiplePersistentContactManifold@12@PEAVPxRenderOutput@2@@Z 0000000180159ea0 f   GuPCMContactConvexMesh.obj
 0001:001599c0       ?pcmContactBoxMesh@Gu@physx@@YA_NAEBVPxGeometry@2@0AEBUPxTransformPadded@2@1AEBUNarrowPhaseParams@12@AEAUCache@12@AEAVPxContactBuffer@2@PEAVPxRenderOutput@2@@Z 000000018015a9c0 f   GuPCMContactConvexMesh.obj
 0001:00159cf0       ?pcmContactConvexMesh@Gu@physx@@YA_NAEBVPxGeometry@2@0AEBUPxTransformPadded@2@1AEBUNarrowPhaseParams@12@AEAUCache@12@AEAVPxContactBuffer@2@PEAVPxRenderOutput@2@@Z 000000018015acf0 f   GuPCMContactConvexMesh.obj
 0001:0015a890       ?addGJKEPAContacts@Gu@physx@@YA_NPEBUGjkConvex@12@0AEBVPxMatTransformV@aos@2@W4GjkStatus@12@PEAVPersistentContact@12@T__m128@@4AEAUGjkOutput@12@AEAVPersistentContactManifold@12@@Z 000000018015b890 f   GuPCMContactGenBoxConvex.obj
 0001:0015ad50       ?computeMTD@Gu@physx@@YA_NAEBUPolygonalData@12@0PEBVSupportLocal@12@1AEAT__m128@@2@Z 000000018015bd50 f   GuPCMContactGenBoxConvex.obj
 0001:0015b380       ?generateFullContactManifold@Gu@physx@@YA_NAEBUPolygonalData@12@0PEBVSupportLocal@12@1PEAVPersistentContact@12@AEAIAEBT__m128@@444MM_NPEAVPxRenderOutput@2@M@Z 000000018015c380 f   GuPCMContactGenBoxConvex.obj
 0001:0015d340       ?computeMTD@Gu@physx@@YA_NAEBVCapsuleV@12@AEBUPolygonalData@12@PEBVSupportLocal@12@AEAT__m128@@3@Z 000000018015e340 f   GuPCMContactGenSphereCapsule.obj
 0001:0015d430       ?generateCapsuleBoxFullContactManifold@Gu@physx@@YA_NAEBVCapsuleV@12@AEBUPolygonalData@12@PEBVSupportLocal@12@AEBVPxMatTransformV@aos@2@PEAVPersistentContact@12@AEAIAEBT__m128@@AEAT9@6M_NMPEAVPxRenderOutput@2@@Z 000000018015e430 f   GuPCMContactGenSphereCapsule.obj
 0001:0015d5d0       ?generateFullContactManifold@Gu@physx@@YA_NAEBVCapsuleV@12@AEBUPolygonalData@12@PEBVSupportLocal@12@AEBVPxMatTransformV@aos@2@PEAVPersistentContact@12@AEAIAEBT__m128@@AEAT9@6M_NM@Z 000000018015e5d0 f   GuPCMContactGenSphereCapsule.obj
 0001:0015d7c0       ?generateSphereFullContactManifold@Gu@physx@@YA_NAEBVCapsuleV@12@AEBUPolygonalData@12@PEBVSupportLocal@12@PEAVPersistentContact@12@AEAIAEBT__m128@@AEAT7@_N@Z 000000018015e7c0 f   GuPCMContactGenSphereCapsule.obj
 0001:0015ed00       ?pcmContactPlaneBox@Gu@physx@@YA_NAEBVPxGeometry@2@0AEBUPxTransformPadded@2@1AEBUNarrowPhaseParams@12@AEAUCache@12@AEAVPxContactBuffer@2@PEAVPxRenderOutput@2@@Z 000000018015fd00 f   GuPCMContactPlaneBox.obj
 0001:0015f850       ?pcmContactPlaneCapsule@Gu@physx@@YA_NAEBVPxGeometry@2@0AEBUPxTransformPadded@2@1AEBUNarrowPhaseParams@12@AEAUCache@12@AEAVPxContactBuffer@2@PEAVPxRenderOutput@2@@Z 0000000180160850 f   GuPCMContactPlaneCapsule.obj
 0001:0015ffc0       ?pcmContactPlaneConvex@Gu@physx@@YA_NAEBVPxGeometry@2@0AEBUPxTransformPadded@2@1AEBUNarrowPhaseParams@12@AEAUCache@12@AEAVPxContactBuffer@2@PEAVPxRenderOutput@2@@Z 0000000180160fc0 f   GuPCMContactPlaneConvex.obj
 0001:00160c00       ?pcmContactSphereBox@Gu@physx@@YA_NAEBVPxGeometry@2@0AEBUPxTransformPadded@2@1AEBUNarrowPhaseParams@12@AEAUCache@12@AEAVPxContactBuffer@2@PEAVPxRenderOutput@2@@Z 0000000180161c00 f   GuPCMContactSphereBox.obj
 0001:00161060       ?pcmContactSphereCapsule@Gu@physx@@YA_NAEBVPxGeometry@2@0AEBUPxTransformPadded@2@1AEBUNarrowPhaseParams@12@AEAUCache@12@AEAVPxContactBuffer@2@PEAVPxRenderOutput@2@@Z 0000000180162060 f   GuPCMContactSphereCapsule.obj
 0001:001614d0       ?pcmContactSphereConvex@Gu@physx@@YA_NAEBVPxGeometry@2@0AEBUPxTransformPadded@2@1AEBUNarrowPhaseParams@12@AEAUCache@12@AEAVPxContactBuffer@2@PEAVPxRenderOutput@2@@Z 00000001801624d0 f   GuPCMContactSphereConvex.obj
 0001:001621b0       ??1?$PxArray@USortedTriangle@Gu@physx@@V?$PxInlineAllocator@$0IAA@V?$PxReflectionAllocator@USortedTriangle@Gu@physx@@@physx@@@3@@physx@@QEAA@XZ 00000001801631b0 f i GuPCMContactSphereHeightField.obj
 0001:00162270       ?pcmContactSphereHeightField@Gu@physx@@YA_NAEBVPxGeometry@2@0AEBUPxTransformPadded@2@1AEBUNarrowPhaseParams@12@AEAUCache@12@AEAVPxContactBuffer@2@PEAVPxRenderOutput@2@@Z 0000000180163270 f   GuPCMContactSphereHeightField.obj
 0001:001632f0       ??$PxSort@USortedTriangle@Gu@physx@@U?$PxLess@USortedTriangle@Gu@physx@@@3@V?$PxReflectionAllocator@USortedTriangle@Gu@physx@@@3@@physx@@YAXPEAUSortedTriangle@Gu@0@IAEBU?$PxLess@USortedTriangle@Gu@physx@@@0@AEBV?$PxReflectionAllocator@USortedTriangle@Gu@physx@@@0@I@Z 00000001801642f0 f i GuPCMContactSphereMesh.obj
 0001:00163870       ??$processTriangleCache@$0BA@VPCMSphereVsMeshContactGeneration@Gu@physx@@@PCMMeshContactGeneration@Gu@physx@@QEAA_NAEAU?$TriangleCache@$0BA@@12@@Z 0000000180164870 f i GuPCMContactSphereMesh.obj
 0001:00163d30       ?addToPatch@PCMSphereVsMeshContactGeneration@Gu@physx@@QEAAXAEBT__m128@@0T4@I@Z 0000000180164d30 f   GuPCMContactSphereMesh.obj
 0001:001643f0       ?allocate@?$PxArray@IV?$PxInlineAllocator@$0PAA@V?$PxReflectionAllocator@I@physx@@@physx@@@physx@@IEAAPEAIIPEAI@Z 00000001801653f0 f i GuPCMContactSphereMesh.obj
 0001:001644b0       ?allocate@?$PxArray@USortedTriangle@Gu@physx@@V?$PxInlineAllocator@$0IAA@V?$PxReflectionAllocator@USortedTriangle@Gu@physx@@@physx@@@3@@physx@@IEAAPEAUSortedTriangle@Gu@2@IPEAI@Z 00000001801654b0 f i GuPCMContactSphereMesh.obj
 0001:00164570       ?generateLastContacts@PCMSphereVsMeshContactGeneration@Gu@physx@@QEAAXXZ 0000000180165570 f   GuPCMContactSphereMesh.obj
 0001:00164b90       ?growAndPushBack@?$PxArray@USortedTriangle@Gu@physx@@V?$PxInlineAllocator@$0IAA@V?$PxReflectionAllocator@USortedTriangle@Gu@physx@@@physx@@@3@@physx@@IEAAAEAUSortedTriangle@Gu@2@AEBU342@@Z 0000000180165b90 f i GuPCMContactSphereMesh.obj
 0001:00164cb0       ?pcmContactSphereMesh@Gu@physx@@YA_NAEBVPxGeometry@2@0AEBUPxTransformPadded@2@1AEBUNarrowPhaseParams@12@AEAUCache@12@AEAVPxContactBuffer@2@PEAVPxRenderOutput@2@@Z 0000000180165cb0 f   GuPCMContactSphereMesh.obj
 0001:001667e0       ?processTriangle@PCMSphereVsMeshContactGeneration@Gu@physx@@QEAA_NPEBV?$PxVec3T@M@3@IEPEBI@Z 00000001801677e0 f   GuPCMContactSphereMesh.obj
 0001:00166bd0       ?recreate@?$PxArray@IV?$PxInlineAllocator@$0PAA@V?$PxReflectionAllocator@I@physx@@@physx@@@physx@@IEAAXI@Z 0000000180167bd0 f i GuPCMContactSphereMesh.obj
 0001:00166ca0       ?pcmContactSpherePlane@Gu@physx@@YA_NAEBVPxGeometry@2@0AEBUPxTransformPadded@2@1AEBUNarrowPhaseParams@12@AEAUCache@12@AEAVPxContactBuffer@2@PEAVPxRenderOutput@2@@Z 0000000180167ca0 f   GuPCMContactSpherePlane.obj
 0001:00166e20       ?pcmContactSphereSphere@Gu@physx@@YA_NAEBVPxGeometry@2@0AEBUPxTransformPadded@2@1AEBUNarrowPhaseParams@12@AEAUCache@12@AEAVPxContactBuffer@2@PEAVPxRenderOutput@2@@Z 0000000180167e20 f   GuPCMContactSphereSphere.obj
 0001:00167690       ?pcmContactGeometryCustomGeometry@Gu@physx@@YA_NAEBVPxGeometry@2@0AEBUPxTransformPadded@2@1AEBUNarrowPhaseParams@12@AEAUCache@12@AEAVPxContactBuffer@2@PEAVPxRenderOutput@2@@Z 0000000180168690 f   GuPCMContactCustomGeometry.obj
 0001:00167740       ?getPCMConvexData@Gu@physx@@YAXAEBVConvexHullV@12@_NAEAUPolygonalData@12@@Z 0000000180168740 f   GuPCMShapeConvex.obj
 0001:001678e0       ?getPCMConvexData@Gu@physx@@YA_NAEBVPxConvexMeshGeometry@2@AEAVFastVertex2ShapeScaling@Cm@2@AEAVPxBounds3@2@AEAUPolygonalData@12@@Z 00000001801688e0 f   GuPCMShapeConvex.obj
 0001:00167cb0       ?getPolygonalData@PCMPolygonalBox@Gu@physx@@QEBAXPEIAUPolygonalData@23@@Z 0000000180168cb0 f   GuPCMShapeConvex.obj
 0001:00167d30       ?generatePolyDataContactManifold@PCMConvexVsMeshContactGeneration@Gu@physx@@QEAA_NAEBVTriangleV@23@IIEPEAVMeshPersistentContact@23@AEAIAEBT__m128@@AEAT6@@Z 0000000180168d30 f   GuPCMTriangleContactGen.obj
 0001:00167e40       ?generateTriangleFullContactManifold@PCMConvexVsMeshContactGeneration@Gu@physx@@QEAA_NAEBVTriangleV@23@IPEBIEAEBUPolygonalData@23@PEBV?$SupportLocalImpl@VTriangleV@Gu@physx@@@23@PEBVSupportLocal@23@PEAVMeshPersistentContact@23@AEAIAEBT__m128@@AEAT9@@Z 0000000180168e40 f   GuPCMTriangleContactGen.obj
 0001:00168370       ?generateTriangleFullContactManifold@PCMConvexVsMeshContactGeneration@Gu@physx@@SA_NAEBVTriangleV@23@IEAEBUPolygonalData@23@PEBV?$SupportLocalImpl@VTriangleV@Gu@physx@@@23@PEBVSupportLocal@23@PEAVMeshPersistentContact@23@AEAIAEBT__m128@@AEAT9@PEAVPxRenderOutput@3@@Z 0000000180169370 f   GuPCMTriangleContactGen.obj
 0001:0016a3e0       ?addBatchManifoldContacts2@PersistentContactManifold@Gu@physx@@QEAAXPEBVPersistentContact@23@I@Z 000000018016b3e0 f   GuPersistentContactManifold.obj
 0001:0016a450       ?addBatchManifoldContacts@PersistentContactManifold@Gu@physx@@QEAAXPEBVPersistentContact@23@IM@Z 000000018016b450 f   GuPersistentContactManifold.obj
 0001:0016a4d0       ?addBatchManifoldContactsCluster@PersistentContactManifold@Gu@physx@@QEAAXPEBVPersistentContact@23@I@Z 000000018016b4d0 f   GuPersistentContactManifold.obj
 0001:0016a750       ?addManifoldContactPoints@MultiplePersistentContactManifold@Gu@physx@@QEAAXPEAVMeshPersistentContact@23@IPEAPEAUPCMContactPatch@23@IAEBT__m128@@2E@Z 000000018016b750 f   GuPersistentContactManifold.obj
 0001:0016ab30       ?addManifoldContactsToContactBuffer@MultiplePersistentContactManifold@Gu@physx@@QEAA_NAEAVPxContactBuffer@3@AEBVPxTransformV@aos@3@1AEBT__m128@@@Z 000000018016bb30 f   GuPersistentContactManifold.obj
 0001:0016add0       ?addManifoldContactsToContactBuffer@MultiplePersistentContactManifold@Gu@physx@@QEAA_NAEAVPxContactBuffer@3@AEBVPxTransformV@aos@3@@Z 000000018016bdd0 f   GuPersistentContactManifold.obj
 0001:0016b050       ?addManifoldContactsToContactBuffer@PersistentContactManifold@Gu@physx@@QEAAXAEAVPxContactBuffer@3@AEBT__m128@@1AEBVPxTransformV@aos@3@11@Z 000000018016c050 f   GuPersistentContactManifold.obj
 0001:0016b200       ?addManifoldContactsToContactBuffer@PersistentContactManifold@Gu@physx@@QEAAXAEAVPxContactBuffer@3@AEBT__m128@@AEBVPxMatTransformV@aos@3@@Z 000000018016c200 f   GuPersistentContactManifold.obj
 0001:0016b2d0       ?addManifoldContactsToContactBuffer@PersistentContactManifold@Gu@physx@@QEAAXAEAVPxContactBuffer@3@AEBT__m128@@AEBVPxTransformV@aos@3@1@Z 000000018016c2d0 f   GuPersistentContactManifold.obj
 0001:0016b430       ?addManifoldPoint2@PersistentContactManifold@Gu@physx@@QEAAIAEBT__m128@@000@Z 000000018016c430 f   GuPersistentContactManifold.obj
 0001:0016b560       ?addManifoldPoint@Gu@physx@@YAXPEAVPersistentContact@12@AEAVPersistentContactManifold@12@AEAUGjkOutput@12@AEBVPxMatTransformV@aos@2@T__m128@@@Z 000000018016c560 f   GuPersistentContactManifold.obj
 0001:0016b720       ?addManifoldPoint@PersistentContactManifold@Gu@physx@@QEAAIAEBT__m128@@000@Z 000000018016c720 f   GuPersistentContactManifold.obj
 0001:0016bb60       ?drawLine@MultiplePersistentContactManifold@Gu@physx@@SAXAEAVPxRenderOutput@3@AEBT__m128@@1I@Z 000000018016cb60 f   GuPersistentContactManifold.obj
 0001:0016bc10       ?drawLine@MultiplePersistentContactManifold@Gu@physx@@SAXAEAVPxRenderOutput@3@V?$PxVec3T@M@3@1I@Z 000000018016cc10 f   GuPersistentContactManifold.obj
 0001:0016bc80       ?drawManifold@MultiplePersistentContactManifold@Gu@physx@@QEBAXAEAVPxRenderOutput@3@AEBVPxTransformV@aos@3@1@Z 000000018016cc80 f   GuPersistentContactManifold.obj
 0001:0016c310       ?drawPoint@MultiplePersistentContactManifold@Gu@physx@@SAXAEAVPxRenderOutput@3@AEBT__m128@@MI@Z 000000018016d310 f   GuPersistentContactManifold.obj
 0001:0016c520       ?drawPolygon@MultiplePersistentContactManifold@Gu@physx@@SAXAEAVPxRenderOutput@3@AEBVPxTransformV@aos@3@PEAT__m128@@II@Z 000000018016d520 f   GuPersistentContactManifold.obj
 0001:0016c780       ?findRotationMatrixFromZAxis@Gu@physx@@YA?AUMat33V@aos@2@AEBT__m128@@@Z 000000018016d780 f   GuPersistentContactManifold.obj
 0001:0016ca10       ?fromBuffer@MultiplePersistentContactManifold@Gu@physx@@QEAAXPEIAE@Z 000000018016da10 f   GuPersistentContactManifold.obj
 0001:0016cb70       ?reduceBatchContacts2@PersistentContactManifold@Gu@physx@@QEAAXPEBVPersistentContact@23@I@Z 000000018016db70 f   GuPersistentContactManifold.obj
 0001:0016cd80       ?reduceBatchContacts@PersistentContactManifold@Gu@physx@@QEAAXPEBVPersistentContact@23@IM@Z 000000018016dd80 f   GuPersistentContactManifold.obj
 0001:0016d250       ?reduceBatchContactsCapsule@SinglePersistentContactManifold@Gu@physx@@QEAA?AT__m128@@PEBVMeshPersistentContact@23@IAEAUPCMContactPatch@23@@Z 000000018016e250 f   GuPersistentContactManifold.obj
 0001:0016d4f0       ?reduceBatchContactsCluster@PersistentContactManifold@Gu@physx@@QEAAXPEBVPersistentContact@23@I@Z 000000018016e4f0 f   GuPersistentContactManifold.obj
 0001:0016d980       ?reduceBatchContactsConvex@SinglePersistentContactManifold@Gu@physx@@QEAA?AT__m128@@PEBVMeshPersistentContact@23@IAEAUPCMContactPatch@23@@Z 000000018016e980 f   GuPersistentContactManifold.obj
 0001:0016df70       ?reduceContacts@SinglePersistentContactManifold@Gu@physx@@SAIPEAVMeshPersistentContact@23@I@Z 000000018016ef70 f   GuPersistentContactManifold.obj
 0001:0016e500       ?reduceContactsForPCM@PersistentContactManifold@Gu@physx@@QEAAIAEBT__m128@@00@Z 000000018016f500 f   GuPersistentContactManifold.obj
 0001:0016ea90       ?refreshContactPoints@SinglePersistentContactManifold@Gu@physx@@QEAA?AT__m128@@AEBVPxMatTransformV@aos@3@AEBT4@1@Z 000000018016fa90 f   GuPersistentContactManifold.obj
 0001:0016ebf0       ?replaceManifoldPoint@PersistentContactManifold@Gu@physx@@QEAA_NAEBT__m128@@000@Z 000000018016fbf0 f   GuPersistentContactManifold.obj
 0001:0016ecb0       ?toBuffer@MultiplePersistentContactManifold@Gu@physx@@QEBAXPEIAE@Z 000000018016fcb0 f   GuPersistentContactManifold.obj
 0001:0016ed90       ?contains@Gu@physx@@YA_NPEAT__m128@@IAEBT3@11@Z 000000018016fd90 f   GuPCMContactGenUtil.obj
 0001:0016ef50       ?getPolygonIndex@Gu@physx@@YAHAEBUPolygonalData@12@PEBVSupportLocal@12@AEBT__m128@@AEAH@Z 000000018016ff50 f   GuPCMContactGenUtil.obj
 0001:0016f1f0       ?getWitnessPolygonIndex@Gu@physx@@YAIAEBUPolygonalData@12@PEBVSupportLocal@12@AEBT__m128@@2M@Z 00000001801701f0 f   GuPCMContactGenUtil.obj
 0001:0016f740       ?sweepBoxBox@Gu@physx@@YA_NAEBVBox@12@0AEBV?$PxVec3T@M@2@MV?$PxFlags@W4Enum@PxHitFlag@physx@@G@2@AEAUPxGeomSweepHit@2@@Z 0000000180170740 f   GuSweepBoxBox.obj
 0001:00170d90       ?sweepBoxSphere@Gu@physx@@YA_NAEBVBox@12@MAEBV?$PxVec3T@M@2@1MAEAMAEAV42@V?$PxFlags@W4Enum@PxHitFlag@physx@@G@2@@Z 0000000180171d90 f   GuSweepBoxSphere.obj
 0001:00171870       ?sweepBoxTriangle@Gu@physx@@YA_NAEBVPxTriangle@2@AEBVPxBounds3@2@AEBV?$PxVec3T@M@2@2AEAV52@3AEAM_N@Z 0000000180172870 f   GuSweepBoxTriangle_FeatureBased.obj
 0001:00172d50       ?triBoxSweepTestBoxSpace@Gu@physx@@YAHAEBVPxTriangle@2@AEBV?$PxVec3T@M@2@11MAEAM_N@Z 0000000180173d50 f   GuSweepBoxTriangle_SAT.obj
 0001:00174640       ?sweepCapsuleBox@Gu@physx@@YA_NAEBVCapsule@12@AEBV?$PxTransformT@M@2@AEBV?$PxVec3T@M@2@2MAEAV52@AEAM3V?$PxFlags@W4Enum@PxHitFlag@physx@@G@2@@Z 0000000180175640 f   GuSweepCapsuleBox.obj
 0001:00174970       ?distancePointSegmentSquared@Gu@physx@@YAMAEBVSegment@12@AEBV?$PxVec3T@M@2@PEAM@Z 0000000180175970 f i GuSweepCapsuleCapsule.obj
 0001:00174ab0       ?edgeEdgeDist@@YAXAEAV?$PxVec3T@M@physx@@0AEBV12@111@Z 0000000180175ab0 f   GuSweepCapsuleCapsule.obj
 0001:00174d40       ?sweepCapsuleCapsule@Gu@physx@@YA_NAEBVCapsule@12@0AEBV?$PxVec3T@M@2@MAEAMAEAV42@3IAEAG@Z 0000000180175d40 f   GuSweepCapsuleCapsule.obj
 0001:00175b60       ?sweepCapsuleTriangles_Precise@Gu@physx@@YA_NIPEIBVPxTriangle@2@AEBVCapsule@12@AEBV?$PxVec3T@M@2@MPEIBIAEAUPxGeomSweepHit@2@AEAV52@V?$PxFlags@W4Enum@PxHitFlag@physx@@G@2@_NPEBVBoxPadded@12@@Z 0000000180176b60 f   GuSweepCapsuleTriangle.obj
 0001:00177bf0       ?sweepSphereCapsule@Gu@physx@@YA_NAEBVSphere@12@AEBVCapsule@12@AEBV?$PxVec3T@M@2@MAEAMAEAV52@4V?$PxFlags@W4Enum@PxHitFlag@physx@@G@2@@Z 0000000180178bf0 f   GuSweepSphereCapsule.obj
 0001:001782a0       ?sweepSphereSphere@Gu@physx@@YA_NAEBV?$PxVec3T@M@2@M0M0AEAMAEAV32@@Z 00000001801792a0 f   GuSweepSphereSphere.obj
 0001:00178520       ?sweepSphereTriangles@Gu@physx@@YA_NIPEIBVPxTriangle@2@AEBV?$PxVec3T@M@2@M1MPEIBIAEAUPxGeomSweepHit@2@AEAV42@_N555@Z 0000000180179520 f   GuSweepSphereTriangle.obj
 0001:00178dc0       ?sweepSphereVSQuad@Gu@physx@@YA_NPEIBV?$PxVec3T@M@2@AEBV32@1M1AEAM@Z 0000000180179dc0 f   GuSweepSphereTriangle.obj
 0001:00179d90       ?sweepSphereVSTri@Gu@physx@@YA_NPEIBV?$PxVec3T@M@2@AEBV32@1M1AEAMAEA_N_N@Z 000000018017ad90 f   GuSweepSphereTriangle.obj
 0001:0017a9e0       ??$gjk@U?$LocalConvex@VTriangleV@Gu@physx@@@Gu@physx@@U?$LocalConvex@VBoxV@Gu@physx@@@23@@Gu@physx@@YA?AW4GjkStatus@01@AEBU?$LocalConvex@VTriangleV@Gu@physx@@@01@AEBU?$LocalConvex@VBoxV@Gu@physx@@@01@AEBT__m128@@2AEAT5@333@Z 000000018017b9e0 f i GuSweepTriangleUtils.obj
 0001:0017b640       ?computeBoxTriImpactData@Gu@physx@@YAXAEAV?$PxVec3T@M@2@0AEBV32@1AEBVPxTriangle@2@M@Z 000000018017c640 f   GuSweepTriangleUtils.obj
 0001:0017b8c0       ?computeEdgeEdgeNormal@Gu@physx@@YAXAEAV?$PxVec3T@M@2@AEBV32@1111M@Z 000000018017c8c0 f   GuSweepTriangleUtils.obj
 0001:0017bb90       ?computeSphereTriImpactData@Gu@physx@@YAXAEAV?$PxVec3T@M@2@0AEBV32@1MAEBVPxTriangle@2@@Z 000000018017cb90 f   GuSweepTriangleUtils.obj
 0001:0017c060       ??0ShapeData@Gu@physx@@QEAA@AEBVPxGeometry@2@AEBV?$PxTransformT@M@2@M@Z 000000018017d060 f   GuBounds.obj
 0001:0017c650       ?computeBounds@Gu@physx@@YAXAEAVPxBounds3@2@AEBVPxGeometry@2@AEBV?$PxTransformT@M@2@MM@Z 000000018017d650 f   GuBounds.obj
 0001:0017d370       ?computeBoundsAroundVertices@Gu@physx@@YAXAEAVPxBounds3@2@IPEIBV?$PxVec3T@M@2@@Z 000000018017e370 f   GuBounds.obj
 0001:0017d410       ?computeGlobalBox@Gu@physx@@YAXAEAVPxBounds3@2@IPEIBV32@PEIBI@Z 000000018017e410 f   GuBounds.obj
 0001:0017d480       ?computeLocalBoundsAndGeomEpsilon@Gu@physx@@YAXPEBV?$PxVec3T@M@2@IAEAVPxBounds3@2@AEAM@Z 000000018017e480 f   GuBounds.obj
 0001:0017e580       ?computeTightBounds@Gu@physx@@YAXAEAVPxBounds3@2@IPEIBV?$PxVec3T@M@2@AEBV?$PxTransformT@M@2@AEBVPxMeshScale@2@MM@Z 000000018017f580 f   GuBounds.obj
 0001:0017e930       ??0AABBTree@Gu@physx@@QEAA@XZ 000000018017f930 f   GuAABBTree.obj
 0001:0017e960       ??0BVHPartialRefitData@Gu@physx@@QEAA@XZ 000000018017f960 f   GuAABBTree.obj
 0001:0017e990       ??0NodeAllocator@Gu@physx@@QEAA@XZ 000000018017f990 f   GuAABBTree.obj
 0001:0017e9b0       ??1AABBTree@Gu@physx@@QEAA@XZ 000000018017f9b0 f   GuAABBTree.obj
 0001:0017e9d0       ??1BVHPartialRefitData@Gu@physx@@QEAA@XZ 000000018017f9d0 f   GuAABBTree.obj
 0001:0017ea80       ??1NodeAllocator@Gu@physx@@QEAA@XZ 000000018017fa80 f   GuAABBTree.obj
 0001:0017ead0       ?addRuntimeChilds@AABBTree@Gu@physx@@AEAAXAEAIAEBVAABBTreeMergeData@23@@Z 000000018017fad0 f   GuAABBTree.obj
 0001:0017ebd0       ?allocate@?$PxArray@PEAVAABBTreeBuildNode@Gu@physx@@V?$PxInlineAllocator@$0IAA@V?$PxReflectionAllocator@PEAVAABBTreeBuildNode@Gu@physx@@@physx@@@3@@physx@@IEAAPEAPEAVAABBTreeBuildNode@Gu@2@IPEAI@Z 000000018017fbd0 f i GuAABBTree.obj
 0001:0017ec90       ?build@AABBTree@Gu@physx@@QEAA_NAEBVAABBTreeBuildParams@23@AEAVNodeAllocator@23@@Z 000000018017fc90 f   GuAABBTree.obj
 0001:0017ed40       ?buildAABBTree@Gu@physx@@YAPEAIAEBVAABBTreeBuildParams@12@AEAVNodeAllocator@12@AEAUBuildStats@12@@Z 000000018017fd40 f   GuAABBTree.obj
 0001:0017edb0       ?buildAABBTree@Gu@physx@@YAXIAEBVAABBTreeBounds@12@AEAV?$PxArray@UBVHNode@Gu@physx@@V?$PxReflectionAllocator@UBVHNode@Gu@physx@@@3@@2@@Z 000000018017fdb0 f   GuAABBTree.obj
 0001:0017ef90       ?buildEnd@AABBTree@Gu@physx@@AEAAXAEBVAABBTreeBuildParams@23@AEAVNodeAllocator@23@AEBUBuildStats@23@@Z 000000018017ff90 f   GuAABBTree.obj
 0001:0017f310       ?constructFromTetrahedra@TinyBVH@Gu@physx@@SAXPEBIIPEBV?$PxVec3T@M@3@AEAU123@M@Z 0000000180180310 f   GuAABBTree.obj
 0001:0017f610       ?constructFromTriangles@TinyBVH@Gu@physx@@SAXPEBIIPEBV?$PxVec3T@M@3@AEAU123@M@Z 0000000180180610 f   GuAABBTree.obj
 0001:0017f9c0       ?createUpdateMap@BVHPartialRefitData@Gu@physx@@QEAAXI@Z 00000001801809c0 f   GuAABBTree.obj
 0001:0017fae0       ?flattenTree@Gu@physx@@YAXAEBVNodeAllocator@12@PEAUBVHNode@12@PEBI@Z 0000000180180ae0 f   GuAABBTree.obj
 0001:0017fcc0       ?fullRefit@BVHCoreData@Gu@physx@@QEAAXPEBVPxBounds3@3@@Z 0000000180180cc0 f   GuAABBTree.obj
 0001:0017fe90       ?getBiNode@NodeAllocator@Gu@physx@@QEAAPEAVAABBTreeBuildNode@23@XZ 0000000180180e90 f   GuAABBTree.obj
 0001:0017ffc0       ?getParentIndices@BVHPartialRefitData@Gu@physx@@IEAAPEAIXZ 0000000180180fc0 f   GuAABBTree.obj
 0001:00180050       ?growAndPushBack@?$PxArray@PEAVAABBTreeBuildNode@Gu@physx@@V?$PxReflectionAllocator@PEAVAABBTreeBuildNode@Gu@physx@@@3@@physx@@IEAAAEAPEAVAABBTreeBuildNode@Gu@2@AEBQEAV342@@Z 0000000180181050 f i GuAABBTree.obj
 0001:00180190       ?growAndPushBack@?$PxArray@USlab@NodeAllocator@Gu@physx@@V?$PxReflectionAllocator@USlab@NodeAllocator@Gu@physx@@@4@@physx@@IEAAAEAUSlab@NodeAllocator@Gu@2@AEBU3452@@Z 0000000180181190 f i GuAABBTree.obj
 0001:001802d0       ?init@AABBTreeBounds@Gu@physx@@QEAAXIPEBVPxBounds3@3@@Z 00000001801812d0 f   GuAABBTree.obj
 0001:00180390       ?init@NodeAllocator@Gu@physx@@QEAAXII@Z 0000000180181390 f   GuAABBTree.obj
 0001:001806d0       ?initTree@AABBTree@Gu@physx@@QEAAXAEBVAABBTreeMergeData@23@@Z 00000001801816d0 f   GuAABBTree.obj
 0001:00180820       ?markNodeForRefit@BVHPartialRefitData@Gu@physx@@QEAAXI@Z 0000000180181820 f   GuAABBTree.obj
 0001:00180940       ?mergeRuntimeLeaf@AABBTree@Gu@physx@@AEAAXAEAUBVHNode@23@AEBVAABBTreeMergeData@23@I@Z 0000000180181940 f   GuAABBTree.obj
 0001:00180bc0       ?mergeRuntimeNode@AABBTree@Gu@physx@@AEAAXAEAUBVHNode@23@AEBVAABBTreeMergeData@23@I@Z 0000000180181bc0 f   GuAABBTree.obj
 0001:00180f60       ?mergeTree@AABBTree@Gu@physx@@QEAAXAEBVAABBTreeMergeData@23@@Z 0000000180181f60 f   GuAABBTree.obj
 0001:00181230       ?progressiveBuild@AABBTree@Gu@physx@@QEAAIAEBVAABBTreeBuildParams@23@AEAVNodeAllocator@23@AEAUBuildStats@23@II@Z 0000000180182230 f   GuAABBTree.obj
 0001:001814e0       ?recreate@?$PxArray@PEAVAABBTreeBuildNode@Gu@physx@@V?$PxInlineAllocator@$0IAA@V?$PxReflectionAllocator@PEAVAABBTreeBuildNode@Gu@physx@@@physx@@@3@@physx@@IEAAXI@Z 00000001801824e0 f i GuAABBTree.obj
 0001:001815b0       ?refitMarkedNodes@BVHPartialRefitData@Gu@physx@@QEAAXPEBVPxBounds3@3@@Z 00000001801825b0 f   GuAABBTree.obj
 0001:00181720       ?release@AABBTree@Gu@physx@@QEAAX_N@Z 0000000180182720 f   GuAABBTree.obj
 0001:00181810       ?release@AABBTreeBounds@Gu@physx@@QEAAXXZ 0000000180182810 f   GuAABBTree.obj
 0001:00181860       ?release@NodeAllocator@Gu@physx@@QEAAXXZ 0000000180182860 f   GuAABBTree.obj
 0001:00181910       ?releasePartialRefitData@BVHPartialRefitData@Gu@physx@@QEAAX_N@Z 0000000180182910 f   GuAABBTree.obj
 0001:001819b0       ?reshuffle@Gu@physx@@YAIIQEIAIPEIBV?$PxVec3T@M@2@MI@Z 00000001801829b0 f   GuAABBTree.obj
 0001:00181af0       ?resize@?$PxArray@USlab@NodeAllocator@Gu@physx@@V?$PxReflectionAllocator@USlab@NodeAllocator@Gu@physx@@@4@@physx@@QEAAXIAEBUSlab@NodeAllocator@Gu@2@@Z 0000000180182af0 f i GuAABBTree.obj
 0001:00181b70       ?resize@AABBTreeBounds@Gu@physx@@QEAAXII@Z 0000000180182b70 f   GuAABBTree.obj
 0001:00181c20       ?resizeUninitialized@?$PxArray@PEAVAABBTreeBuildNode@Gu@physx@@V?$PxInlineAllocator@$0IAA@V?$PxReflectionAllocator@PEAVAABBTreeBuildNode@Gu@physx@@@physx@@@3@@physx@@QEAAXI@Z 0000000180182c20 f i GuAABBTree.obj
 0001:00181c70       ?shiftIndices@AABBTree@Gu@physx@@QEAAXI@Z 0000000180182c70 f   GuAABBTree.obj
 0001:00181c90       ?shiftOrigin@AABBTree@Gu@physx@@QEAAXAEBV?$PxVec3T@M@3@@Z 0000000180182c90 f   GuAABBTree.obj
 0001:00181f00       ?subdivide@AABBTreeBuildNode@Gu@physx@@QEAAXAEBVAABBTreeBuildParams@23@AEAUBuildStats@23@AEAVNodeAllocator@23@QEAI@Z 0000000180182f00 f   GuAABBTree.obj
 0001:001820e0       ?subdivideSAH@AABBTreeBuildNode@Gu@physx@@QEAAXAEBVAABBTreeBuildParams@23@AEAUSAH_Buffers@23@AEAUBuildStats@23@AEAVNodeAllocator@23@QEAI@Z 00000001801830e0 f   GuAABBTree.obj
 0001:001821d0       ?traverseRuntimeNode@AABBTree@Gu@physx@@AEAAXAEAUBVHNode@23@AEBVAABBTreeMergeData@23@I@Z 00000001801831d0 f   GuAABBTree.obj
 0001:001822d0       ?initMap@AABBTreeUpdateMap@Gu@physx@@QEAAXIAEBVAABBTree@23@@Z 00000001801832d0 f   GuAABBTreeUpdateMap.obj
 0001:00182460       ?invalidate@AABBTreeUpdateMap@Gu@physx@@QEAAXIIAEAVAABBTree@23@@Z 0000000180183460 f   GuAABBTreeUpdateMap.obj
 0001:00182710       ?visualizeTree@@YAXAEAVPxRenderOutput@physx@@IPEBVAABBTree@Gu@2@@Z 0000000180183710 f   GuSqInternal.obj
 0001:00182780       ?visualizeTree@@YAXAEAVPxRenderOutput@physx@@IPEBVBVH@Gu@2@@Z 0000000180183780 f   GuSqInternal.obj
 0001:001827f0       ?visualizeTree@@YAXAEAVPxRenderOutput@physx@@IPEBVIncrementalAABBTree@Gu@2@PEAVDebugVizCallback@2@@Z 00000001801837f0 f   GuSqInternal.obj
 0001:00182870       ??$PxSort@PEAXU?$PxLess@PEAX@physx@@V?$PxReflectionAllocator@UAABBTreeIndices@Gu@physx@@@2@@physx@@YAXPEAPEAXIAEBU?$PxLess@PEAX@0@AEBV?$PxReflectionAllocator@UAABBTreeIndices@Gu@physx@@@0@I@Z 0000000180183870 f i GuIncrementalAABBTree.obj
 0001:00182cf0       ??$PxSort@PEAXU?$PxLess@PEAX@physx@@V?$PxReflectionAllocator@UIncrementalAABBTreeNodePair@Gu@physx@@@2@@physx@@YAXPEAPEAXIAEBU?$PxLess@PEAX@0@AEBV?$PxReflectionAllocator@UIncrementalAABBTreeNodePair@Gu@physx@@@0@I@Z 0000000180183cf0 f i GuIncrementalAABBTree.obj
 0001:00183170       ??0IncrementalAABBTree@Gu@physx@@QEAA@XZ 0000000180184170 f   GuIncrementalAABBTree.obj
 0001:001831f0       ??1?$PxPoolBase@UAABBTreeIndices@Gu@physx@@V?$PxReflectionAllocator@UAABBTreeIndices@Gu@physx@@@3@@physx@@QEAA@XZ 00000001801841f0 f i GuIncrementalAABBTree.obj
 0001:00183360       ??1?$PxPoolBase@UIncrementalAABBTreeNodePair@Gu@physx@@V?$PxReflectionAllocator@UIncrementalAABBTreeNodePair@Gu@physx@@@3@@physx@@QEAA@XZ 0000000180184360 f i GuIncrementalAABBTree.obj
 0001:001834d0       ??1IncrementalAABBTree@Gu@physx@@QEAA@XZ 00000001801844d0 f   GuIncrementalAABBTree.obj
 0001:00183510       ?allocate@?$PxPoolBase@UAABBTreeIndices@Gu@physx@@V?$PxReflectionAllocator@UAABBTreeIndices@Gu@physx@@@3@@physx@@QEAAPEAUAABBTreeIndices@Gu@2@XZ 0000000180184510 f i GuIncrementalAABBTree.obj
 0001:00183610       ?allocate@?$PxPoolBase@UIncrementalAABBTreeNodePair@Gu@physx@@V?$PxReflectionAllocator@UIncrementalAABBTreeNodePair@Gu@physx@@@3@@physx@@QEAAPEAUIncrementalAABBTreeNodePair@Gu@2@XZ 0000000180184610 f i GuIncrementalAABBTree.obj
 0001:00183730       ?build@IncrementalAABBTree@Gu@physx@@QEAA_NAEBVAABBTreeBuildParams@23@AEAV?$PxArray@PEAVIncrementalAABBTreeNode@Gu@physx@@V?$PxReflectionAllocator@PEAVIncrementalAABBTreeNode@Gu@physx@@@3@@3@@Z 0000000180184730 f   GuIncrementalAABBTree.obj
 0001:00183930       ?clone@IncrementalAABBTree@Gu@physx@@AEAAXAEAV?$PxArray@PEAVIncrementalAABBTreeNode@Gu@physx@@V?$PxReflectionAllocator@PEAVIncrementalAABBTreeNode@Gu@physx@@@3@@3@PEBIPEAPEAVIncrementalAABBTreeNode@23@@Z 0000000180184930 f   GuIncrementalAABBTree.obj
 0001:00183eb0       ?copy@IncrementalAABBTree@Gu@physx@@QEAAXAEBVBVH@23@AEAV?$PxArray@PEAVIncrementalAABBTreeNode@Gu@physx@@V?$PxReflectionAllocator@PEAVIncrementalAABBTreeNode@Gu@physx@@@3@@3@@Z 0000000180184eb0 f   GuIncrementalAABBTree.obj
 0001:00183f50       ?copyNode@IncrementalAABBTree@Gu@physx@@AEAAXAEAVIncrementalAABBTreeNode@23@AEBUBVHNode@23@PEBU523@PEAV423@PEBIAEAV?$PxArray@PEAVIncrementalAABBTreeNode@Gu@physx@@V?$PxReflectionAllocator@PEAVIncrementalAABBTreeNode@Gu@physx@@@3@@3@@Z 0000000180184f50 f   GuIncrementalAABBTree.obj
 0001:00184100       ?fixupTreeIndices@IncrementalAABBTree@Gu@physx@@QEAAXPEAVIncrementalAABBTreeNode@23@II@Z 0000000180185100 f   GuIncrementalAABBTree.obj
 0001:00184130       ?getTreeLeafDepth@IncrementalAABBTree@Gu@physx@@QEAAIPEAVIncrementalAABBTreeNode@23@@Z 0000000180185130 f   GuIncrementalAABBTree.obj
 0001:00184150       ?growAndPushBack@?$PxArray@PEAVIncrementalAABBTreeNode@Gu@physx@@V?$PxReflectionAllocator@PEAVIncrementalAABBTreeNode@Gu@physx@@@3@@physx@@IEAAAEAPEAVIncrementalAABBTreeNode@Gu@2@AEBQEAV342@@Z 0000000180185150 f i GuIncrementalAABBTree.obj
 0001:00184290       ?growAndPushBack@?$PxArray@PEAXV?$PxReflectionAllocator@UAABBTreeIndices@Gu@physx@@@physx@@@physx@@IEAAAEAPEAXAEBQEAX@Z 0000000180185290 f i GuIncrementalAABBTree.obj
 0001:001843d0       ?growAndPushBack@?$PxArray@PEAXV?$PxReflectionAllocator@UIncrementalAABBTreeNodePair@Gu@physx@@@physx@@@physx@@IEAAAEAPEAXAEBQEAX@Z 00000001801853d0 f i GuIncrementalAABBTree.obj
 0001:00184510       ?hierarchyCheck@IncrementalAABBTree@Gu@physx@@QEAAXIPEBVPxBounds3@3@@Z 0000000180185510 f   GuIncrementalAABBTree.obj
 0001:00184660       ?hierarchyCheck@IncrementalAABBTree@Gu@physx@@QEAAXPEBVPxBounds3@3@@Z 0000000180185660 f   GuIncrementalAABBTree.obj
 0001:001847b0       ?insert@IncrementalAABBTree@Gu@physx@@QEAAPEAVIncrementalAABBTreeNode@23@IPEBVPxBounds3@3@AEAV?$PxArray@PEAVIncrementalAABBTreeNode@Gu@physx@@V?$PxReflectionAllocator@PEAVIncrementalAABBTreeNode@Gu@physx@@@3@@3@@Z 00000001801857b0 f   GuIncrementalAABBTree.obj
 0001:00184e20       ?recreate@?$PxArray@PEAXV?$PxReflectionAllocator@UAABBTreeIndices@Gu@physx@@@physx@@@physx@@IEAAXI@Z 0000000180185e20 f i GuIncrementalAABBTree.obj
 0001:00184f30       ?recreate@?$PxArray@PEAXV?$PxReflectionAllocator@UIncrementalAABBTreeNodePair@Gu@physx@@@physx@@@physx@@IEAAXI@Z 0000000180185f30 f i GuIncrementalAABBTree.obj
 0001:00185040       ?release@IncrementalAABBTree@Gu@physx@@QEAAXXZ 0000000180186040 f   GuIncrementalAABBTree.obj
 0001:00185070       ?releaseNode@IncrementalAABBTree@Gu@physx@@AEAAXPEAVIncrementalAABBTreeNode@23@@Z 0000000180186070 f   GuIncrementalAABBTree.obj
 0001:00185100       ?remove@IncrementalAABBTree@Gu@physx@@QEAAPEAVIncrementalAABBTreeNode@23@PEAV423@IPEBVPxBounds3@3@@Z 0000000180186100 f   GuIncrementalAABBTree.obj
 0001:00185460       ?rotateTree@IncrementalAABBTree@Gu@physx@@AEAAXPEAVIncrementalAABBTreeNode@23@AEAV?$PxArray@PEAVIncrementalAABBTreeNode@Gu@physx@@V?$PxReflectionAllocator@PEAVIncrementalAABBTreeNode@Gu@physx@@@3@@3@IPEBVPxBounds3@3@_N@Z 0000000180186460 f   GuIncrementalAABBTree.obj
 0001:00185d90       ?shiftOrigin@IncrementalAABBTree@Gu@physx@@QEAAXAEBV?$PxVec3T@M@3@@Z 0000000180186d90 f   GuIncrementalAABBTree.obj
 0001:00185df0       ?splitLeafNode@IncrementalAABBTree@Gu@physx@@AEAAPEAVIncrementalAABBTreeNode@23@PEAV423@IAEBT__m128@@1PEBVPxBounds3@3@@Z 0000000180186df0 f   GuIncrementalAABBTree.obj
 0001:001860e0       ?update@IncrementalAABBTree@Gu@physx@@QEAAPEAVIncrementalAABBTreeNode@23@PEAV423@IPEBVPxBounds3@3@AEAV?$PxArray@PEAVIncrementalAABBTreeNode@Gu@physx@@V?$PxReflectionAllocator@PEAVIncrementalAABBTreeNode@Gu@physx@@@3@@3@@Z 00000001801870e0 f   GuIncrementalAABBTree.obj
 0001:001861a0       ?updateFast@IncrementalAABBTree@Gu@physx@@QEAAPEAVIncrementalAABBTreeNode@23@PEAV423@IPEBVPxBounds3@3@AEAV?$PxArray@PEAVIncrementalAABBTreeNode@Gu@physx@@V?$PxReflectionAllocator@PEAVIncrementalAABBTreeNode@Gu@physx@@@3@@3@@Z 00000001801871a0 f   GuIncrementalAABBTree.obj
 0001:001863c0       ??0SAH_Buffers@Gu@physx@@QEAA@I@Z 00000001801873c0 f   GuSAH.obj
 0001:001864d0       ??1SAH_Buffers@Gu@physx@@QEAA@XZ 00000001801874d0 f   GuSAH.obj
 0001:00186590       ?split@SAH_Buffers@Gu@physx@@QEAA_NAEAIIPEIBIPEIBVPxBounds3@3@PEIBV?$PxVec3T@M@3@@Z 0000000180187590 f   GuSAH.obj
 0001:00186c10       ??0BVH@Gu@physx@@QEAA@AEBUPxBVHInternalData@2@@Z 0000000180187c10 f   GuBVH.obj
 0001:00186cd0       ??0BVH@Gu@physx@@QEAA@PEAVMeshFactory@12@@Z 0000000180187cd0 f   GuBVH.obj
 0001:00186d40       ??0BVH@Gu@physx@@QEAA@PEAVMeshFactory@12@AEAVBVHData@12@@Z 0000000180187d40 f   GuBVH.obj
 0001:00186df0       ??1BVHData@Gu@physx@@QEAA@XZ 0000000180187df0 f i GuBVH.obj
 0001:0018a694       ??_EBVH@Gu@physx@@WBA@EAAPEAXI@Z 000000018018b694 f i GuBVH.obj
 0001:0018a6a0       ??_EBVH@Gu@physx@@UEAAPEAXI@Z 000000018018b6a0 f i GuBVH.obj
 0001:0018a6a0       ??_GBVH@Gu@physx@@UEAAPEAXI@Z 000000018018b6a0 f i GuBVH.obj
 0001:0018a730       ??_ERefCountable@Cm@physx@@UEAAPEAXI@Z 000000018018b730 f i GuBVH.obj
 0001:0018a730       ??_GRefCountable@Cm@physx@@UEAAPEAXI@Z 000000018018b730 f i GuBVH.obj
 0001:0018a970       ?allocate@?$PxArray@PEBUBVHNode@Gu@physx@@V?$PxInlineAllocator@$0IAA@V?$PxReflectionAllocator@PEBUBVHNode@Gu@physx@@@physx@@@3@@physx@@IEAAPEAPEBUBVHNode@Gu@2@IPEAI@Z 000000018018b970 f i GuBVH.obj
 0001:0018aa30       ?build@BVHData@Gu@physx@@QEAA_NIPEBXIMIW4BVHBuildStrategy@23@@Z 000000018018ba30 f   GuBVH.obj
 0001:0018ae30       ?cull@BVH@Gu@physx@@UEBA_NIPEBVPxPlane@3@AEAUOverlapCallback@PxBVH@3@V?$PxFlags@W4Enum@PxGeometryQueryFlag@physx@@I@3@@Z 000000018018be30 f   GuBVH.obj
 0001:0018b750       ?getConcreteTypeName@PxBVH@physx@@UEBAPEBDXZ 000000018018c750 f i GuBVH.obj
 0001:0018b760       ?init@BVH@Gu@physx@@QEAA_NIPEAVAABBTreeBounds@23@PEBXIW4BVHBuildStrategy@23@IM@Z 000000018018c760 f   GuBVH.obj
 0001:0018bb80       ?isKindOf@PxBVH@physx@@MEBA_NPEBD@Z 000000018018cb80 f i GuBVH.obj
 0001:0018bc00       ?load@BVH@Gu@physx@@QEAA_NAEAVPxInputStream@3@@Z 000000018018cc00 f   GuBVH.obj
 0001:0018bda0       ?onRefCountZero@BVH@Gu@physx@@UEAAXXZ 000000018018cda0 f   GuBVH.obj
 0001:0018be80       ?onRefCountZero@RefCountable@Cm@physx@@UEAAXXZ 000000018018ce80 f i GuBVH.obj
 0001:0018bea0       ?overlap@BVH@Gu@physx@@QEBA_NAEBVShapeData@23@AEAUOverlapCallback@PxBVH@3@V?$PxFlags@W4Enum@PxGeometryQueryFlag@physx@@I@3@@Z 000000018018cea0 f   GuBVH.obj
 0001:0018c580       ?overlap@BVH@Gu@physx@@UEBA_NAEBVPxGeometry@3@AEBV?$PxTransformT@M@3@AEAUOverlapCallback@PxBVH@3@V?$PxFlags@W4Enum@PxGeometryQueryFlag@physx@@I@3@@Z 000000018018d580 f   GuBVH.obj
 0001:0018c5e0       ?partialRefit@BVH@Gu@physx@@UEAAXXZ 000000018018d5e0 f   GuBVH.obj
 0001:0018c5f0       ?raycast@BVH@Gu@physx@@UEBA_NAEBV?$PxVec3T@M@3@0MAEAURaycastCallback@PxBVH@3@V?$PxFlags@W4Enum@PxGeometryQueryFlag@physx@@I@3@@Z 000000018018d5f0 f   GuBVH.obj
 0001:0018c6d0       ?recreate@?$PxArray@PEBUBVHNode@Gu@physx@@V?$PxInlineAllocator@$0IAA@V?$PxReflectionAllocator@PEBUBVHNode@Gu@physx@@@physx@@@3@@physx@@IEAAXI@Z 000000018018d6d0 f i GuBVH.obj
 0001:0018c7a0       ?refit@BVH@Gu@physx@@UEAAXXZ 000000018018d7a0 f   GuBVH.obj
 0001:0018c7b0       ?release@BVH@Gu@physx@@UEAAXXZ 000000018018d7b0 f   GuBVH.obj
 0001:0018c7e0       ?resizeUninitialized@?$PxArray@PEBUBVHNode@Gu@physx@@V?$PxInlineAllocator@$0IAA@V?$PxReflectionAllocator@PEBUBVHNode@Gu@physx@@@physx@@@3@@physx@@QEAAXI@Z 000000018018d7e0 f i GuBVH.obj
 0001:0018c830       ?save@BVHData@Gu@physx@@QEBA_NAEAVPxOutputStream@3@_N@Z 000000018018d830 f   GuBVH.obj
 0001:0018c9a0       ?sweep@BVH@Gu@physx@@QEBA_NAEBVShapeData@23@AEBV?$PxVec3T@M@3@MAEAURaycastCallback@PxBVH@3@V?$PxFlags@W4Enum@PxGeometryQueryFlag@physx@@I@3@@Z 000000018018d9a0 f   GuBVH.obj
 0001:0018cb80       ?sweep@BVH@Gu@physx@@UEBA_NAEBVPxGeometry@3@AEBV?$PxTransformT@M@3@AEBV?$PxVec3T@M@3@MAEAURaycastCallback@PxBVH@3@V?$PxFlags@W4Enum@PxGeometryQueryFlag@physx@@I@3@@Z 000000018018db80 f   GuBVH.obj
 0001:0018cd80       ?traverse@BVH@Gu@physx@@UEBA_NAEAUTraversalCallback@PxBVH@3@@Z 000000018018dd80 f   GuBVH.obj
 0001:0018cf20       ?updateBounds@BVH@Gu@physx@@UEAA_NIAEBVPxBounds3@3@@Z 000000018018df20 f   GuBVH.obj
 0001:0018cfd0       ?updateBoundsInternal@BVH@Gu@physx@@QEAA_NIAEBVPxBounds3@3@@Z 000000018018dfd0 f   GuBVH.obj
 0001:0018d080       PxFindOverlap              000000018018e080 f   GuBVH.obj
 0001:0018d180       PxGetBVHInternalData       000000018018e180 f   GuBVH.obj
 0001:0018d1c0       ??0IncrementalAABBPrunerCore@Gu@physx@@QEAA@PEBVPruningPool@12@@Z 000000018018e1c0 f   GuIncrementalAABBPrunerCore.obj
 0001:0018d2e0       ??1IncrementalAABBPrunerCore@Gu@physx@@QEAA@XZ 000000018018e2e0 f   GuIncrementalAABBPrunerCore.obj
 0001:0018d450       ??R?$AABBTreeOverlap@$00U?$OBBAABBTests@$00@Gu@physx@@VIncrementalAABBTree@23@VIncrementalAABBTreeNode@23@UOverlapCallbackAdapter@23@@Gu@physx@@QEAA_NAEBVAABBTreeBounds@12@AEBVIncrementalAABBTree@12@AEBU?$OBBAABBTests@$00@12@AEAUOverlapCallbackAdapter@12@@Z 000000018018e450 f i GuIncrementalAABBPrunerCore.obj
 0001:0018da10       ??R?$AABBTreeOverlap@$00UAABBAABBTest@Gu@physx@@VIncrementalAABBTree@23@VIncrementalAABBTreeNode@23@UOverlapCallbackAdapter@23@@Gu@physx@@QEAA_NAEBVAABBTreeBounds@12@AEBVIncrementalAABBTree@12@AEBUAABBAABBTest@12@AEAUOverlapCallbackAdapter@12@@Z 000000018018ea10 f i GuIncrementalAABBPrunerCore.obj
 0001:0018dc90       ??R?$AABBTreeOverlap@$00UCapsuleAABBTest@Gu@physx@@VIncrementalAABBTree@23@VIncrementalAABBTreeNode@23@UOverlapCallbackAdapter@23@@Gu@physx@@QEAA_NAEBVAABBTreeBounds@12@AEBVIncrementalAABBTree@12@AEBUCapsuleAABBTest@12@AEAUOverlapCallbackAdapter@12@@Z 000000018018ec90 f i GuIncrementalAABBPrunerCore.obj
 0001:0018dff0       ??R?$AABBTreeRaycast@$00$00VIncrementalAABBTree@Gu@physx@@VIncrementalAABBTreeNode@23@URaycastCallbackAdapter@23@@Gu@physx@@QEAA_NAEBVAABBTreeBounds@12@AEBVIncrementalAABBTree@12@AEBV?$PxVec3T@M@2@2AEAM2AEAURaycastCallbackAdapter@12@@Z 000000018018eff0 f i GuIncrementalAABBPrunerCore.obj
 0001:0018e6a0       ??R?$AABBTreeRaycast@$0A@$00VIncrementalAABBTree@Gu@physx@@VIncrementalAABBTreeNode@23@URaycastCallbackAdapter@23@@Gu@physx@@QEAA_NAEBVAABBTreeBounds@12@AEBVIncrementalAABBTree@12@AEBV?$PxVec3T@M@2@2AEAM2AEAURaycastCallbackAdapter@12@@Z 000000018018f6a0 f i GuIncrementalAABBPrunerCore.obj
 0001:0018ecb0       ?addObject@IncrementalAABBPrunerCore@Gu@physx@@QEAA_NII@Z 000000018018fcb0 f   GuIncrementalAABBPrunerCore.obj
 0001:0018eda0       ?allocate@?$PxArray@PEBVIncrementalAABBTreeNode@Gu@physx@@V?$PxInlineAllocator@$0IAA@V?$PxReflectionAllocator@PEBVIncrementalAABBTreeNode@Gu@physx@@@physx@@@3@@physx@@IEAAPEAPEBVIncrementalAABBTreeNode@Gu@2@IPEAI@Z 000000018018fda0 f i GuIncrementalAABBPrunerCore.obj
 0001:0018ee60       ?clear@?$PxHashMapBase@IPEAVIncrementalAABBTreeNode@Gu@physx@@U?$PxHash@I@3@VPxAllocator@3@@physx@@QEAAXXZ 000000018018fe60 f i GuIncrementalAABBPrunerCore.obj
 0001:0018ee60       ?clear@?$PxHashMapBase@UPrunerPayload@Gu@physx@@UExtendedBucketPrunerData@23@UExtendedBucketPrunerHash@23@VPxAllocator@3@@physx@@QEAAXXZ 000000018018fe60 f i GuExtendedBucketPruner.obj
 0001:0018eef0       ?create@?$PxHashBase@V?$PxPair@$$CBIPEAVIncrementalAABBTreeNode@Gu@physx@@@physx@@IU?$PxHash@I@2@UGetKey@?$PxHashMapBase@IPEAVIncrementalAABBTreeNode@Gu@physx@@U?$PxHash@I@3@VPxAllocator@3@@2@VPxAllocator@2@$00@physx@@QEAAPEAV?$PxPair@$$CBIPEAVIncrementalAABBTreeNode@Gu@physx@@@2@AEBIAEA_N@Z 000000018018fef0 f i GuIncrementalAABBPrunerCore.obj
 0001:0018f040       ?erase@?$PxHashBase@V?$PxPair@$$CBIPEAVIncrementalAABBTreeNode@Gu@physx@@@physx@@IU?$PxHash@I@2@UGetKey@?$PxHashMapBase@IPEAVIncrementalAABBTreeNode@Gu@physx@@U?$PxHash@I@3@VPxAllocator@3@@2@VPxAllocator@2@$00@physx@@QEAA_NAEBIAEAV?$PxPair@$$CBIPEAVIncrementalAABBTreeNode@Gu@physx@@@2@@Z 0000000180190040 f i GuIncrementalAABBPrunerCore.obj
 0001:0018f1b0       ?getCurrentWorldBoxes@PruningPool@Gu@physx@@QEAAPEAVPxBounds3@3@XZ 00000001801901b0 f i GuIncrementalAABBPrunerCore.obj
 0001:0018f1b0       ?getCurrentWorldBoxes@PruningPool@Gu@physx@@QEBAPEBVPxBounds3@3@XZ 00000001801901b0 f i GuIncrementalAABBPrunerCore.obj
 0001:0018f1b0       ?getMesh@CollisionTetrahedronMeshData@Gu@physx@@UEAAPEAVPxTetrahedronMeshData@3@XZ 00000001801901b0 f i GuCookingTetrahedronMesh.obj
 0001:0018f1b0       ?getMesh@CollisionTetrahedronMeshData@Gu@physx@@UEBAPEBVPxTetrahedronMeshData@3@XZ 00000001801901b0 f i GuCookingTetrahedronMesh.obj
 0001:0018f1b0       ?getMesh@SimulationTetrahedronMeshData@Gu@physx@@UEAAPEAVPxTetrahedronMeshData@3@XZ 00000001801901b0 f i GuCookingTetrahedronMesh.obj
 0001:0018f1c0       ?getGlobalBounds@IncrementalAABBPrunerCore@Gu@physx@@QEBAXAEAVPxBounds3@3@@Z 00000001801901c0 f   GuIncrementalAABBPrunerCore.obj
 0001:0018f300       ?getIndex@PruningPool@Gu@physx@@QEBAII@Z 0000000180190300 f i GuIncrementalAABBPrunerCore.obj
 0001:0018f310       ?getPayloadData@PruningPool@Gu@physx@@QEBAAEBUPrunerPayload@23@IPEAUPrunerPayloadData@23@@Z 0000000180190310 f i GuIncrementalAABBPrunerCore.obj
 0001:0018f360       ?overlap@IncrementalAABBPrunerCore@Gu@physx@@QEBA_NAEBVShapeData@23@AEAUPrunerOverlapCallback@23@@Z 0000000180190360 f   GuIncrementalAABBPrunerCore.obj
 0001:0018fd80       ?raycast@IncrementalAABBPrunerCore@Gu@physx@@QEBA_NAEBV?$PxVec3T@M@3@0AEAMAEAUPrunerRaycastCallback@23@@Z 0000000180190d80 f   GuIncrementalAABBPrunerCore.obj
 0001:0018fe90       ?recreate@?$PxArray@PEAVIncrementalAABBTreeNode@Gu@physx@@V?$PxReflectionAllocator@PEAVIncrementalAABBTreeNode@Gu@physx@@@3@@physx@@IEAAXI@Z 0000000180190e90 f i GuIncrementalAABBPrunerCore.obj
 0001:0018ffa0       ?recreate@?$PxArray@PEBVIncrementalAABBTreeNode@Gu@physx@@V?$PxInlineAllocator@$0IAA@V?$PxReflectionAllocator@PEBVIncrementalAABBTreeNode@Gu@physx@@@physx@@@3@@physx@@IEAAXI@Z 0000000180190fa0 f i GuIncrementalAABBPrunerCore.obj
 0001:00190070       ?release@IncrementalAABBPrunerCore@Gu@physx@@QEAAXXZ 0000000180191070 f   GuIncrementalAABBPrunerCore.obj
 0001:00190170       ?removeMarkedObjects@IncrementalAABBPrunerCore@Gu@physx@@QEAAII@Z 0000000180191170 f   GuIncrementalAABBPrunerCore.obj
 0001:001901d0       ?removeObject@IncrementalAABBPrunerCore@Gu@physx@@QEAA_NIIAEAI@Z 00000001801911d0 f   GuIncrementalAABBPrunerCore.obj
 0001:001903f0       ?reserveInternal@?$PxHashBase@V?$PxPair@$$CBIPEAVIncrementalAABBTreeNode@Gu@physx@@@physx@@IU?$PxHash@I@2@UGetKey@?$PxHashMapBase@IPEAVIncrementalAABBTreeNode@Gu@physx@@U?$PxHash@I@3@VPxAllocator@3@@2@VPxAllocator@2@$00@physx@@AEAAXI@Z 00000001801913f0 f i GuIncrementalAABBPrunerCore.obj
 0001:001905b0       ?resizeUninitialized@?$PxArray@PEBVIncrementalAABBTreeNode@Gu@physx@@V?$PxInlineAllocator@$0IAA@V?$PxReflectionAllocator@PEBVIncrementalAABBTreeNode@Gu@physx@@@physx@@@3@@physx@@QEAAXI@Z 00000001801915b0 f i GuIncrementalAABBPrunerCore.obj
 0001:00190600       ?setTransform@PruningPool@Gu@physx@@QEAA_NIAEBV?$PxTransformT@M@3@@Z 0000000180191600 f i GuIncrementalAABBPrunerCore.obj
 0001:00190660       ?shiftOrigin@IncrementalAABBPrunerCore@Gu@physx@@QEAAXAEBV?$PxVec3T@M@3@@Z 0000000180191660 f   GuIncrementalAABBPrunerCore.obj
 0001:001906a0       ?swapIndex@IncrementalAABBPrunerCore@Gu@physx@@QEAAXII@Z 00000001801916a0 f   GuIncrementalAABBPrunerCore.obj
 0001:00190780       ?sweep@IncrementalAABBPrunerCore@Gu@physx@@QEBA_NAEBVShapeData@23@AEBV?$PxVec3T@M@3@AEAMAEAUPrunerRaycastCallback@23@@Z 0000000180191780 f   GuIncrementalAABBPrunerCore.obj
 0001:00190990       ?updateMapping@IncrementalAABBPrunerCore@Gu@physx@@AEAAXAEAV?$PxHashMap@IPEAVIncrementalAABBTreeNode@Gu@physx@@U?$PxHash@I@3@VPxAllocator@3@@3@IPEAVIncrementalAABBTreeNode@23@@Z 0000000180191990 f   GuIncrementalAABBPrunerCore.obj
 0001:00190b00       ?updateObject@IncrementalAABBPrunerCore@Gu@physx@@QEAA_NI@Z 0000000180191b00 f   GuIncrementalAABBPrunerCore.obj
 0001:00190ca0       ?visualize@IncrementalAABBPrunerCore@Gu@physx@@QEBAXAEAVPxRenderOutput@3@I@Z 0000000180191ca0 f   GuIncrementalAABBPrunerCore.obj
 0001:00190d00       ??0IncrementalAABBPruner@Gu@physx@@QEAA@I_K@Z 0000000180191d00 f   GuIncrementalAABBPruner.obj
 0001:00190db0       ??R?$AABBTreeOverlap@$00USphereAABBTest@Gu@physx@@VIncrementalAABBTree@23@VIncrementalAABBTreeNode@23@UOverlapCallbackAdapter@23@@Gu@physx@@QEAA_NAEBVAABBTreeBounds@12@AEBVIncrementalAABBTree@12@AEBUSphereAABBTest@12@AEAUOverlapCallbackAdapter@12@@Z 0000000180191db0 f i GuIncrementalAABBPruner.obj
 0001:001910a0       ??_EBasePruner@Gu@physx@@UEAAPEAXI@Z 00000001801920a0 f i GuIncrementalAABBPruner.obj
 0001:001910a0       ??_GBasePruner@Gu@physx@@UEAAPEAXI@Z 00000001801920a0 f i GuIncrementalAABBPruner.obj
 0001:00191100       ??_EIncrementalAABBPruner@Gu@physx@@UEAAPEAXI@Z 0000000180192100 f i GuIncrementalAABBPruner.obj
 0001:00191100       ??_GIncrementalAABBPruner@Gu@physx@@UEAAPEAXI@Z 0000000180192100 f i GuIncrementalAABBPruner.obj
 0001:00191220       ?addObjects@IncrementalAABBPruner@Gu@physx@@UEAA_NPEAIPEBVPxBounds3@3@PEBUPrunerPayload@23@PEBV?$PxTransformT@M@3@I_N@Z 0000000180192220 f   GuIncrementalAABBPruner.obj
 0001:00191390       ?commit@IncrementalAABBPruner@Gu@physx@@UEAAXXZ 0000000180192390 f   GuIncrementalAABBPruner.obj
 0001:00191570       ?getGlobalBounds@IncrementalAABBPruner@Gu@physx@@UEBAXAEAVPxBounds3@3@@Z 0000000180192570 f   GuIncrementalAABBPruner.obj
 0001:001915f0       ?getPayloadData@IncrementalAABBPruner@Gu@physx@@UEBAAEBUPrunerPayload@23@IPEAUPrunerPayloadData@23@@Z 00000001801925f0 f i GuIncrementalAABBPruner.obj
 0001:00191640       ?overlap@IncrementalAABBPruner@Gu@physx@@UEBA_NAEBVShapeData@23@AEAUPrunerOverlapCallback@23@@Z 0000000180192640 f   GuIncrementalAABBPruner.obj
 0001:00191c50       ?preallocate@IncrementalAABBPruner@Gu@physx@@UEAAXI@Z 0000000180192c50 f i GuIncrementalAABBPruner.obj
 0001:00191c60       ?purge@IncrementalAABBPruner@Gu@physx@@UEAAXXZ 0000000180192c60 f   GuIncrementalAABBPruner.obj
 0001:00191cb0       ?raycast@IncrementalAABBPruner@Gu@physx@@UEBA_NAEBV?$PxVec3T@M@3@0AEAMAEAUPrunerRaycastCallback@23@@Z 0000000180192cb0 f   GuIncrementalAABBPruner.obj
 0001:00191d30       ?removeObjects@IncrementalAABBPruner@Gu@physx@@UEAAXPEBIIPEAUPrunerPayloadRemovalCallback@23@@Z 0000000180192d30 f   GuIncrementalAABBPruner.obj
 0001:00191f30       ?resize@?$PxArray@PEAVIncrementalAABBTreeNode@Gu@physx@@V?$PxReflectionAllocator@PEAVIncrementalAABBTreeNode@Gu@physx@@@3@@physx@@QEAAXIAEBQEAVIncrementalAABBTreeNode@Gu@2@@Z 0000000180192f30 f i GuIncrementalAABBPruner.obj
 0001:00191ff0       ?resizeUninitialized@?$PxArray@PEAVIncrementalAABBTreeNode@Gu@physx@@V?$PxReflectionAllocator@PEAVIncrementalAABBTreeNode@Gu@physx@@@3@@physx@@QEAAXI@Z 0000000180192ff0 f i GuIncrementalAABBPruner.obj
 0001:00192030       ?setTransform@IncrementalAABBPruner@Gu@physx@@UEAA_NIAEBV?$PxTransformT@M@3@@Z 0000000180193030 f i GuIncrementalAABBPruner.obj
 0001:00192090       ?shiftOrigin@IncrementalAABBPruner@Gu@physx@@UEAAXAEBV?$PxVec3T@M@3@@Z 0000000180193090 f   GuIncrementalAABBPruner.obj
 0001:001920d0       ?sweep@IncrementalAABBPruner@Gu@physx@@UEBA_NAEBVShapeData@23@AEBV?$PxVec3T@M@3@AEAMAEAUPrunerRaycastCallback@23@@Z 00000001801930d0 f   GuIncrementalAABBPruner.obj
 0001:00192200       ?updateMapping@IncrementalAABBPruner@Gu@physx@@AEAAXIPEAVIncrementalAABBTreeNode@23@@Z 0000000180193200 f   GuIncrementalAABBPruner.obj
 0001:001922f0       ?updateObjects@IncrementalAABBPruner@Gu@physx@@UEAAXPEBIIM0PEBVPxBounds3@3@PEBUPxTransformPadded@3@@Z 00000001801932f0 f   GuIncrementalAABBPruner.obj
 0001:001924a0       ?visualize@IncrementalAABBPruner@Gu@physx@@UEBAXAEAVPxRenderOutput@3@II@Z 00000001801934a0 f   GuIncrementalAABBPruner.obj
 0001:001926b0       ??0PruningPool@Gu@physx@@QEAA@_KW4TransformCacheMode@12@@Z 00000001801936b0 f   GuPruningPool.obj
 0001:001926e0       ??1PruningPool@Gu@physx@@QEAA@XZ 00000001801936e0 f   GuPruningPool.obj
 0001:001927b0       ?addObjects@PruningPool@Gu@physx@@QEAAIPEAIPEBVPxBounds3@3@PEBUPrunerPayload@23@PEBV?$PxTransformT@M@3@I@Z 00000001801937b0 f   GuPruningPool.obj
 0001:00192a80       ?preallocate@PruningPool@Gu@physx@@QEAAXI@Z 0000000180193a80 f   GuPruningPool.obj
 0001:00192a90       ?removeObject@PruningPool@Gu@physx@@QEAAIIPEAUPrunerPayloadRemovalCallback@23@@Z 0000000180193a90 f   GuPruningPool.obj
 0001:00192cb0       ?resize@PruningPool@Gu@physx@@QEAA_NI@Z 0000000180193cb0 f   GuPruningPool.obj
 0001:00193090       ?shiftOrigin@PruningPool@Gu@physx@@QEAAXAEBV?$PxVec3T@M@3@@Z 0000000180194090 f   GuPruningPool.obj
 0001:001934e0       ?updateAndInflateBounds@PruningPool@Gu@physx@@QEAAXPEBI0PEBVPxBounds3@3@PEBUPxTransformPadded@3@IM@Z 00000001801944e0 f   GuPruningPool.obj
 0001:00194f90       ??0BucketPruner@Gu@physx@@QEAA@_K@Z 0000000180195f90 f   GuBucketPruner.obj
 0001:00194fe0       ??0BucketPrunerCore@Gu@physx@@QEAA@_N@Z 0000000180195fe0 f   GuBucketPruner.obj
 0001:00195370       ??1BucketPrunerCore@Gu@physx@@QEAA@XZ 0000000180196370 f   GuBucketPruner.obj
 0001:00195390       ??R?$BucketPrunerOverlapTraversal@UBucketPrunerAABBAABBTest@@$00@@QEBA_NAEBVBucketPrunerCore@Gu@physx@@AEBUBucketPrunerAABBAABBTest@@AEAUPrunerOverlapCallback@23@AEBVPxBounds3@3@@Z 0000000180196390 f i GuBucketPruner.obj
 0001:00195960       ??R?$BucketPrunerOverlapTraversal@UOBBAABBTest_SIMD@@$0A@@@QEBA_NAEBVBucketPrunerCore@Gu@physx@@AEBUOBBAABBTest_SIMD@@AEAUPrunerOverlapCallback@23@AEBVPxBounds3@3@@Z 0000000180196960 f i GuBucketPruner.obj
 0001:001961c0       ??R?$BucketPrunerOverlapTraversal@USphereAABBTest_SIMD@@$00@@QEBA_NAEBVBucketPrunerCore@Gu@physx@@AEBUSphereAABBTest_SIMD@@AEAUPrunerOverlapCallback@23@AEBVPxBounds3@3@@Z 00000001801971c0 f i GuBucketPruner.obj
 0001:00196770       ??_FBucketPrunerCore@Gu@physx@@QEAAXXZ 0000000180197770 f i GuBucketPruner.obj
 0001:00196780       ??_EBucketPruner@Gu@physx@@UEAAPEAXI@Z 0000000180197780 f i GuBucketPruner.obj
 0001:00196780       ??_GBucketPruner@Gu@physx@@UEAAPEAXI@Z 0000000180197780 f i GuBucketPruner.obj
 0001:00196820       ?addObject@BucketPrunerCore@Gu@physx@@QEAA_NAEBUPrunerPayload@23@AEBVPxBounds3@3@AEBV?$PxTransformT@M@3@I@Z 0000000180197820 f   GuBucketPruner.obj
 0001:00196b50       ?addObjects@BucketPruner@Gu@physx@@UEAA_NPEAIPEBVPxBounds3@3@PEBUPrunerPayload@23@PEBV?$PxTransformT@M@3@I_N@Z 0000000180197b50 f   GuBucketPruner.obj
 0001:00196be0       ?addPair@BucketPrunerMap@Gu@physx@@QEAAPEAUBucketPrunerPair@23@AEBUPrunerPayload@23@II@Z 0000000180197be0 f   GuBucketPruner.obj
 0001:00196dd0       ?allocateSortedMemory@BucketPrunerCore@Gu@physx@@AEAAXI@Z 0000000180197dd0 f   GuBucketPruner.obj
 0001:00196f90       ?classifyBoxes@BucketPrunerCore@Gu@physx@@AEAAXXZ 0000000180197f90 f   GuBucketPruner.obj
 0001:00197820       ?classifyBoxes@BucketPrunerNode@Gu@physx@@QEAAXMMIPEIAUBucketBox@23@PEIBUPrunerPayload@23@PEIBV?$PxTransformT@M@3@0PEIAU523@PEIAV63@_NI@Z 0000000180198820 f   GuBucketPruner.obj
 0001:00198130       ?build@CompanionPrunerBucket@@UEAAXXZ 0000000180199130 f   GuSecondaryPruner.obj
 0001:00198130       ?commit@BucketPruner@Gu@physx@@UEAAXXZ 0000000180199130 f   GuBucketPruner.obj
 0001:00198140       ?findPair@BucketPrunerMap@Gu@physx@@QEBAPEBUBucketPrunerPair@23@AEBUPrunerPayload@23@@Z 0000000180199140 f   GuBucketPruner.obj
 0001:00198530       ?getGlobalBounds@BucketPruner@Gu@physx@@UEBAXAEAVPxBounds3@3@@Z 0000000180199530 f   GuBucketPruner.obj
 0001:001985a0       ?getGlobalBounds@BucketPrunerCore@Gu@physx@@QEBAXAEAVPxBounds3@3@@Z 00000001801995a0 f   GuBucketPruner.obj
 0001:00198610       ?getPayloadData@BucketPruner@Gu@physx@@UEBAAEBUPrunerPayload@23@IPEAUPrunerPayloadData@23@@Z 0000000180199610 f i GuBucketPruner.obj
 0001:00198670       ?overlap@BucketPruner@Gu@physx@@UEBA_NAEBVShapeData@23@AEAUPrunerOverlapCallback@23@@Z 0000000180199670 f   GuBucketPruner.obj
 0001:00198690       ?overlap@BucketPrunerCore@Gu@physx@@QEBA_NAEBVShapeData@23@AEAUPrunerOverlapCallback@23@@Z 0000000180199690 f   GuBucketPruner.obj
 0001:00198980       ?preallocate@BucketPruner@Gu@physx@@UEAAXI@Z 0000000180199980 f i GuBucketPruner.obj
 0001:00198b50       ?purge@BucketPrunerMap@Gu@physx@@QEAAXXZ 0000000180199b50 f   GuBucketPruner.obj
 0001:00198bf0       ?raycast@BucketPruner@Gu@physx@@UEBA_NAEBV?$PxVec3T@M@3@0AEAMAEAUPrunerRaycastCallback@23@@Z 0000000180199bf0 f   GuBucketPruner.obj
 0001:00198c40       ?raycast@BucketPrunerCore@Gu@physx@@QEBA_NAEBV?$PxVec3T@M@3@0AEAMAEAUPrunerRaycastCallback@23@@Z 0000000180199c40 f   GuBucketPruner.obj
 0001:00198c80       ?reallocPairs@BucketPrunerMap@Gu@physx@@QEAAXXZ 0000000180199c80 f   GuBucketPruner.obj
 0001:00198ed0       ?release@BucketPrunerCore@Gu@physx@@QEAAXXZ 0000000180199ed0 f   GuBucketPruner.obj
 0001:00199030       ?removeMarkedObjects@BucketPrunerCore@Gu@physx@@QEAAII@Z 000000018019a030 f   GuBucketPruner.obj
 0001:00199430       ?removeObject@BucketPrunerCore@Gu@physx@@QEAA_NAEBUPrunerPayload@23@AEAI@Z 000000018019a430 f   GuBucketPruner.obj
 0001:00199700       ?removeObjects@BucketPruner@Gu@physx@@UEAAXPEBIIPEAUPrunerPayloadRemovalCallback@23@@Z 000000018019a700 f   GuBucketPruner.obj
 0001:001997b0       ?removePair@BucketPrunerMap@Gu@physx@@QEAA_NAEBUPrunerPayload@23@AEAI1@Z 000000018019a7b0 f   GuBucketPruner.obj
 0001:00199930       ?removePairInternal@BucketPrunerMap@Gu@physx@@QEAAXAEBUPrunerPayload@23@II@Z 000000018019a930 f   GuBucketPruner.obj
 0001:00199ad0       ?resizeCore@BucketPrunerCore@Gu@physx@@AEAAXXZ 000000018019aad0 f   GuBucketPruner.obj
 0001:00199d40       ?setTransform@BucketPruner@Gu@physx@@UEAA_NIAEBV?$PxTransformT@M@3@@Z 000000018019ad40 f i GuBucketPruner.obj
 0001:00199db0       ?shiftOrigin@BucketPruner@Gu@physx@@UEAAXAEBV?$PxVec3T@M@3@@Z 000000018019adb0 f   GuBucketPruner.obj
 0001:00199db0       ?shiftOrigin@CompanionPrunerBucket@@UEAAXAEBV?$PxVec3T@M@physx@@@Z 000000018019adb0 f   GuSecondaryPruner.obj
 0001:00199dc0       ?shiftOrigin@BucketPrunerCore@Gu@physx@@QEAAXAEBV?$PxVec3T@M@3@@Z 000000018019adc0 f   GuBucketPruner.obj
 0001:0019ad00       ?sweep@BucketPruner@Gu@physx@@UEBA_NAEBVShapeData@23@AEBV?$PxVec3T@M@3@AEAMAEAUPrunerRaycastCallback@23@@Z 000000018019bd00 f   GuBucketPruner.obj
 0001:0019ad20       ?sweep@BucketPrunerCore@Gu@physx@@QEBA_NAEBVShapeData@23@AEBV?$PxVec3T@M@3@AEAMAEAUPrunerRaycastCallback@23@@Z 000000018019bd20 f   GuBucketPruner.obj
 0001:0019ade0       ?updateObject@BucketPrunerCore@Gu@physx@@QEAA_NAEBVPxBounds3@3@AEBUPrunerPayload@23@AEBV?$PxTransformT@M@3@@Z 000000018019bde0 f   GuBucketPruner.obj
 0001:0019ae40       ?updateObjects@BucketPruner@Gu@physx@@UEAAXPEBIIM0PEBVPxBounds3@3@PEBUPxTransformPadded@3@@Z 000000018019be40 f   GuBucketPruner.obj
 0001:0019af50       ?visualize@BucketPruner@Gu@physx@@UEBAXAEAVPxRenderOutput@3@II@Z 000000018019bf50 f   GuBucketPruner.obj
 0001:0019af50       ?visualize@CompanionPrunerBucket@@UEBAXAEAVPxRenderOutput@physx@@I@Z 000000018019bf50 f   GuSecondaryPruner.obj
 0001:0019af60       ?visualize@BucketPrunerCore@Gu@physx@@QEBAXAEAVPxRenderOutput@3@I@Z 000000018019bf60 f   GuBucketPruner.obj
 0001:0019b480       ?addObject@MaverickNode@Gu@physx@@QEAA_NAEBUPrunerPayload@23@IAEBVPxBounds3@3@AEBV?$PxTransformT@M@3@I@Z 000000018019c480 f   GuMaverickNode.obj
 0001:0019b560       ?removeMarkedObjects@MaverickNode@Gu@physx@@QEAAII@Z 000000018019c560 f   GuMaverickNode.obj
 0001:0019b6f0       ?removeObject@MaverickNode@Gu@physx@@QEAA_NIAEAI@Z 000000018019c6f0 f   GuMaverickNode.obj
 0001:0019b880       ?shiftOrigin@MaverickNode@Gu@physx@@QEAAXAEBV?$PxVec3T@M@3@@Z 000000018019c880 f   GuMaverickNode.obj
 0001:0019b990       ?updateObject@MaverickNode@Gu@physx@@QEAA_NIAEBVPxBounds3@3@AEBV?$PxTransformT@M@3@@Z 000000018019c990 f   GuMaverickNode.obj
 0001:0019ba70       ??0ExtendedBucketPruner@Gu@physx@@QEAA@_KW4CompanionPrunerType@12@PEBVPruningPool@12@@Z 000000018019ca70 f   GuExtendedBucketPruner.obj
 0001:0019bcb0       ??1ExtendedBucketPruner@Gu@physx@@QEAA@XZ 000000018019ccb0 f   GuExtendedBucketPruner.obj
 0001:0019be30       ??R?$AABBTreeOverlap@$00U?$OBBAABBTests@$00@Gu@physx@@VAABBTree@23@UBVHNode@23@U?$MainTreeOverlapPrunerCallback@U?$OBBAABBTests@$00@Gu@physx@@@@@Gu@physx@@QEAA_NAEBVAABBTreeBounds@12@AEBVAABBTree@12@AEBU?$OBBAABBTests@$00@12@AEAU?$MainTreeOverlapPrunerCallback@U?$OBBAABBTests@$00@Gu@physx@@@@@Z 000000018019ce30 f i GuExtendedBucketPruner.obj
 0001:0019c420       ??R?$AABBTreeOverlap@$00U?$OBBAABBTests@$00@Gu@physx@@VAABBTree@23@UBVHNode@23@UOverlapCallbackAdapter@23@@Gu@physx@@QEAA_NAEBVAABBTreeBounds@12@AEBVAABBTree@12@AEBU?$OBBAABBTests@$00@12@AEAUOverlapCallbackAdapter@12@@Z 000000018019d420 f i GuExtendedBucketPruner.obj
 0001:0019c9f0       ??R?$AABBTreeOverlap@$00UAABBAABBTest@Gu@physx@@VAABBTree@23@UBVHNode@23@U?$MainTreeOverlapPrunerCallback@UAABBAABBTest@Gu@physx@@@@@Gu@physx@@QEAA_NAEBVAABBTreeBounds@12@AEBVAABBTree@12@AEBUAABBAABBTest@12@AEAU?$MainTreeOverlapPrunerCallback@UAABBAABBTest@Gu@physx@@@@@Z 000000018019d9f0 f i GuExtendedBucketPruner.obj
 0001:0019ccb0       ??R?$AABBTreeOverlap@$00UAABBAABBTest@Gu@physx@@VAABBTree@23@UBVHNode@23@UOverlapCallbackAdapter@23@@Gu@physx@@QEAA_NAEBVAABBTreeBounds@12@AEBVAABBTree@12@AEBUAABBAABBTest@12@AEAUOverlapCallbackAdapter@12@@Z 000000018019dcb0 f i GuExtendedBucketPruner.obj
 0001:0019cf50       ??R?$AABBTreeOverlap@$00UCapsuleAABBTest@Gu@physx@@VAABBTree@23@UBVHNode@23@U?$MainTreeOverlapPrunerCallback@UCapsuleAABBTest@Gu@physx@@@@@Gu@physx@@QEAA_NAEBVAABBTreeBounds@12@AEBVAABBTree@12@AEBUCapsuleAABBTest@12@AEAU?$MainTreeOverlapPrunerCallback@UCapsuleAABBTest@Gu@physx@@@@@Z 000000018019df50 f i GuExtendedBucketPruner.obj
 0001:0019d310       ??R?$AABBTreeOverlap@$00UCapsuleAABBTest@Gu@physx@@VAABBTree@23@UBVHNode@23@UOverlapCallbackAdapter@23@@Gu@physx@@QEAA_NAEBVAABBTreeBounds@12@AEBVAABBTree@12@AEBUCapsuleAABBTest@12@AEAUOverlapCallbackAdapter@12@@Z 000000018019e310 f i GuExtendedBucketPruner.obj
 0001:0019d6c0       ??R?$AABBTreeOverlap@$00USphereAABBTest@Gu@physx@@VAABBTree@23@UBVHNode@23@U?$MainTreeOverlapPrunerCallback@USphereAABBTest@Gu@physx@@@@@Gu@physx@@QEAA_NAEBVAABBTreeBounds@12@AEBVAABBTree@12@AEBUSphereAABBTest@12@AEAU?$MainTreeOverlapPrunerCallback@USphereAABBTest@Gu@physx@@@@@Z 000000018019e6c0 f i GuExtendedBucketPruner.obj
 0001:0019d9f0       ??R?$AABBTreeOverlap@$00USphereAABBTest@Gu@physx@@VAABBTree@23@UBVHNode@23@UOverlapCallbackAdapter@23@@Gu@physx@@QEAA_NAEBVAABBTreeBounds@12@AEBVAABBTree@12@AEBUSphereAABBTest@12@AEAUOverlapCallbackAdapter@12@@Z 000000018019e9f0 f i GuExtendedBucketPruner.obj
 0001:0019dd00       ??R?$AABBTreeRaycast@$00$00VAABBTree@Gu@physx@@UBVHNode@23@U?$MainTreeRaycastPrunerCallback@$00@@@Gu@physx@@QEAA_NAEBVAABBTreeBounds@12@AEBVAABBTree@12@AEBV?$PxVec3T@M@2@2AEAM2AEAU?$MainTreeRaycastPrunerCallback@$00@@@Z 000000018019ed00 f i GuExtendedBucketPruner.obj
 0001:0019e440       ??R?$AABBTreeRaycast@$00$00VAABBTree@Gu@physx@@UBVHNode@23@URaycastCallbackAdapter@23@@Gu@physx@@QEAA_NAEBVAABBTreeBounds@12@AEBVAABBTree@12@AEBV?$PxVec3T@M@2@2AEAM2AEAURaycastCallbackAdapter@12@@Z 000000018019f440 f i GuExtendedBucketPruner.obj
 0001:0019eb40       ??R?$AABBTreeRaycast@$0A@$00VAABBTree@Gu@physx@@UBVHNode@23@U?$MainTreeRaycastPrunerCallback@$0A@@@@Gu@physx@@QEAA_NAEBVAABBTreeBounds@12@AEBVAABBTree@12@AEBV?$PxVec3T@M@2@2AEAM2AEAU?$MainTreeRaycastPrunerCallback@$0A@@@@Z 000000018019fb40 f i GuExtendedBucketPruner.obj
 0001:0019f1c0       ??R?$AABBTreeRaycast@$0A@$00VAABBTree@Gu@physx@@UBVHNode@23@URaycastCallbackAdapter@23@@Gu@physx@@QEAA_NAEBVAABBTreeBounds@12@AEBVAABBTree@12@AEBV?$PxVec3T@M@2@2AEAM2AEAURaycastCallbackAdapter@12@@Z 00000001801a01c0 f i GuExtendedBucketPruner.obj
 0001:0019f810       ?addTree@ExtendedBucketPruner@Gu@physx@@QEAAXAEBVAABBTreeMergeData@23@I@Z 00000001801a0810 f   GuExtendedBucketPruner.obj
 0001:0019f9a0       ?buildMainAABBTree@ExtendedBucketPruner@Gu@physx@@AEAAXXZ 00000001801a09a0 f   GuExtendedBucketPruner.obj
 0001:0019fa50       ?create@?$PxHashBase@V?$PxPair@$$CBUPrunerPayload@Gu@physx@@UExtendedBucketPrunerData@23@@physx@@UPrunerPayload@Gu@2@UExtendedBucketPrunerHash@42@UGetKey@?$PxHashMapBase@UPrunerPayload@Gu@physx@@UExtendedBucketPrunerData@23@UExtendedBucketPrunerHash@23@VPxAllocator@3@@2@VPxAllocator@2@$00@physx@@QEAAPEAV?$PxPair@$$CBUPrunerPayload@Gu@physx@@UExtendedBucketPrunerData@23@@2@AEBUPrunerPayload@Gu@2@AEA_N@Z 00000001801a0a50 f i GuExtendedBucketPruner.obj
 0001:0019fc30       ?eraseInternal@?$PxHashBase@V?$PxPair@$$CBUPrunerPayload@Gu@physx@@UExtendedBucketPrunerData@23@@physx@@UPrunerPayload@Gu@2@UExtendedBucketPrunerHash@42@UGetKey@?$PxHashMapBase@UPrunerPayload@Gu@physx@@UExtendedBucketPrunerData@23@UExtendedBucketPrunerHash@23@VPxAllocator@3@@2@VPxAllocator@2@$00@physx@@AEAA_NPEAI@Z 00000001801a0c30 f i GuExtendedBucketPruner.obj
 0001:0019fd40       ?find@?$PxHashMapBase@UPrunerPayload@Gu@physx@@UExtendedBucketPrunerData@23@UExtendedBucketPrunerHash@23@VPxAllocator@3@@physx@@QEBAPEBV?$PxPair@$$CBUPrunerPayload@Gu@physx@@UExtendedBucketPrunerData@23@@2@AEBUPrunerPayload@Gu@2@@Z 00000001801a0d40 f i GuExtendedBucketPruner.obj
 0001:0019fe30       ?getGlobalBounds@ExtendedBucketPruner@Gu@physx@@QEBAXAEAVPxBounds3@3@@Z 00000001801a0e30 f   GuExtendedBucketPruner.obj
 0001:0019ff00       ?invalidateObject@ExtendedBucketPruner@Gu@physx@@AEAAXAEBUExtendedBucketPrunerData@23@IAEBUPrunerPayload@23@I@Z 00000001801a0f00 f   GuExtendedBucketPruner.obj
 0001:001a0040       ?overlap@ExtendedBucketPruner@Gu@physx@@QEBA_NAEBVShapeData@23@AEAUPrunerOverlapCallback@23@@Z 00000001801a1040 f   GuExtendedBucketPruner.obj
 0001:001a0720       ?raycast@ExtendedBucketPruner@Gu@physx@@QEBA_NAEBV?$PxVec3T@M@3@0AEAMAEAUPrunerRaycastCallback@23@@Z 00000001801a1720 f   GuExtendedBucketPruner.obj
 0001:001a0800       ?refitMarkedNodes@ExtendedBucketPruner@Gu@physx@@QEAAXPEBVPxBounds3@3@@Z 00000001801a1800 f   GuExtendedBucketPruner.obj
 0001:001a0db0       ?release@ExtendedBucketPruner@Gu@physx@@QEAAXXZ 00000001801a1db0 f   GuExtendedBucketPruner.obj
 0001:001a0e80       ?removeMarkedObjects@ExtendedBucketPruner@Gu@physx@@QEAAII@Z 00000001801a1e80 f   GuExtendedBucketPruner.obj
 0001:001a11a0       ?removeObject@ExtendedBucketPruner@Gu@physx@@QEAA_NAEBUPrunerPayload@23@II0I@Z 00000001801a21a0 f   GuExtendedBucketPruner.obj
 0001:001a1390       ?reserveInternal@?$PxHashBase@V?$PxPair@$$CBUPrunerPayload@Gu@physx@@UExtendedBucketPrunerData@23@@physx@@UPrunerPayload@Gu@2@UExtendedBucketPrunerHash@42@UGetKey@?$PxHashMapBase@UPrunerPayload@Gu@physx@@UExtendedBucketPrunerData@23@UExtendedBucketPrunerHash@23@VPxAllocator@3@@2@VPxAllocator@2@$00@physx@@AEAAXI@Z 00000001801a2390 f i GuExtendedBucketPruner.obj
 0001:001a15a0       ?resize@ExtendedBucketPruner@Gu@physx@@AEAAXI@Z 00000001801a25a0 f   GuExtendedBucketPruner.obj
 0001:001a1750       ?shiftOrigin@ExtendedBucketPruner@Gu@physx@@QEAAXAEBV?$PxVec3T@M@3@@Z 00000001801a2750 f   GuExtendedBucketPruner.obj
 0001:001a17d0       ?swapIndex@ExtendedBucketPruner@Gu@physx@@QEAAXIAEBUPrunerPayload@23@I_N@Z 00000001801a27d0 f   GuExtendedBucketPruner.obj
 0001:001a18a0       ?sweep@ExtendedBucketPruner@Gu@physx@@QEBA_NAEBVShapeData@23@AEBV?$PxVec3T@M@3@AEAMAEAUPrunerRaycastCallback@23@@Z 00000001801a28a0 f   GuExtendedBucketPruner.obj
 0001:001a1a20       ?updateObject@ExtendedBucketPruner@Gu@physx@@QEAA_NAEBVPxBounds3@3@AEBV?$PxTransformT@M@3@AEBUPrunerPayload@23@II@Z 00000001801a2a20 f   GuExtendedBucketPruner.obj
 0001:001a1af0       ?visualize@ExtendedBucketPruner@Gu@physx@@QEBAXAEAVPxRenderOutput@3@I@Z 00000001801a2af0 f   GuExtendedBucketPruner.obj
 0001:001a1b80       ??0?$OBBAABBTests@$00@Gu@physx@@QEAA@AEBV?$PxVec3T@M@2@AEBV?$PxMat33T@M@2@0@Z 00000001801a2b80 f i GuSecondaryPruner.obj
 0001:001a3ab0       ??_ECompanionPruner@Gu@physx@@UEAAPEAXI@Z 00000001801a4ab0 f i GuSecondaryPruner.obj
 0001:001a3ab0       ??_GCompanionPruner@Gu@physx@@UEAAPEAXI@Z 00000001801a4ab0 f i GuSecondaryPruner.obj
 0001:001a3b10       ??_ECompanionPrunerAABBTree@@UEAAPEAXI@Z 00000001801a4b10 f i GuSecondaryPruner.obj
 0001:001a3b10       ??_GCompanionPrunerAABBTree@@UEAAPEAXI@Z 00000001801a4b10 f i GuSecondaryPruner.obj
 0001:001a3bd0       ??_ECompanionPrunerBucket@@UEAAPEAXI@Z 00000001801a4bd0 f i GuSecondaryPruner.obj
 0001:001a3bd0       ??_GCompanionPrunerBucket@@UEAAPEAXI@Z 00000001801a4bd0 f i GuSecondaryPruner.obj
 0001:001a3c50       ??_ECompanionPrunerIncremental@@UEAAPEAXI@Z 00000001801a4c50 f i GuSecondaryPruner.obj
 0001:001a3c50       ??_GCompanionPrunerIncremental@@UEAAPEAXI@Z 00000001801a4c50 f i GuSecondaryPruner.obj
 0001:001a3cd0       ?addObject@CompanionPrunerAABBTree@@UEAA_NAEBUPrunerPayload@Gu@physx@@IAEBVPxBounds3@4@AEBV?$PxTransformT@M@4@II@Z 00000001801a4cd0 f   GuSecondaryPruner.obj
 0001:001a3f30       ?addObject@CompanionPrunerBucket@@UEAA_NAEBUPrunerPayload@Gu@physx@@IAEBVPxBounds3@4@AEBV?$PxTransformT@M@4@II@Z 00000001801a4f30 f i GuSecondaryPruner.obj
 0001:001a3f50       ?addObject@CompanionPrunerIncremental@@UEAA_NAEBUPrunerPayload@Gu@physx@@IAEBVPxBounds3@4@AEBV?$PxTransformT@M@4@II@Z 00000001801a4f50 f i GuSecondaryPruner.obj
 0001:001a3f70       ?addObjectInternal@CompanionPrunerAABBTree@@QEAA_NII@Z 00000001801a4f70 f   GuSecondaryPruner.obj
 0001:001a4120       ?build@CompanionPrunerAABBTree@@UEAAXXZ 00000001801a5120 f   GuSecondaryPruner.obj
 0001:001a4610       ?createCompanionPruner@Gu@physx@@YAPEAVCompanionPruner@12@_KW4CompanionPrunerType@12@PEBVPruningPool@12@@Z 00000001801a5610 f   GuSecondaryPruner.obj
 0001:001a4810       ?getGlobalBounds@CompanionPrunerAABBTree@@UEBAXAEAVPxBounds3@physx@@@Z 00000001801a5810 f   GuSecondaryPruner.obj
 0001:001a4900       ?getGlobalBounds@CompanionPrunerBucket@@UEBAXAEAVPxBounds3@physx@@@Z 00000001801a5900 f i GuSecondaryPruner.obj
 0001:001a4910       ?getGlobalBounds@CompanionPrunerIncremental@@UEBAXAEAVPxBounds3@physx@@@Z 00000001801a5910 f i GuSecondaryPruner.obj
 0001:001a4920       ?getNbObjects@CompanionPrunerAABBTree@@UEBAIXZ 00000001801a5920 f   GuSecondaryPruner.obj
 0001:001a4930       ?getNbObjects@CompanionPrunerBucket@@UEBAIXZ 00000001801a5930 f i GuSecondaryPruner.obj
 0001:001a4940       ?getNbObjects@CompanionPrunerIncremental@@UEBAIXZ 00000001801a5940 f i GuSecondaryPruner.obj
 0001:001a4950       ?growAndPushBack@?$PxArray@ULocalData@CompanionPrunerAABBTree@@V?$PxReflectionAllocator@ULocalData@CompanionPrunerAABBTree@@@physx@@@physx@@IEAAAEAULocalData@CompanionPrunerAABBTree@@AEBU34@@Z 00000001801a5950 f i GuSecondaryPruner.obj
 0001:001a4a90       ?overlap@CompanionPrunerAABBTree@@UEBA_NAEBVShapeData@Gu@physx@@AEAUPrunerOverlapCallback@34@@Z 00000001801a5a90 f   GuSecondaryPruner.obj
 0001:001a5980       ?overlap@CompanionPrunerBucket@@UEBA_NAEBVShapeData@Gu@physx@@AEAUPrunerOverlapCallback@34@@Z 00000001801a6980 f i GuSecondaryPruner.obj
 0001:001a59a0       ?overlap@CompanionPrunerIncremental@@UEBA_NAEBVShapeData@Gu@physx@@AEAUPrunerOverlapCallback@34@@Z 00000001801a69a0 f i GuSecondaryPruner.obj
 0001:001a59c0       ?raycast@CompanionPrunerAABBTree@@UEBA_NAEBV?$PxVec3T@M@physx@@0AEAMAEAUPrunerRaycastCallback@Gu@3@@Z 00000001801a69c0 f   GuSecondaryPruner.obj
 0001:001a5d70       ?raycast@CompanionPrunerBucket@@UEBA_NAEBV?$PxVec3T@M@physx@@0AEAMAEAUPrunerRaycastCallback@Gu@3@@Z 00000001801a6d70 f i GuSecondaryPruner.obj
 0001:001a5d90       ?raycast@CompanionPrunerIncremental@@UEBA_NAEBV?$PxVec3T@M@physx@@0AEAMAEAUPrunerRaycastCallback@Gu@3@@Z 00000001801a6d90 f i GuSecondaryPruner.obj
 0001:001a5db0       ?release@CompanionPrunerAABBTree@@UEAAXXZ 00000001801a6db0 f   GuSecondaryPruner.obj
 0001:001a5dc0       ?release@CompanionPrunerBucket@@UEAAXXZ 00000001801a6dc0 f i GuSecondaryPruner.obj
 0001:001a5dd0       ?release@CompanionPrunerIncremental@@UEAAXXZ 00000001801a6dd0 f i GuSecondaryPruner.obj
 0001:001a5de0       ?releaseInternal@CompanionPrunerAABBTree@@QEAAXXZ 00000001801a6de0 f   GuSecondaryPruner.obj
 0001:001a5e60       ?removeMarkedObjects@CompanionPrunerAABBTree@@UEAAII@Z 00000001801a6e60 f   GuSecondaryPruner.obj
 0001:001a5e80       ?removeMarkedObjects@CompanionPrunerBucket@@UEAAII@Z 00000001801a6e80 f i GuSecondaryPruner.obj
 0001:001a5e90       ?removeMarkedObjects@CompanionPrunerIncremental@@UEAAII@Z 00000001801a6e90 f i GuSecondaryPruner.obj
 0001:001a5ea0       ?removeObject@CompanionPrunerAABBTree@@UEAA_NAEBUPrunerPayload@Gu@physx@@III@Z 00000001801a6ea0 f   GuSecondaryPruner.obj
 0001:001a5f40       ?removeObject@CompanionPrunerBucket@@UEAA_NAEBUPrunerPayload@Gu@physx@@III@Z 00000001801a6f40 f i GuSecondaryPruner.obj
 0001:001a5f60       ?removeObject@CompanionPrunerIncremental@@UEAA_NAEBUPrunerPayload@Gu@physx@@III@Z 00000001801a6f60 f i GuSecondaryPruner.obj
 0001:001a5f80       ?shiftOrigin@CompanionPrunerAABBTree@@UEAAXAEBV?$PxVec3T@M@physx@@@Z 00000001801a6f80 f   GuSecondaryPruner.obj
 0001:001a6080       ?shiftOrigin@CompanionPrunerIncremental@@UEAAXAEBV?$PxVec3T@M@physx@@@Z 00000001801a7080 f i GuSecondaryPruner.obj
 0001:001a6090       ?swapIndex@CompanionPrunerIncremental@@UEAAXII@Z 00000001801a7090 f i GuSecondaryPruner.obj
 0001:001a60a0       ?sweep@CompanionPrunerAABBTree@@UEBA_NAEBVShapeData@Gu@physx@@AEBV?$PxVec3T@M@4@AEAMAEAUPrunerRaycastCallback@34@@Z 00000001801a70a0 f   GuSecondaryPruner.obj
 0001:001a6580       ?sweep@CompanionPrunerBucket@@UEBA_NAEBVShapeData@Gu@physx@@AEBV?$PxVec3T@M@4@AEAMAEAUPrunerRaycastCallback@34@@Z 00000001801a7580 f i GuSecondaryPruner.obj
 0001:001a65a0       ?sweep@CompanionPrunerIncremental@@UEBA_NAEBVShapeData@Gu@physx@@AEBV?$PxVec3T@M@4@AEAMAEAUPrunerRaycastCallback@34@@Z 00000001801a75a0 f i GuSecondaryPruner.obj
 0001:001a65c0       ?timeStampChange@CompanionPrunerIncremental@@UEAAXXZ 00000001801a75c0 f i GuSecondaryPruner.obj
 0001:001a65e0       ?updateObject@CompanionPrunerAABBTree@@UEAA_NAEBUPrunerPayload@Gu@physx@@IAEBVPxBounds3@4@AEBV?$PxTransformT@M@4@I@Z 00000001801a75e0 f   GuSecondaryPruner.obj
 0001:001a6660       ?updateObject@CompanionPrunerBucket@@UEAA_NAEBUPrunerPayload@Gu@physx@@IAEBVPxBounds3@4@AEBV?$PxTransformT@M@4@I@Z 00000001801a7660 f i GuSecondaryPruner.obj
 0001:001a6680       ?updateObject@CompanionPrunerIncremental@@UEAA_NAEBUPrunerPayload@Gu@physx@@IAEBVPxBounds3@4@AEBV?$PxTransformT@M@4@I@Z 00000001801a7680 f i GuSecondaryPruner.obj
 0001:001a6690       ?visualize@CompanionPrunerAABBTree@@UEBAXAEAVPxRenderOutput@physx@@I@Z 00000001801a7690 f   GuSecondaryPruner.obj
 0001:001a66b0       ?visualize@CompanionPrunerIncremental@@UEBAXAEAVPxRenderOutput@physx@@I@Z 00000001801a76b0 f i GuSecondaryPruner.obj
 0001:001a66c0       ??0AABBPruner@Gu@physx@@QEAA@_N_KW4CompanionPrunerType@12@W4BVHBuildStrategy@12@I@Z 00000001801a76c0 f   GuAABBPruner.obj
 0001:001a67f0       ??1AABBPruner@Gu@physx@@UEAA@XZ 00000001801a77f0 f   GuAABBPruner.obj
 0001:001a6960       ??_EAABBPruner@Gu@physx@@UEAAPEAXI@Z 00000001801a7960 f i GuAABBPruner.obj
 0001:001a6960       ??_GAABBPruner@Gu@physx@@UEAAPEAXI@Z 00000001801a7960 f i GuAABBPruner.obj
 0001:001a69d0       ?addObjects@AABBPruner@Gu@physx@@UEAA_NPEAIPEBVPxBounds3@3@PEBUPrunerPayload@23@PEBV?$PxTransformT@M@3@I_N@Z 00000001801a79d0 f   GuAABBPruner.obj
 0001:001a6cb0       ?buildStep@AABBPruner@Gu@physx@@UEAA_N_N@Z 00000001801a7cb0 f   GuAABBPruner.obj
 0001:001a70b0       ?commit@AABBPruner@Gu@physx@@UEAAXXZ 00000001801a80b0 f   GuAABBPruner.obj
 0001:001a7840       ?fullRebuildAABBTree@AABBPruner@Gu@physx@@QEAA_NXZ 00000001801a8840 f   GuAABBPruner.obj
 0001:001a7a50       ?getGlobalBounds@AABBPruner@Gu@physx@@UEBAXAEAVPxBounds3@3@@Z 00000001801a8a50 f   GuAABBPruner.obj
 0001:001a7b70       ?getPayloadData@AABBPruner@Gu@physx@@UEBAAEBUPrunerPayload@23@IPEAUPrunerPayloadData@23@@Z 00000001801a8b70 f i GuAABBPruner.obj
 0001:001a7bd0       ?growAndPushBack@?$PxArray@UNewTreeFixup@AABBPruner@Gu@physx@@V?$PxReflectionAllocator@UNewTreeFixup@AABBPruner@Gu@physx@@@4@@physx@@IEAAAEAUNewTreeFixup@AABBPruner@Gu@2@AEBU3452@@Z 00000001801a8bd0 f i GuAABBPruner.obj
 0001:001a7d10       ?isDynamic@AABBPruner@Gu@physx@@UEBA_NXZ 00000001801a8d10 f i GuAABBPruner.obj
 0001:001a7d20       ?merge@AABBPruner@Gu@physx@@UEAAXPEBX@Z 00000001801a8d20 f   GuAABBPruner.obj
 0001:001a7da0       ?overlap@AABBPruner@Gu@physx@@UEBA_NAEBVShapeData@23@AEAUPrunerOverlapCallback@23@@Z 00000001801a8da0 f   GuAABBPruner.obj
 0001:001a84e0       ?preallocate@AABBPruner@Gu@physx@@UEAAXI@Z 00000001801a94e0 f i GuAABBPruner.obj
 0001:001a84f0       ?prepareBuild@AABBPruner@Gu@physx@@UEAA_NXZ 00000001801a94f0 f   GuAABBPruner.obj
 0001:001a8700       ?purge@AABBPruner@Gu@physx@@UEAAXXZ 00000001801a9700 f   GuAABBPruner.obj
 0001:001a8720       ?raycast@AABBPruner@Gu@physx@@UEBA_NAEBV?$PxVec3T@M@3@0AEAMAEAUPrunerRaycastCallback@23@@Z 00000001801a9720 f   GuAABBPruner.obj
 0001:001a8810       ?refitUpdatedAndRemoved@AABBPruner@Gu@physx@@QEAAXXZ 00000001801a9810 f   GuAABBPruner.obj
 0001:001a88e0       ?release@AABBPruner@Gu@physx@@QEAAXXZ 00000001801a98e0 f   GuAABBPruner.obj
 0001:001a8a20       ?removeObjects@AABBPruner@Gu@physx@@UEAAXPEBIIPEAUPrunerPayloadRemovalCallback@23@@Z 00000001801a9a20 f   GuAABBPruner.obj
 0001:001a8cf0       ?setRebuildRateHint@AABBPruner@Gu@physx@@UEAAXI@Z 00000001801a9cf0 f   GuAABBPruner.obj
 0001:001a8d10       ?setTransform@AABBPruner@Gu@physx@@UEAA_NIAEBV?$PxTransformT@M@3@@Z 00000001801a9d10 f i GuAABBPruner.obj
 0001:001a8d80       ?shiftOrigin@AABBPruner@Gu@physx@@UEAAXAEBV?$PxVec3T@M@3@@Z 00000001801a9d80 f   GuAABBPruner.obj
 0001:001a8df0       ?sweep@AABBPruner@Gu@physx@@UEBA_NAEBVShapeData@23@AEBV?$PxVec3T@M@3@AEAMAEAUPrunerRaycastCallback@23@@Z 00000001801a9df0 f   GuAABBPruner.obj
 0001:001a8f70       ?updateObjects@AABBPruner@Gu@physx@@UEAAXPEBIIM0PEBVPxBounds3@3@PEBUPxTransformPadded@3@@Z 00000001801a9f70 f   GuAABBPruner.obj
 0001:001a9220       ?visualize@AABBPruner@Gu@physx@@UEBAXAEAVPxRenderOutput@3@II@Z 00000001801aa220 f   GuAABBPruner.obj
 0001:001a92d0       ??0ActorShapeMap@Gu@physx@@QEAA@XZ 00000001801aa2d0 f   GuActorShapeMap.obj
 0001:001a9330       ??1ActorShapeMap@Gu@physx@@QEAA@XZ 00000001801aa330 f   GuActorShapeMap.obj
 0001:001a9390       ?add@ActorShapeMap@Gu@physx@@QEAA_NIPEBX0_K@Z 00000001801aa390 f   GuActorShapeMap.obj
 0001:001a9540       ?create@?$PxHashBase@V?$PxPair@$$CBUActorShape@ActorShapeMap@Gu@physx@@_K@physx@@UActorShape@ActorShapeMap@Gu@2@U?$PxHash@UActorShape@ActorShapeMap@Gu@physx@@@2@UGetKey@?$PxHashMapBase@UActorShape@ActorShapeMap@Gu@physx@@_KU?$PxHash@UActorShape@ActorShapeMap@Gu@physx@@@4@VPxAllocator@4@@2@VPxAllocator@2@$00@physx@@QEAAPEAV?$PxPair@$$CBUActorShape@ActorShapeMap@Gu@physx@@_K@2@AEBUActorShape@ActorShapeMap@Gu@2@AEA_N@Z 00000001801aa540 f i GuActorShapeMap.obj
 0001:001a9720       ?erase@?$PxHashBase@V?$PxPair@$$CBUActorShape@ActorShapeMap@Gu@physx@@_K@physx@@UActorShape@ActorShapeMap@Gu@2@U?$PxHash@UActorShape@ActorShapeMap@Gu@physx@@@2@UGetKey@?$PxHashMapBase@UActorShape@ActorShapeMap@Gu@physx@@_KU?$PxHash@UActorShape@ActorShapeMap@Gu@physx@@@4@VPxAllocator@4@@2@VPxAllocator@2@$00@physx@@QEAA_NAEBUActorShape@ActorShapeMap@Gu@2@AEAV?$PxPair@$$CBUActorShape@ActorShapeMap@Gu@physx@@_K@2@@Z 00000001801aa720 f i GuActorShapeMap.obj
 0001:001a9930       ?find@ActorShapeMap@Gu@physx@@QEBA_KIPEBX0@Z 00000001801aa930 f   GuActorShapeMap.obj
 0001:001a9a20       ?remove@ActorShapeMap@Gu@physx@@QEAA_NIPEBX0PEA_K@Z 00000001801aaa20 f   GuActorShapeMap.obj
 0001:001a9ab0       ?reserveInternal@?$PxHashBase@V?$PxPair@$$CBUActorShape@ActorShapeMap@Gu@physx@@_K@physx@@UActorShape@ActorShapeMap@Gu@2@U?$PxHash@UActorShape@ActorShapeMap@Gu@physx@@@2@UGetKey@?$PxHashMapBase@UActorShape@ActorShapeMap@Gu@physx@@_KU?$PxHash@UActorShape@ActorShapeMap@Gu@physx@@@4@VPxAllocator@4@@2@VPxAllocator@2@$00@physx@@AEAAXI@Z 00000001801aaab0 f i GuActorShapeMap.obj
 0001:001a9cc0       ??0QuerySystem@Gu@physx@@QEAA@_KMAEBVAdapter@12@_N@Z 00000001801aacc0 f   GuQuerySystem.obj
 0001:001a9d90       ??1QuerySystem@Gu@physx@@QEAA@XZ 00000001801aad90 f   GuQuerySystem.obj
 0001:001a9fc0       ??_GPrunerExt@QuerySystem@Gu@physx@@QEAAPEAXI@Z 00000001801aafc0 f i GuQuerySystem.obj
 0001:001aa0e0       ?addPruner@QuerySystem@Gu@physx@@QEAAIPEAVPruner@23@I@Z 00000001801ab0e0 f   GuQuerySystem.obj
 0001:001aa200       ?addPrunerShape@QuerySystem@Gu@physx@@QEAA_KAEBUPrunerPayload@23@I_NAEBV?$PxTransformT@M@3@PEBVPxBounds3@3@@Z 00000001801ab200 f   GuQuerySystem.obj
 0001:001aa350       ?addToDirtyList@PrunerExt@QuerySystem@Gu@physx@@QEAAXIIAEBV?$PxTransformT@M@4@PEBVPxBounds3@4@@Z 00000001801ab350 f   GuQuerySystem.obj
 0001:001aa5c0       ?commitUpdates@QuerySystem@Gu@physx@@QEAAXXZ 00000001801ab5c0 f   GuQuerySystem.obj
 0001:001aa6d0       ?createTreeOfPruners@QuerySystem@Gu@physx@@QEAAXXZ 00000001801ab6d0 f   GuQuerySystem.obj
 0001:001aa8a0       ?flushMemory@QuerySystem@Gu@physx@@QEAAXXZ 00000001801ab8a0 f   GuQuerySystem.obj
 0001:001aa930       ?getPayloadData@QuerySystem@Gu@physx@@QEBAAEBUPrunerPayload@23@_KPEAUPrunerPayloadData@23@@Z 00000001801ab930 f   GuQuerySystem.obj
 0001:001aa950       ?growAndPushBack@?$PxArray@PEAUPrunerExt@QuerySystem@Gu@physx@@V?$PxReflectionAllocator@PEAUPrunerExt@QuerySystem@Gu@physx@@@4@@physx@@IEAAAEAPEAUPrunerExt@QuerySystem@Gu@2@AEBQEAU3452@@Z 00000001801ab950 f i GuQuerySystem.obj
 0001:001aaa90       ?overlap@QuerySystem@Gu@physx@@QEBAXAEBVShapeData@23@AEAUPrunerOverlapCallback@23@PEBVPrunerFilter@23@@Z 00000001801aba90 f   GuQuerySystem.obj
 0001:001aab90       ?processDirtyList@PrunerExt@QuerySystem@Gu@physx@@QEAA_NAEBVAdapter@34@M@Z 00000001801abb90 f   GuQuerySystem.obj
 0001:001aadd0       ?processDirtyLists@QuerySystem@Gu@physx@@AEAAXXZ 00000001801abdd0 f   GuQuerySystem.obj
 0001:001aaf30       ?raycast@QuerySystem@Gu@physx@@QEBAXAEBV?$PxVec3T@M@3@0AEAMAEAUPrunerRaycastCallback@23@PEBVPrunerFilter@23@@Z 00000001801abf30 f   GuQuerySystem.obj
 0001:001ab060       ?recreate@?$PxArray@UData@PrunerExt@QuerySystem@Gu@physx@@V?$PxReflectionAllocator@UData@PrunerExt@QuerySystem@Gu@physx@@@5@@physx@@IEAAXI@Z 00000001801ac060 f i GuQuerySystem.obj
 0001:001ab420       ?removePruner@QuerySystem@Gu@physx@@QEAAXI@Z 00000001801ac420 f   GuQuerySystem.obj
 0001:001ab500       ?removePrunerShape@QuerySystem@Gu@physx@@QEAAX_KPEAUPrunerPayloadRemovalCallback@23@@Z 00000001801ac500 f   GuQuerySystem.obj
 0001:001ab760       ?sweep@QuerySystem@Gu@physx@@QEBAXAEBVShapeData@23@AEBV?$PxVec3T@M@3@AEAMAEAUPrunerRaycastCallback@23@PEBVPrunerFilter@23@@Z 00000001801ac760 f   GuQuerySystem.obj
 0001:001ab890       ?sync@QuerySystem@Gu@physx@@QEAAXIPEBI0PEBVPxBounds3@3@PEBUPxTransformPadded@3@I@Z 00000001801ac890 f   GuQuerySystem.obj
 0001:001ab940       ?update@QuerySystem@Gu@physx@@QEAAX_N0@Z 00000001801ac940 f   GuQuerySystem.obj
 0001:001abab0       ?updatePrunerShape@QuerySystem@Gu@physx@@QEAAX_K_NAEBV?$PxTransformT@M@3@PEBVPxBounds3@3@@Z 00000001801acab0 f   GuQuerySystem.obj
 0001:001abca0       createAABBPruner           00000001801acca0 f   GuFactory.obj
 0001:001abd60       createBucketPruner         00000001801acd60 f   GuFactory.obj
 0001:001abdf0       createIncrementalPruner    00000001801acdf0 f   GuFactory.obj
 0001:001abe80       ??$PxSmallSort@I$$CBUSortBoundsPredicate@physx@@@physx@@YAXPEAIHHAEBUSortBoundsPredicate@0@@Z 00000001801ace80 f i GuRTreeCooking.obj
 0001:001ac0e0       ??$PxSort@IU?$PxLess@I@physx@@V?$PxReflectionAllocator@I@2@@physx@@YAXPEAIIAEBU?$PxLess@I@0@AEBV?$PxReflectionAllocator@I@0@I@Z 00000001801ad0e0 f i GuRTreeCooking.obj
 0001:001ac550       ??$PxSort@IUSortBoundsPredicate@physx@@V?$PxReflectionAllocator@I@2@@physx@@YAXPEAIIAEBUSortBoundsPredicate@0@AEBV?$PxReflectionAllocator@I@0@I@Z 00000001801ad550 f i GuRTreeCooking.obj
 0001:001aca70       ??$quickSelectFirstK@UBoundsLTE@physx@@@quickSelect@physx@@YAXPEIAIIIIAEBUBoundsLTE@1@@Z 00000001801ada70 f i GuRTreeCooking.obj
 0001:001acc40       ?allocate@?$PxArray@UInterval@physx@@V?$PxInlineAllocator@$0CAAA@V?$PxReflectionAllocator@UInterval@physx@@@physx@@@2@@physx@@IEAAPEAUInterval@2@IPEAI@Z 00000001801adc40 f i GuRTreeCooking.obj
 0001:001ada10       ?buildFromTriangles@RTreeCooker@physx@@SAXAEAURTree@Gu@2@PEBV?$PxVec3T@M@2@IPEBGPEBIIAEAV?$PxArray@IV?$PxReflectionAllocator@I@physx@@@2@PEAURemapCallback@12@MW4Enum@PxMeshCookingHint@2@@Z 00000001801aea10 f   GuRTreeCooking.obj
 0001:001adcd0       ?copy@?$PxArray@URTreeNodeNQ@physx@@V?$PxReflectionAllocator@URTreeNodeNQ@physx@@@2@@physx@@KAXPEAURTreeNodeNQ@2@0PEBU32@@Z 00000001801aecd0 f i GuRTreeCooking.obj
 0001:001ade70       ?growAndPushBack@?$PxArray@UInterval@physx@@V?$PxInlineAllocator@$0CAAA@V?$PxReflectionAllocator@UInterval@physx@@@physx@@@2@@physx@@IEAAAEAUInterval@2@AEBU32@@Z 00000001801aee70 f i GuRTreeCooking.obj
 0001:001adf60       ?growAndPushBack@?$PxArray@UPxBounds3V@physx@@V?$PxReflectionAllocator@UPxBounds3V@physx@@@2@@physx@@IEAAAEAUPxBounds3V@2@AEBU32@@Z 00000001801aef60 f i GuRTreeCooking.obj
 0001:001ae0b0       ?growAndPushBack@?$PxArray@URTreeNodeNQ@physx@@V?$PxReflectionAllocator@URTreeNodeNQ@physx@@@2@@physx@@IEAAAEAURTreeNodeNQ@2@AEBU32@@Z 00000001801af0b0 f i GuRTreeCooking.obj
 0001:001ae210       ?growAndPushBack@?$PxArray@URTreeNodeQ@Gu@physx@@V?$PxReflectionAllocator@URTreeNodeQ@Gu@physx@@@3@@physx@@IEAAAEAURTreeNodeQ@Gu@2@AEBU342@@Z 00000001801af210 f i GuRTreeCooking.obj
 0001:001ae370       ?recreate@?$PxArray@UPxBounds3V@physx@@V?$PxReflectionAllocator@UPxBounds3V@physx@@@2@@physx@@IEAAXI@Z 00000001801af370 f i GuRTreeCooking.obj
 0001:001ae490       ?recreate@?$PxArray@URTreeNodeNQ@physx@@V?$PxReflectionAllocator@URTreeNodeNQ@physx@@@2@@physx@@IEAAXI@Z 00000001801af490 f i GuRTreeCooking.obj
 0001:001ae580       ?recreate@?$PxArray@URTreeNodeQ@Gu@physx@@V?$PxReflectionAllocator@URTreeNodeQ@Gu@physx@@@3@@physx@@IEAAXI@Z 00000001801af580 f i GuRTreeCooking.obj
 0001:001ae6a0       ?resizeUninitialized@?$PxArray@URTreeNodeNQ@physx@@V?$PxReflectionAllocator@URTreeNodeNQ@physx@@@2@@physx@@QEAAXI@Z 00000001801af6a0 f i GuRTreeCooking.obj
 0001:001ae6e0       ?sort4@SubSortQuick@physx@@QEAAXPEIAIIAEAV?$PxArray@URTreeNodeNQ@physx@@V?$PxReflectionAllocator@URTreeNodeNQ@physx@@@2@@2@AEAIAEAUPxBounds3V@2@I@Z 00000001801af6e0 f i GuRTreeCooking.obj
 0001:001aea80       ?sort4@SubSortSAH@physx@@QEAAXPEAIIAEAV?$PxArray@URTreeNodeNQ@physx@@V?$PxReflectionAllocator@URTreeNodeNQ@physx@@@2@@2@AEAIIPEAURTreeNodeNQ@2@@Z 00000001801afa80 f i GuRTreeCooking.obj
 0001:001af410       ?split@SubSortSAH@physx@@QEAAIPEAII@Z 00000001801b0410 f i GuRTreeCooking.obj
 0001:001afef0       cookBVH                    00000001801b0ef0 f   GuCookingBVH.obj
 0001:001b0080       createBVH                  00000001801b1080 f   GuCookingBVH.obj
 0001:001b0210       cookHeightField            00000001801b1210 f   GuCookingHF.obj
 0001:001b0320       createHeightField          00000001801b1320 f   GuCookingHF.obj
 0001:001b09e0       computeHullPolygons        00000001801b19e0 f   GuCookingConvexMesh.obj
 0001:001b0bd0       cookConvexMesh             00000001801b1bd0 f   GuCookingConvexMesh.obj
 0001:001b0d10       createConvexMesh           00000001801b1d10 f   GuCookingConvexMesh.obj
 0001:001b0e90       validateConvexMesh         00000001801b1e90 f   GuCookingConvexMesh.obj
 0001:001b0fe0       ??1BV4TriangleMeshBuilder@physx@@UEAA@XZ 00000001801b1fe0 f   GuCookingTriangleMesh.obj
 0001:001b1070       ??1RTreeTriangleMeshBuilder@physx@@UEAA@XZ 00000001801b2070 f   GuCookingTriangleMesh.obj
 0001:001b10e0       ??_EBV4TriangleMeshBuilder@physx@@UEAAPEAXI@Z 00000001801b20e0 f i GuCookingTriangleMesh.obj
 0001:001b10e0       ??_GBV4TriangleMeshBuilder@physx@@UEAAPEAXI@Z 00000001801b20e0 f i GuCookingTriangleMesh.obj
 0001:001b1120       ??_ERTreeTriangleMeshBuilder@physx@@UEAAPEAXI@Z 00000001801b2120 f i GuCookingTriangleMesh.obj
 0001:001b1120       ??_GRTreeTriangleMeshBuilder@physx@@UEAAPEAXI@Z 00000001801b2120 f i GuCookingTriangleMesh.obj
 0001:001b1160       ??_ETriangleMeshBuilder@physx@@UEAAPEAXI@Z 00000001801b2160 f i GuCookingTriangleMesh.obj
 0001:001b1160       ??_GTriangleMeshBuilder@physx@@UEAAPEAXI@Z 00000001801b2160 f i GuCookingTriangleMesh.obj
 0001:001b1690       ?buildInertiaTensor@TriangleMeshBuilder@physx@@IEAAX_N@Z 00000001801b2690 f   GuCookingTriangleMesh.obj
 0001:001b17f0       ?buildInertiaTensorFromSDF@TriangleMeshBuilder@physx@@IEAAXXZ 00000001801b27f0 f   GuCookingTriangleMesh.obj
 0001:001b1a30       ?checkInputFloats@@YA_NIPEBMPEBDI1@Z 00000001801b2a30 f   GuCookingTriangleMesh.obj
 0001:001b1ac0       ?checkMeshIndicesSize@TriangleMeshBuilder@physx@@QEAAXXZ 00000001801b2ac0 f   GuCookingTriangleMesh.obj
 0001:001b1df0       ?cleanMesh@TriangleMeshBuilder@physx@@QEAA_N_NPEAW4Enum@PxTriangleMeshCookingResult@2@@Z 00000001801b2df0 f   GuCookingTriangleMesh.obj
 0001:001b22e0       ?createGRBMidPhaseAndData@TriangleMeshBuilder@physx@@QEAA_NI@Z 00000001801b32e0 f   GuCookingTriangleMesh.obj
 0001:001b24a0       ?createMidPhaseStructure@BV32TriangleMeshBuilder@physx@@SA_NAEBUPxCookingParams@2@AEAVTriangleMeshData@Gu@2@AEAVBV32Tree@52@@Z 00000001801b34a0 f   GuCookingTriangleMesh.obj
 0001:001b26f0       ?createMidPhaseStructure@BV4TriangleMeshBuilder@physx@@UEAA_NXZ 00000001801b36f0 f   GuCookingTriangleMesh.obj
 0001:001b29a0       ?createMidPhaseStructure@RTreeTriangleMeshBuilder@physx@@UEAA_NXZ 00000001801b39a0 f   GuCookingTriangleMesh.obj
 0001:001b2a90       ?createSharedEdgeData@TriangleMeshBuilder@physx@@QEAAX_N0@Z 00000001801b3a90 f   GuCookingTriangleMesh.obj
 0001:001b3030       ?createVertMapping@TriangleMeshBuilder@physx@@QEAAXXZ 00000001801b4030 f   GuCookingTriangleMesh.obj
 0001:001b33a0       ?importMesh@TriangleMeshBuilder@physx@@IEAA_NAEBVPxTriangleMeshDesc@2@PEAW4Enum@PxTriangleMeshCookingResult@2@_N@Z 00000001801b43a0 f   GuCookingTriangleMesh.obj
 0001:001b39e0       ?isValid@PxTriangleMeshDesc@physx@@QEBA_NXZ 00000001801b49e0 f i GuCookingTriangleMesh.obj
 0001:001b3ab0       ?loadFromDescInternal@TriangleMeshBuilder@physx@@IEAA_NAEAVPxTriangleMeshDesc@2@PEAW4Enum@PxTriangleMeshCookingResult@2@_N@Z 00000001801b4ab0 f   GuCookingTriangleMesh.obj
 0001:001b3ce0       ?onMeshIndexFormatChange@BV4TriangleMeshBuilder@physx@@UEAAXXZ 00000001801b4ce0 f   GuCookingTriangleMesh.obj
 0001:001b3d20       ?remap@RTreeCookerRemap@@UEAAXPEAIII@Z 00000001801b4d20 f i GuCookingTriangleMesh.obj
 0001:001b3d40       ?remapTopology@TriangleMeshBuilder@physx@@QEAAXPEBI@Z 00000001801b4d40 f   GuCookingTriangleMesh.obj
 0001:001b3fe0       ?save@TriangleMeshBuilder@physx@@QEBA_NAEAVPxOutputStream@2@_NAEBUPxCookingParams@2@@Z 00000001801b4fe0 f   GuCookingTriangleMesh.obj
 0001:001b4790       ?saveMidPhaseStructure@BV32TriangleMeshBuilder@physx@@SAXPEAVBV32Tree@Gu@2@AEAVPxOutputStream@2@_N@Z 00000001801b5790 f   GuCookingTriangleMesh.obj
 0001:001b4990       ?saveMidPhaseStructure@BV4TriangleMeshBuilder@physx@@UEBAXAEAVPxOutputStream@2@_N@Z 00000001801b5990 f   GuCookingTriangleMesh.obj
 0001:001b4b40       ?saveMidPhaseStructure@RTreeTriangleMeshBuilder@physx@@UEBAXAEAVPxOutputStream@2@_N@Z 00000001801b5b40 f   GuCookingTriangleMesh.obj
 0001:001b4d80       cookTriangleMesh           00000001801b5d80 f   GuCookingTriangleMesh.obj
 0001:001b5070       createTriangleMesh         00000001801b6070 f   GuCookingTriangleMesh.obj
 0001:001b5290       validateTriangleMesh       00000001801b6290 f   GuCookingTriangleMesh.obj
 0001:001b5530       ??0DeformableVolumeCollisionData@Gu@physx@@QEAA@XZ 00000001801b6530 f i GuCookingTetrahedronMesh.obj
 0001:001b5590       ??_ECollisionTetrahedronMeshData@Gu@physx@@UEAAPEAXI@Z 00000001801b6590 f i GuCookingTetrahedronMesh.obj
 0001:001b5590       ??_GCollisionTetrahedronMeshData@Gu@physx@@UEAAPEAXI@Z 00000001801b6590 f i GuCookingTetrahedronMesh.obj
 0001:001b5670       ??_EPxCollisionTetrahedronMeshData@physx@@UEAAPEAXI@Z 00000001801b6670 f i GuCookingTetrahedronMesh.obj
 0001:001b5670       ??_GPxCollisionTetrahedronMeshData@physx@@UEAAPEAXI@Z 00000001801b6670 f i GuCookingTetrahedronMesh.obj
 0001:001b56d0       ??_EPxSimulationTetrahedronMeshData@physx@@UEAAPEAXI@Z 00000001801b66d0 f i GuCookingTetrahedronMesh.obj
 0001:001b56d0       ??_GPxSimulationTetrahedronMeshData@physx@@UEAAPEAXI@Z 00000001801b66d0 f i GuCookingTetrahedronMesh.obj
 0001:001b5730       ??_ESimulationTetrahedronMeshData@Gu@physx@@UEAAPEAXI@Z 00000001801b6730 f i GuCookingTetrahedronMesh.obj
 0001:001b5730       ??_GSimulationTetrahedronMeshData@Gu@physx@@UEAAPEAXI@Z 00000001801b6730 f i GuCookingTetrahedronMesh.obj
 0001:001b5810       ?PointOutsideOfPlane4@Gu@physx@@YA?AV?$PxVec4T@M@2@AEBV?$PxVec3T@M@2@0000@Z 00000001801b6810 f i GuCookingTetrahedronMesh.obj
 0001:001b5c80       ?classifyTetrahedrons@@YAXPEBU?$TetrahedronT@I@Gu@physx@@IIIPEAI1AEAV?$PxArray@IV?$PxReflectionAllocator@I@physx@@@3@@Z 00000001801b6c80 f   GuCookingTetrahedronMesh.obj
 0001:001b5e10       ?combineGridModelPartitions@@YAXAEBVTetrahedronMeshData@Gu@physx@@AEAVDeformableVolumeSimulationData@23@PEAPEAI@Z 00000001801b6e10 f   GuCookingTetrahedronMesh.obj
 0001:001b6690       ?combineGridModelPartitionsHexMesh_parallelGS@@YAXAEBVTetrahedronMeshData@Gu@physx@@AEAVDeformableVolumeSimulationData@23@PEAPEAI@Z 00000001801b7690 f   GuCookingTetrahedronMesh.obj
 0001:001b6a70       ?computeCollisionData@TetrahedronMeshBuilder@physx@@SA_NAEBVPxTetrahedronMeshDesc@2@AEAVTetrahedronMeshData@Gu@2@AEAVDeformableVolumeCollisionData@52@AEBUPxCookingParams@2@_N@Z 00000001801b7a70 f   GuCookingTetrahedronMesh.obj
 0001:001b6cc0       ?computeGridModelTetrahedronPartitions@@YAPEAIAEBVTetrahedronMeshData@Gu@physx@@AEAVDeformableVolumeSimulationData@23@@Z 00000001801b7cc0 f   GuCookingTetrahedronMesh.obj
 0001:001b7070       ?computeGridModelVoxelPartitions@@YAPEAIAEBVTetrahedronMeshData@Gu@physx@@AEAVDeformableVolumeSimulationData@23@@Z 00000001801b8070 f   GuCookingTetrahedronMesh.obj
 0001:001b7930       ?computeModelsMapping@TetrahedronMeshBuilder@physx@@SAXAEAVTetrahedronMeshData@Gu@2@AEBV342@AEBVDeformableVolumeCollisionData@42@AEAVCollisionMeshMappingData@42@_NPEBUPxBoundedData@2@@Z 00000001801b8930 f   GuCookingTetrahedronMesh.obj
 0001:001b8350       ?computeRestPoseAndPointMass@@YAXPEAU?$TetrahedronT@I@Gu@physx@@IPEBV?$PxVec3T@M@3@PEAMPEAV?$PxMat33T@M@3@@Z 00000001801b9350 f   GuCookingTetrahedronMesh.obj
 0001:001b8870       ?computeSimData@TetrahedronMeshBuilder@physx@@SAXAEBVPxTetrahedronMeshDesc@2@AEAVTetrahedronMeshData@Gu@2@AEAVDeformableVolumeSimulationData@52@AEBUPxCookingParams@2@@Z 00000001801b9870 f   GuCookingTetrahedronMesh.obj
 0001:001b8f80       ?computeTetData@TetrahedronMeshBuilder@physx@@SAXAEBVPxTetrahedronMeshDesc@2@AEAVTetrahedronMeshData@Gu@2@@Z 00000001801b9f80 f   GuCookingTetrahedronMesh.obj
 0001:001b9070       ?computeTetrahedronPartition@@YAIPEBU?$TetrahedronT@I@Gu@physx@@IPEAII@Z 00000001801ba070 f   GuCookingTetrahedronMesh.obj
 0001:001b9160       ?create@?$PxHashBase@IIU?$PxHash@I@physx@@UGetKey@?$PxHashSetBase@IU?$PxHash@I@physx@@VPxAllocator@2@$0A@@2@VPxAllocator@2@$0A@@physx@@QEAAPEAIAEBIAEA_N@Z 00000001801ba160 f i GuCookingTetrahedronMesh.obj
 0001:001b92c0       ?createCollisionModelMapping@TetrahedronMeshBuilder@physx@@SAXAEBVTetrahedronMeshData@Gu@2@AEBVDeformableVolumeCollisionData@42@AEAVCollisionMeshMappingData@42@@Z 00000001801ba2c0 f   GuCookingTetrahedronMesh.obj
 0001:001b9900       ?createGRBMidPhaseAndData@TetrahedronMeshBuilder@physx@@SA_NIAEAVTetrahedronMeshData@Gu@2@AEAVDeformableVolumeCollisionData@42@AEBUPxCookingParams@2@@Z 00000001801ba900 f   GuCookingTetrahedronMesh.obj
 0001:001ba630       ?createMidPhaseStructure@BV32TetrahedronMeshBuilder@physx@@SA_NAEBUPxCookingParams@2@AEAVTetrahedronMeshData@Gu@2@AEAVBV32Tree@52@AEAVDeformableVolumeCollisionData@52@@Z 00000001801bb630 f   GuCookingTetrahedronMesh.obj
 0001:001ba920       ?createMidPhaseStructure@TetrahedronMeshBuilder@physx@@SA_NAEAVTetrahedronMeshData@Gu@2@AEAVDeformableVolumeCollisionData@42@AEBUPxCookingParams@2@@Z 00000001801bb920 f   GuCookingTetrahedronMesh.obj
 0001:001bb5c0       ?getData@CollisionTetrahedronMeshData@Gu@physx@@UEAAPEAVPxDeformableVolumeCollisionData@3@XZ 00000001801bc5c0 f i GuCookingTetrahedronMesh.obj
 0001:001bb5c0       ?getData@CollisionTetrahedronMeshData@Gu@physx@@UEBAPEBVPxDeformableVolumeCollisionData@3@XZ 00000001801bc5c0 f i GuCookingTetrahedronMesh.obj
 0001:001bb5c0       ?getData@SimulationTetrahedronMeshData@Gu@physx@@UEAAPEAVPxDeformableVolumeSimulationData@3@XZ 00000001801bc5c0 f i GuCookingTetrahedronMesh.obj
 0001:001bb5e0       ?importMesh@TetrahedronMeshBuilder@physx@@SA_NAEBVPxTetrahedronMeshDesc@2@AEBUPxCookingParams@2@AEAVTetrahedronMeshData@Gu@2@AEAVDeformableVolumeCollisionData@62@_N@Z 00000001801bc5e0 f   GuCookingTetrahedronMesh.obj
 0001:001bb9b0       ?isValid@PxTetrahedronMeshDesc@physx@@QEBA_NXZ 00000001801bc9b0 f i GuCookingTetrahedronMesh.obj
 0001:001bba30       ?loadFromDesc@TetrahedronMeshBuilder@physx@@SA_NAEBVPxTetrahedronMeshDesc@2@0VPxDeformableVolumeSimulationDataDesc@2@AEAVTetrahedronMeshData@Gu@2@AEAVDeformableVolumeSimulationData@62@2AEAVDeformableVolumeCollisionData@62@AEAVCollisionMeshMappingData@62@AEBUPxCookingParams@2@_N@Z 00000001801bca30 f   GuCookingTetrahedronMesh.obj
 0001:001bbba0       ?recreate@?$PxArray@V?$PxArray@IV?$PxReflectionAllocator@I@physx@@@physx@@V?$PxReflectionAllocator@V?$PxArray@IV?$PxReflectionAllocator@I@physx@@@physx@@@2@@physx@@IEAAXI@Z 00000001801bcba0 f i GuCookingTetrahedronMesh.obj
 0001:001bbcd0       ?release@CollisionTetrahedronMeshData@Gu@physx@@UEAAXXZ 00000001801bccd0 f i GuCookingTetrahedronMesh.obj
 0001:001bbcf0       ?reserveInternal@?$PxHashBase@IIU?$PxHash@I@physx@@UGetKey@?$PxHashSetBase@IU?$PxHash@I@physx@@VPxAllocator@2@$0A@@2@VPxAllocator@2@$0A@@physx@@AEAAXI@Z 00000001801bccf0 f i GuCookingTetrahedronMesh.obj
 0001:001bc0c0       ?reserveInternal@?$PxHashBase@V?$PxPair@$$CBVSortedTriangleInds@@I@physx@@VSortedTriangleInds@@USortedTriangleIndsHash@@UGetKey@?$PxHashMapBase@VSortedTriangleInds@@IUSortedTriangleIndsHash@@VPxAllocator@physx@@@2@VPxAllocator@2@$00@physx@@AEAAXI@Z 00000001801bd0c0 f i GuCookingTetrahedronMesh.obj
 0001:001bc310       ?resize@?$PxArray@V?$PxArray@IV?$PxReflectionAllocator@I@physx@@@physx@@V?$PxReflectionAllocator@V?$PxArray@IV?$PxReflectionAllocator@I@physx@@@physx@@@2@@physx@@QEAAXIAEBV?$PxArray@IV?$PxReflectionAllocator@I@physx@@@2@@Z 00000001801bd310 f i GuCookingTetrahedronMesh.obj
 0001:001bc3b0       ?saveDeformableVolumeMeshData@TetrahedronMeshBuilder@physx@@SA_NAEAVPxOutputStream@2@_NAEBUPxCookingParams@2@AEBVTetrahedronMeshData@Gu@2@AEBVDeformableVolumeSimulationData@62@3AEBVDeformableVolumeCollisionData@62@AEBVCollisionMeshMappingData@62@@Z 00000001801bd3b0 f   GuCookingTetrahedronMesh.obj
 0001:001bcae0       ?saveTetrahedronMeshData@TetrahedronMeshBuilder@physx@@SA_NAEAVPxOutputStream@2@_NAEBUPxCookingParams@2@AEBVTetrahedronMeshData@Gu@2@@Z 00000001801bdae0 f   GuCookingTetrahedronMesh.obj
 0001:001bcc90       ?smoothMassRatiosWhilePreservingTotalMass@@YAXPEAMIPEBIHMM@Z 00000001801bdc90 f   GuCookingTetrahedronMesh.obj
 0001:001bd190       ?support@?$LocalConvex@VTetrahedronV@Gu@physx@@@Gu@physx@@UEBA?AT__m128@@AEBT4@@Z 00000001801be190 f i GuCookingTetrahedronMesh.obj
 0001:001bd250       ?support@?$LocalConvex@VTetrahedronV@Gu@physx@@@Gu@physx@@UEBA?AT__m128@@AEBT4@AEAH@Z 00000001801be250 f i GuCookingTetrahedronMesh.obj
 0001:001bd410       assembleDeformableVolumeMesh 00000001801be410 f   GuCookingTetrahedronMesh.obj
 0001:001bd470       computeCollisionData       00000001801be470 f   GuCookingTetrahedronMesh.obj
 0001:001bd680       computeModelsMapping       00000001801be680 f   GuCookingTetrahedronMesh.obj
 0001:001bd780       computeSimulationData      00000001801be780 f   GuCookingTetrahedronMesh.obj
 0001:001bd960       cookDeformableVolumeMesh   00000001801be960 f   GuCookingTetrahedronMesh.obj
 0001:001bdfc0       cookTetrahedronMesh        00000001801befc0 f   GuCookingTetrahedronMesh.obj
 0001:001be0c0       createDeformableVolumeMesh 00000001801bf0c0 f   GuCookingTetrahedronMesh.obj
 0001:001be7a0       createTetrahedronMesh      00000001801bf7a0 f   GuCookingTetrahedronMesh.obj
 0001:001c0500       ?computeVolumeIntegrals@physx@@YA_NAEBVPxSimpleTriangleMesh@1@MAEAUPxIntegrals@1@@Z 00000001801c1500 f   GuCookingVolumeIntegration.obj
 0001:001c0540       ?computeVolumeIntegralsEberly@physx@@YA_NAEBVPxConvexMeshDesc@1@MAEAUPxIntegrals@1@AEBV?$PxVec3T@M@1@_N@Z 00000001801c1540 f   GuCookingVolumeIntegration.obj
 0001:001c0bb0       ??0QuickHull@local@@QEAA@AEBUPxCookingParams@physx@@AEBVPxConvexMeshDesc@3@@Z 00000001801c1bb0 f   GuCookingQuickHullConvexHullLib.obj
 0001:001c0c60       ??0QuickHullConvexHullLib@physx@@QEAA@AEBVPxConvexMeshDesc@1@AEBUPxCookingParams@1@@Z 00000001801c1c60 f   GuCookingQuickHullConvexHullLib.obj
 0001:001c0d40       ??1?$MemBlock@UQuickHullFace@local@@$00@local@@QEAA@XZ 00000001801c1d40 f i GuCookingQuickHullConvexHullLib.obj
 0001:001c0d40       ??1?$MemBlock@UQuickHullHalfEdge@local@@$0A@@local@@QEAA@XZ 00000001801c1d40 f i GuCookingQuickHullConvexHullLib.obj
 0001:001c0e00       ??1QuickHull@local@@QEAA@XZ 00000001801c1e00 f   GuCookingQuickHullConvexHullLib.obj
 0001:001c0f70       ??_GConvexHull@physx@@QEAAPEAXI@Z 00000001801c1f70 f i GuCookingQuickHullConvexHullLib.obj
 0001:001c1070       ??_EConvexHullLib@physx@@UEAAPEAXI@Z 00000001801c2070 f i GuCookingQuickHullConvexHullLib.obj
 0001:001c1070       ??_GConvexHullLib@physx@@UEAAPEAXI@Z 00000001801c2070 f i GuCookingQuickHullConvexHullLib.obj
 0001:001c10b0       ??_EQuickHullConvexHullLib@physx@@UEAAPEAXI@Z 00000001801c20b0 f i GuCookingQuickHullConvexHullLib.obj
 0001:001c10b0       ??_GQuickHullConvexHullLib@physx@@UEAAPEAXI@Z 00000001801c20b0 f i GuCookingQuickHullConvexHullLib.obj
 0001:001c11e0       ?addPointToHull@QuickHull@local@@IEAA_NPEBUQuickHullVertex@2@AEAUQuickHullFace@2@AEA_N@Z 00000001801c21e0 f   GuCookingQuickHullConvexHullLib.obj
 0001:001c14b0       ?addSimplex@QuickHull@local@@IEAA_NPEAUQuickHullVertex@2@_N@Z 00000001801c24b0 f   GuCookingQuickHullConvexHullLib.obj
 0001:001c19d0       ?buildHull@QuickHull@local@@QEAA?AW4Enum@QuickHullResult@2@XZ 00000001801c29d0 f   GuCookingQuickHullConvexHullLib.obj
 0001:001c1c20       ?calculateHorizon@QuickHull@local@@IEAAXAEBV?$PxVec3T@M@physx@@PEAUQuickHullHalfEdge@2@AEAUQuickHullFace@2@AEAV?$PxArray@PEAUQuickHullHalfEdge@local@@V?$PxReflectionAllocator@PEAUQuickHullHalfEdge@local@@@physx@@@4@AEAV?$PxArray@PEAUQuickHullFace@local@@V?$PxReflectionAllocator@PEAUQuickHullFace@local@@@physx@@@4@@Z 00000001801c2c20 f   GuCookingQuickHullConvexHullLib.obj
 0001:001c1dd0       ?canMergeFaces@QuickHull@local@@IEAA_NAEBUQuickHullHalfEdge@2@@Z 00000001801c2dd0 f   GuCookingQuickHullConvexHullLib.obj
 0001:001c25f0       ?cleanupForSimplex@QuickHullConvexHullLib@physx@@IEAA_NPEAV?$PxVec3T@M@2@IPEAUQuickHullVertex@local@@1AEAM2@Z 00000001801c35f0 f   GuCookingQuickHullConvexHullLib.obj
 0001:001c36e0       ?computeMinMaxVerts@QuickHull@local@@IEAAXXZ 00000001801c46e0 f   GuCookingQuickHullConvexHullLib.obj
 0001:001c3ac0       ?connectHalfEdges@QuickHullFace@local@@AEAAPEAU12@PEAUQuickHullHalfEdge@2@0@Z 00000001801c4ac0 f   GuCookingQuickHullConvexHullLib.obj
 0001:001c3e30       ?copy@?$PxArray@UExpandPoint@local@@V?$PxReflectionAllocator@UExpandPoint@local@@@physx@@@physx@@KAXPEAUExpandPoint@local@@0PEBU34@@Z 00000001801c4e30 f i GuCookingQuickHullConvexHullLib.obj
 0001:001c4080       ?copy@?$PxArray@VPxPlane@physx@@V?$PxReflectionAllocator@VPxPlane@physx@@@2@@physx@@KAXPEAVPxPlane@2@0PEBV32@@Z 00000001801c5080 f i GuCookingQuickHullConvexHullLib.obj
 0001:001c4170       ?createConvexHull@QuickHullConvexHullLib@physx@@UEAA?AW4Enum@PxConvexMeshCookingResult@2@XZ 00000001801c5170 f   GuCookingQuickHullConvexHullLib.obj
 0001:001c4590       ?createEdgeList@QuickHullConvexHullLib@physx@@UEAA_NIPEBEPEAPEAEPEAPEAG2@Z 00000001801c5590 f   GuCookingQuickHullConvexHullLib.obj
 0001:001c47c0       ?createTriangle@QuickHull@local@@IEAAPEAUQuickHullFace@2@AEBUQuickHullVertex@2@00@Z 00000001801c57c0 f   GuCookingQuickHullConvexHullLib.obj
 0001:001c4ba0       ?doAdjacentMerge@QuickHull@local@@IEAA_NAEAUQuickHullFace@2@_NAEA_N@Z 00000001801c5ba0 f   GuCookingQuickHullConvexHullLib.obj
 0001:001c4ef0       ?expandHull@QuickHullConvexHullLib@physx@@IEAA?AW4Enum@PxConvexMeshCookingResult@2@XZ 00000001801c5ef0 f   GuCookingQuickHullConvexHullLib.obj
 0001:001c5830       ?expandHullOBB@QuickHullConvexHullLib@physx@@IEAA?AW4Enum@PxConvexMeshCookingResult@2@XZ 00000001801c6830 f   GuCookingQuickHullConvexHullLib.obj
 0001:001c5c70       ?fillConvexMeshDesc@QuickHullConvexHullLib@physx@@UEAAXAEAVPxConvexMeshDesc@2@@Z 00000001801c6c70 f   GuCookingQuickHullConvexHullLib.obj
 0001:001c5cc0       ?fillConvexMeshDescFromCroppedHull@QuickHullConvexHullLib@physx@@IEAAXAEAVPxConvexMeshDesc@2@@Z 00000001801c6cc0 f   GuCookingQuickHullConvexHullLib.obj
 0001:001c5eb0       ?fillConvexMeshDescFromQuickHull@QuickHullConvexHullLib@physx@@IEAAXAEAVPxConvexMeshDesc@2@@Z 00000001801c6eb0 f   GuCookingQuickHullConvexHullLib.obj
 0001:001c6250       ?findSimplex@QuickHull@local@@IEAA_NXZ 00000001801c7250 f   GuCookingQuickHullConvexHullLib.obj
 0001:001c6e80       ?getFreeItem@?$MemBlock@UQuickHullFace@local@@$00@local@@QEAAPEAUQuickHullFace@2@XZ 00000001801c7e80 f i GuCookingQuickHullConvexHullLib.obj
 0001:001c6fc0       ?getFreeItem@?$MemBlock@UQuickHullHalfEdge@local@@$0A@@local@@QEAAPEAUQuickHullHalfEdge@2@XZ 00000001801c7fc0 f i GuCookingQuickHullConvexHullLib.obj
 0001:001c7090       ?growAndPushBack@?$PxArray@PEAUQuickHullFace@local@@V?$PxReflectionAllocator@PEAUQuickHullFace@local@@@physx@@@physx@@IEAAAEAPEAUQuickHullFace@local@@AEBQEAU34@@Z 00000001801c8090 f i GuCookingQuickHullConvexHullLib.obj
 0001:001c71d0       ?growAndPushBack@?$PxArray@PEAUQuickHullHalfEdge@local@@V?$PxReflectionAllocator@PEAUQuickHullHalfEdge@local@@@physx@@@physx@@IEAAAEAPEAUQuickHullHalfEdge@local@@AEBQEAU34@@Z 00000001801c81d0 f i GuCookingQuickHullConvexHullLib.obj
 0001:001c7310       ?growAndPushBack@?$PxArray@PEAUQuickHullVertex@local@@V?$PxReflectionAllocator@PEAUQuickHullVertex@local@@@physx@@@physx@@IEAAAEAPEAUQuickHullVertex@local@@AEBQEAU34@@Z 00000001801c8310 f i GuCookingQuickHullConvexHullLib.obj
 0001:001c7450       ?growAndPushBack@?$PxArray@UExpandPoint@local@@V?$PxReflectionAllocator@UExpandPoint@local@@@physx@@@physx@@IEAAAEAUExpandPoint@local@@AEBU34@@Z 00000001801c8450 f i GuCookingQuickHullConvexHullLib.obj
 0001:001c75e0       ?growAndPushBack@?$PxArray@VPxPlane@physx@@V?$PxReflectionAllocator@VPxPlane@physx@@@2@@physx@@IEAAAEAVPxPlane@2@AEBV32@@Z 00000001801c85e0 f i GuCookingQuickHullConvexHullLib.obj
 0001:001c7720       ?init@?$MemBlock@UQuickHullFace@local@@$00@local@@QEAAXI@Z 00000001801c8720 f i GuCookingQuickHullConvexHullLib.obj
 0001:001c7820       ?init@?$MemBlock@UQuickHullHalfEdge@local@@$0A@@local@@QEAAXI@Z 00000001801c8820 f i GuCookingQuickHullConvexHullLib.obj
 0001:001c78c0       ?mergeAdjacentFace@QuickHullFace@local@@QEAA_NPEAUQuickHullHalfEdge@2@AEAV?$PxArray@PEAUQuickHullFace@local@@V?$PxReflectionAllocator@PEAUQuickHullFace@local@@@physx@@@physx@@@Z 00000001801c88c0 f   GuCookingQuickHullConvexHullLib.obj
 0001:001c7d10       ?nextPointToAdd@QuickHull@local@@IEAAPEAUQuickHullVertex@2@AEAPEAUQuickHullFace@2@@Z 00000001801c8d10 f   GuCookingQuickHullConvexHullLib.obj
 0001:001c7e90       ?parseInputVertices@QuickHull@local@@QEAAXPEBV?$PxVec3T@M@physx@@I@Z 00000001801c8e90 f   GuCookingQuickHullConvexHullLib.obj
 0001:001c8010       ?postMergeHull@QuickHull@local@@IEAAXXZ 00000001801c9010 f   GuCookingQuickHullConvexHullLib.obj
 0001:001c8270       ?preallocate@QuickHull@local@@QEAAXI@Z 00000001801c9270 f   GuCookingQuickHullConvexHullLib.obj
 0001:001c83b0       ?recreate@?$PxArray@PEAUQuickHullFace@local@@V?$PxReflectionAllocator@PEAUQuickHullFace@local@@@physx@@@physx@@IEAAXI@Z 00000001801c93b0 f i GuCookingQuickHullConvexHullLib.obj
 0001:001c84c0       ?recreate@?$PxArray@PEAUQuickHullHalfEdge@local@@V?$PxReflectionAllocator@PEAUQuickHullHalfEdge@local@@@physx@@@physx@@IEAAXI@Z 00000001801c94c0 f i GuCookingQuickHullConvexHullLib.obj
 0001:001c85d0       ?recreate@?$PxArray@PEAUQuickHullVertex@local@@V?$PxReflectionAllocator@PEAUQuickHullVertex@local@@@physx@@@physx@@IEAAXI@Z 00000001801c95d0 f i GuCookingQuickHullConvexHullLib.obj
 0001:001c86e0       ?recreate@?$PxArray@UExpandPoint@local@@V?$PxReflectionAllocator@UExpandPoint@local@@@physx@@@physx@@IEAAXI@Z 00000001801c96e0 f i GuCookingQuickHullConvexHullLib.obj
 0001:001c87d0       ?recreate@?$PxArray@VPxPlane@physx@@V?$PxReflectionAllocator@VPxPlane@physx@@@2@@physx@@IEAAXI@Z 00000001801c97d0 f i GuCookingQuickHullConvexHullLib.obj
 0001:001c88c0       ?resolveUnclaimedPoints@QuickHull@local@@IEAAXAEBV?$PxArray@PEAUQuickHullFace@local@@V?$PxReflectionAllocator@PEAUQuickHullFace@local@@@physx@@@physx@@@Z 00000001801c98c0 f   GuCookingQuickHullConvexHullLib.obj
 0001:001c8b40       ??$copy@V?$PxReflectionAllocator@VPair@@@physx@@@?$PxArray@VPair@@V?$PxReflectionAllocator@VPair@@@physx@@@physx@@IEAAXAEBV01@@Z 00000001801c9b40 f i GuCookingConvexPolygonsBuilder.obj
 0001:001c8bc0       ??0ConvexPolygonsBuilder@physx@@QEAA@PEAUConvexHullData@Gu@1@_N@Z 00000001801c9bc0 f   GuCookingConvexPolygonsBuilder.obj
 0001:001c8be0       ??1ConvexPolygonsBuilder@physx@@QEAA@XZ 00000001801c9be0 f   GuCookingConvexPolygonsBuilder.obj
 0001:001c9420       ?allocate@?$PxArray@VPair@@V?$PxReflectionAllocator@VPair@@@physx@@@physx@@IEAAPEAVPair@@IPEAI@Z 00000001801ca420 f i GuCookingConvexPolygonsBuilder.obj
 0001:001c9f50       ?computeHullPolygons@ConvexPolygonsBuilder@physx@@QEAA_NAEBIPEBV?$PxVec3T@M@2@0PEBI@Z 00000001801caf50 f   GuCookingConvexPolygonsBuilder.obj
 0001:001cb570       ?createPolygonData@ConvexPolygonsBuilder@physx@@AEAA_NXZ 00000001801cc570 f   GuCookingConvexPolygonsBuilder.obj
 0001:001cc020       ?createTrianglesFromPolygons@ConvexPolygonsBuilder@physx@@AEAA_NXZ 00000001801cd020 f   GuCookingConvexPolygonsBuilder.obj
 0001:001cd6e0       ?growAndPushBack@?$PxArray@VPair@@V?$PxReflectionAllocator@VPair@@@physx@@@physx@@IEAAAEAVPair@@AEBV3@@Z 00000001801ce6e0 f i GuCookingConvexPolygonsBuilder.obj
 0001:001cd920       ??0ConvexMeshBuilder@physx@@QEAA@_N@Z 00000001801ce920 f   GuCookingConvexMeshBuilder.obj
 0001:001cd990       ??1ConvexMeshBuilder@physx@@QEAA@XZ 00000001801ce990 f   GuCookingConvexMeshBuilder.obj
 0001:001cde40       ?build@ConvexMeshBuilder@physx@@QEAA_NAEBVPxConvexMeshDesc@2@I_NPEAVConvexHullLib@2@@Z 00000001801cee40 f   GuCookingConvexMeshBuilder.obj
 0001:001ce1d0       ?checkExtentRadiusRatio@ConvexMeshBuilder@physx@@QEAA_NXZ 00000001801cf1d0 f   GuCookingConvexMeshBuilder.obj
 0001:001ce200       ?computeHullPolygons@ConvexMeshBuilder@physx@@QEAA_NAEBIPEBV?$PxVec3T@M@2@0PEBIAEAVPxAllocatorCallback@2@AEAIAEAPEAV32@4AEAPEAI4AEAPEAUPxHullPolygon@2@@Z 00000001801cf200 f   GuCookingConvexMeshBuilder.obj
 0001:001ce400       ?computeMassInfo@ConvexMeshBuilder@physx@@QEAAX_N@Z 00000001801cf400 f   GuCookingConvexMeshBuilder.obj
 0001:001ce820       ?computeSDF@ConvexMeshBuilder@physx@@QEAAXAEBVPxConvexMeshDesc@2@@Z 00000001801cf820 f   GuCookingConvexMeshBuilder.obj
 0001:001cecb0       ?copy@ConvexMeshBuilder@physx@@QEAA_NAEAUConvexHullInitData@Gu@2@@Z 00000001801cfcb0 f   GuCookingConvexMeshBuilder.obj
 0001:001cee10       ?loadConvexHull@ConvexMeshBuilder@physx@@QEAA_NAEBVPxConvexMeshDesc@2@PEAVConvexHullLib@2@@Z 00000001801cfe10 f   GuCookingConvexMeshBuilder.obj
 0001:001cf070       ?save@ConvexMeshBuilder@physx@@QEBA_NAEAVPxOutputStream@2@_N@Z 00000001801d0070 f   GuCookingConvexMeshBuilder.obj
 0001:001cf490       ??0ConvexHull@physx@@QEAA@AEBV?$PxVec3T@M@1@AEBV?$PxTransformT@M@1@AEBV?$PxArray@VPxPlane@physx@@V?$PxReflectionAllocator@VPxPlane@physx@@@2@@1@@Z 00000001801d0490 f   GuCookingConvexHullUtils.obj
 0001:001d0600       ?assertIntact@ConvexHull@physx@@QEBA_NM@Z 00000001801d1600 f   GuCookingConvexHullUtils.obj
 0001:001d0910       ?computeOBBFromConvex@physx@@YA_NAEBVPxConvexMeshDesc@1@AEAV?$PxVec3T@M@1@AEAV?$PxTransformT@M@1@@Z 00000001801d1910 f   GuCookingConvexHullUtils.obj
 0001:001d0fe0       ?computeOBBSIMD@local@@YAXIPEBT__m128@@AEAT2@AEBT2@1@Z 00000001801d1fe0 f   GuCookingConvexHullUtils.obj
 0001:001d1390       ?convexHullCrop@physx@@YAPEAVConvexHull@1@AEBV21@AEBVPxPlane@1@M@Z 00000001801d2390 f   GuCookingConvexHullUtils.obj
 0001:001d21c0       ?findCandidatePlane@ConvexHull@physx@@QEBAHMM@Z 00000001801d31c0 f   GuCookingConvexHullUtils.obj
 0001:001d2610       ?growAndPushBack@?$PxArray@VHalfEdge@ConvexHull@physx@@V?$PxReflectionAllocator@VHalfEdge@ConvexHull@physx@@@3@@physx@@IEAAAEAVHalfEdge@ConvexHull@2@AEBV342@@Z 00000001801d3610 f i GuCookingConvexHullUtils.obj
 0001:001d2750       ?maxNumVertsPerFace@ConvexHull@physx@@QEBAIXZ 00000001801d3750 f   GuCookingConvexHullUtils.obj
 0001:001d27f0       ?recreate@?$PxArray@VHalfEdge@ConvexHull@physx@@V?$PxReflectionAllocator@VHalfEdge@ConvexHull@physx@@@3@@physx@@IEAAXI@Z 00000001801d37f0 f i GuCookingConvexHullUtils.obj
 0001:001d2900       ?resize@?$PxArray@VHalfEdge@ConvexHull@physx@@V?$PxReflectionAllocator@VHalfEdge@ConvexHull@physx@@@3@@physx@@QEAAXIAEBVHalfEdge@ConvexHull@2@@Z 00000001801d3900 f i GuCookingConvexHullUtils.obj
 0001:001d29c0       ?resize@?$PxArray@VPxPlane@physx@@V?$PxReflectionAllocator@VPxPlane@physx@@@2@@physx@@QEAAXIAEBVPxPlane@2@@Z 00000001801d39c0 f i GuCookingConvexHullUtils.obj
 0001:001d2ad0       ??1ConvexHullLib@physx@@UEAA@XZ 00000001801d3ad0 f   GuCookingConvexHullLib.obj
 0001:001d3080       ?cleanupVertices@ConvexHullLib@physx@@IEAA_NIPEBV?$PxVec3T@M@2@IAEAIPEAV32@@Z 00000001801d4080 f   GuCookingConvexHullLib.obj
 0001:001d31c0       ?shiftAndcleanupVertices@ConvexHullLib@physx@@IEAA_NIPEBV?$PxVec3T@M@2@IAEAIPEAV32@@Z 00000001801d41c0 f   GuCookingConvexHullLib.obj
 0001:001d3770       ?shiftConvexMeshDesc@ConvexHullLib@physx@@IEAAXAEAVPxConvexMeshDesc@2@@Z 00000001801d4770 f   GuCookingConvexHullLib.obj
 0001:001d3830       ?swapLargestFace@ConvexHullLib@physx@@IEAAXAEAVPxConvexMeshDesc@2@@Z 00000001801d4830 f   GuCookingConvexHullLib.obj
 0001:001d3ab0       ??0ConvexHullBuilder@physx@@QEAA@PEAUConvexHullData@Gu@1@_N@Z 00000001801d4ab0 f   GuCookingConvexHullBuilder.obj
 0001:001d3ae0       ??1ConvexHullBuilder@physx@@QEAA@XZ 00000001801d4ae0 f   GuCookingConvexHullBuilder.obj
 0001:001d3c10       ?calculateVertexMapTable@ConvexHullBuilder@physx@@QEAA_NI_N@Z 00000001801d4c10 f   GuCookingConvexHullBuilder.obj
 0001:001d3de0       ?checkHullPolygons@ConvexHullBuilder@physx@@QEBA_NXZ 00000001801d4de0 f   GuCookingConvexHullBuilder.obj
 0001:001d45a0       ?copy@ConvexHullBuilder@physx@@QEAA_NAEAUConvexHullData@Gu@2@AEAI@Z 00000001801d55a0 f   GuCookingConvexHullBuilder.obj
 0001:001d4840       ?createEdgeList@ConvexHullBuilder@physx@@QEAA_N_NI@Z 00000001801d5840 f   GuCookingConvexHullBuilder.obj
 0001:001d4fa0       ?init@ConvexHullBuilder@physx@@QEAA_NIPEBV?$PxVec3T@M@2@PEBIIIPEBUPxHullPolygon@2@_NPEAVConvexHullLib@2@@Z 00000001801d5fa0 f   GuCookingConvexHullBuilder.obj
 0001:001d53c0       ?save@ConvexHullBuilder@physx@@QEBA_NAEAVPxOutputStream@2@_N@Z 00000001801d63c0 f   GuCookingConvexHullBuilder.obj
 0001:001d5700       ??0BigConvexDataBuilder@physx@@QEAA@PEBUConvexHullData@Gu@1@PEAVBigConvexData@1@PEBV?$PxVec3T@M@1@@Z 00000001801d6700 f   GuCookingBigConvexDataBuilder.obj
 0001:001d5710       ?computeValencies@BigConvexDataBuilder@physx@@QEAA_NAEBVConvexHullBuilder@2@@Z 00000001801d6710 f   GuCookingBigConvexDataBuilder.obj
 0001:001d5b00       ?precompute@BigConvexDataBuilder@physx@@QEAA_NI@Z 00000001801d6b00 f   GuCookingBigConvexDataBuilder.obj
 0001:001d6700       ?save@BigConvexDataBuilder@physx@@QEBA_NAEAVPxOutputStream@2@_N@Z 00000001801d7700 f   GuCookingBigConvexDataBuilder.obj
 0001:001d6c70       ?buildSDF@physx@@YA_NAEAVPxTriangleMeshDesc@1@AEAV?$PxArray@MV?$PxReflectionAllocator@M@physx@@@1@AEAV?$PxArray@EV?$PxReflectionAllocator@E@physx@@@1@AEAV?$PxArray@IV?$PxReflectionAllocator@I@physx@@@1@@Z 00000001801d7c70 f   GuCookingSDF.obj
 0001:001d7cf0       ?recreate@?$PxArray@EV?$PxReflectionAllocator@E@physx@@@physx@@IEAAXI@Z 00000001801d8cf0 f i GuCookingSDF.obj
 0001:001d7df0       ?resize@?$PxArray@EV?$PxReflectionAllocator@E@physx@@@physx@@QEAAXIAEBE@Z 00000001801d8df0 f i GuCookingSDF.obj
 0001:001d7eaa       __tailMerge_physxfoundation_64_dll 00000001801d8eaa     PhysXFoundation_64:PhysXFoundation_64.dll
 0001:001d7f23       __imp_load_PxGetFoundation 00000001801d8f23 f   PhysXFoundation_64:PhysXFoundation_64.dll
 0001:001d7f2f       __imp_load_PxGetBroadcastAllocator 00000001801d8f2f f   PhysXFoundation_64:PhysXFoundation_64.dll
 0001:001d7f3b       __imp_load_?PxAtomicIncrement@physx@@YAHPECH@Z 00000001801d8f3b f   PhysXFoundation_64:PhysXFoundation_64.dll
 0001:001d7f47       __imp_load_??0PxMutexImpl@physx@@QEAA@XZ 00000001801d8f47 f   PhysXFoundation_64:PhysXFoundation_64.dll
 0001:001d7f53       __imp_load_??1PxMutexImpl@physx@@QEAA@XZ 00000001801d8f53 f   PhysXFoundation_64:PhysXFoundation_64.dll
 0001:001d7f5f       __imp_load_?lock@PxMutexImpl@physx@@QEAAXXZ 00000001801d8f5f f   PhysXFoundation_64:PhysXFoundation_64.dll
 0001:001d7f6b       __imp_load_?unlock@PxMutexImpl@physx@@QEAAXXZ 00000001801d8f6b f   PhysXFoundation_64:PhysXFoundation_64.dll
 0001:001d7f77       __imp_load_?getSize@PxMutexImpl@physx@@SAIXZ 00000001801d8f77 f   PhysXFoundation_64:PhysXFoundation_64.dll
 0001:001d7f83       __imp_load_?PxTransformFromSegment@physx@@YA?AV?$PxTransformT@M@1@AEBV?$PxVec3T@M@1@0PEAM@Z 00000001801d8f83 f   PhysXFoundation_64:PhysXFoundation_64.dll
 0001:001d7f8f       __imp_load_?PxAtomicAdd@physx@@YAHPECHH@Z 00000001801d8f8f f   PhysXFoundation_64:PhysXFoundation_64.dll
 0001:001d7f9b       __imp_load_?getDefaultStackSize@PxThreadImpl@physx@@SAIXZ 00000001801d8f9b f   PhysXFoundation_64:PhysXFoundation_64.dll
 0001:001d7fa7       __imp_load_??0PxThreadImpl@physx@@QEAA@P6APEAXPEAX@Z0PEBD@Z 00000001801d8fa7 f   PhysXFoundation_64:PhysXFoundation_64.dll
 0001:001d7fb3       __imp_load_??1PxThreadImpl@physx@@QEAA@XZ 00000001801d8fb3 f   PhysXFoundation_64:PhysXFoundation_64.dll
 0001:001d7fbf       __imp_load_?start@PxThreadImpl@physx@@QEAAXIPEAVPxRunnable@2@@Z 00000001801d8fbf f   PhysXFoundation_64:PhysXFoundation_64.dll
 0001:001d7fcb       __imp_load_?waitForQuit@PxThreadImpl@physx@@QEAA_NXZ 00000001801d8fcb f   PhysXFoundation_64:PhysXFoundation_64.dll
 0001:001d7fd7       __imp_load_?getSize@PxThreadImpl@physx@@SAIXZ 00000001801d8fd7 f   PhysXFoundation_64:PhysXFoundation_64.dll
 0001:001d7fe3       __imp_load_?allocate@PxTempAllocator@physx@@QEAAPEAX_KPEBDH@Z 00000001801d8fe3 f   PhysXFoundation_64:PhysXFoundation_64.dll
 0001:001d7fef       __imp_load_?deallocate@PxTempAllocator@physx@@QEAAXPEAX@Z 00000001801d8fef f   PhysXFoundation_64:PhysXFoundation_64.dll
 0001:001d7ffb       __imp_load_?PxOptimizeBoundingBox@physx@@YA?AV?$PxVec3T@M@1@AEAV?$PxMat33T@M@1@@Z 00000001801d8ffb f   PhysXFoundation_64:PhysXFoundation_64.dll
 0001:001d8007       __imp_load_?Pxstrcmp@physx@@YAHPEBD0@Z 00000001801d9007 f   PhysXFoundation_64:PhysXFoundation_64.dll
 0001:001d8013       __imp_load_?PxAtomicDecrement@physx@@YAHPECH@Z 00000001801d9013 f   PhysXFoundation_64:PhysXFoundation_64.dll
 0001:001d801f       __imp_load_PxGetProfilerCallback 00000001801d901f f   PhysXFoundation_64:PhysXFoundation_64.dll
 0001:001d802b       __imp_load_??0PxFPUGuard@physx@@QEAA@XZ 00000001801d902b f   PhysXFoundation_64:PhysXFoundation_64.dll
 0001:001d8037       __imp_load_??1PxFPUGuard@physx@@QEAA@XZ 00000001801d9037 f   PhysXFoundation_64:PhysXFoundation_64.dll
 0001:001d8043       __imp_load_?PxDiagonalize@physx@@YA?AV?$PxVec3T@M@1@AEBV?$PxMat33T@M@1@AEAV?$PxQuatT@M@1@@Z 00000001801d9043 f   PhysXFoundation_64:PhysXFoundation_64.dll
 0001:001d813c       ?DloadAcquireSectionWriteAccess@@YAXXZ 00000001801d913c f i Delayimp:delayhlp.obj
 0001:001d81f8       ?DloadGetSRWLockFunctionPointers@@YAEXZ 00000001801d91f8 f i Delayimp:delayhlp.obj
 0001:001d8298       ?DloadMakePermanentImageCommit@@YAXPEAX_K@Z 00000001801d9298 f i Delayimp:delayhlp.obj
 0001:001d8330       ?DloadObtainSection@@YAPEAXPEAK0@Z 00000001801d9330 f i Delayimp:delayhlp.obj
 0001:001d83cc       ?DloadProtectSection@@YAXPEAX_KKPEAK@Z 00000001801d93cc f i Delayimp:delayhlp.obj
 0001:001d84c4       ?DloadReleaseSectionWriteAccess@@YAXXZ 00000001801d94c4 f i Delayimp:delayhlp.obj
 0001:001d8570       __delayLoadHelper2         00000001801d9570 f   Delayimp:delayhlp.obj
 0001:001d886c       ??3@YAXPEAX_K@Z            00000001801d986c f   LIBCMT:delete_scalar_size.obj
 0001:001d886c       ??_V@YAXPEAX@Z             00000001801d986c f   LIBCMT:delete_array.obj
 0001:001d8874       ??_Etype_info@@UEAAPEAXI@Z 00000001801d9874 f i LIBCMT:std_type_info_static.obj
 0001:001d8874       ??_Gtype_info@@UEAAPEAXI@Z 00000001801d9874 f i LIBCMT:std_type_info_static.obj
 0001:001d88a0       ?__scrt_initialize_type_info@@YAXXZ 00000001801d98a0 f   LIBCMT:tncleanup.obj
 0001:001d88b0       ?__scrt_uninitialize_type_info@@YAXXZ 00000001801d98b0 f   LIBCMT:tncleanup.obj
 0001:001d88d0       __chkstk                   00000001801d98d0 f   LIBCMT:chkstk.obj
 0001:001d88d0       _alloca_probe              00000001801d98d0 f   LIBCMT:chkstk.obj
 0001:001d8920       __vdecl_sinf4              00000001801d9920 f   LIBCMT:svml_ssinf4_dispatch.obj
 0001:001d8940       __libm_sse2_sincosf_       00000001801d9940 f   LIBCMT:svml_ssinf4_dispatch.obj
 0001:001d8983       __libm_sse2_sincosf4_      00000001801d9983 f   LIBCMT:svml_ssinf4_dispatch.obj
 0001:001d8990       ??3@YAXPEAX@Z              00000001801d9990 f   LIBCMT:delete_scalar.obj
 0001:001d8998       __scrt_acquire_startup_lock 00000001801d9998 f   LIBCMT:utility.obj
 0001:001d89d4       __scrt_dllmain_after_initialize_c 00000001801d99d4 f   LIBCMT:utility.obj
 0001:001d8a08       __scrt_dllmain_before_initialize_c 00000001801d9a08 f   LIBCMT:utility.obj
 0001:001d8a20       __scrt_dllmain_crt_thread_attach 00000001801d9a20 f   LIBCMT:utility.obj
 0001:001d8a48       __scrt_dllmain_crt_thread_detach 00000001801d9a48 f   LIBCMT:utility.obj
 0001:001d8a60       __scrt_dllmain_exception_filter 00000001801d9a60 f   LIBCMT:utility.obj
 0001:001d8ac0       __scrt_dllmain_uninitialize_c 00000001801d9ac0 f   LIBCMT:utility.obj
 0001:001d8af0       __scrt_dllmain_uninitialize_critical 00000001801d9af0 f   LIBCMT:utility.obj
 0001:001d8b04       __scrt_initialize_crt      00000001801d9b04 f   LIBCMT:utility.obj
 0001:001d8b40       __scrt_initialize_onexit_tables 00000001801d9b40 f   LIBCMT:utility.obj
 0001:001d8bcc       __scrt_is_nonwritable_in_current_image 00000001801d9bcc f   LIBCMT:utility.obj
 0001:001d8c64       __scrt_release_startup_lock 00000001801d9c64 f   LIBCMT:utility.obj
 0001:001d8c88       __scrt_uninitialize_crt    00000001801d9c88 f   LIBCMT:utility.obj
 0001:001d8cb4       _onexit                    00000001801d9cb4 f   LIBCMT:utility.obj
 0001:001d8cf0       atexit                     00000001801d9cf0 f   LIBCMT:utility.obj
 0001:001d8d08       __isa_available_init       00000001801d9d08 f   LIBCMT:cpu_disp.obj
 0001:001d92b4       _DllMainCRTStartup         00000001801da2b4 f   LIBCMT:dll_dllmain.obj
 0001:001d9300       __sse2_sinf4@@16           00000001801da300 f   LIBCMT:svml_ssinf4_sse2.obj
 0001:001d9c40       __sse4_sinf4@@16           00000001801dac40 f   LIBCMT:svml_ssinf4_sse4.obj
 0001:001da3b4       __scrt_is_ucrt_dll_in_use  00000001801db3b4 f   LIBCMT:ucrt_detection.obj
 0001:001da3c0       __crt_debugger_hook        00000001801db3c0 f   LIBCMT:utility_desktop.obj
 0001:001da3cc       __scrt_fastfail            00000001801db3cc f   LIBCMT:utility_desktop.obj
 0001:001da518       __security_init_cookie     00000001801db518 f   LIBCMT:gs_support.obj
 0001:001da5c8       __local_stdio_scanf_options 00000001801db5c8 f i LIBCMT:default_local_stdio_options.obj
 0001:001da5d0       __scrt_initialize_default_local_stdio_options 00000001801db5d0 f   LIBCMT:default_local_stdio_options.obj
 0001:001da5ec       __scrt_get_dyn_tls_init_callback 00000001801db5ec f   LIBCMT:dyn_tls_init.obj
 0001:001da5f4       _RTC_Initialize            00000001801db5f4 f   LIBCMT:initsect.obj
 0001:001da630       _RTC_Terminate             00000001801db630 f   LIBCMT:initsect.obj
 0001:001da670       __common_ssin_cout_rare    00000001801db670 f   LIBCMT:svml_s_sin_cout.obj
 0001:001da6e0       _get_purecall_handler      00000001801db6e0 f   libvcruntime:purevirt.obj
 0001:001da6ec       _purecall                  00000001801db6ec f   libvcruntime:purevirt.obj
 0001:001da710       __std_type_info_compare    00000001801db710 f   libvcruntime:std_type_info.obj
 0001:001da728       __std_type_info_destroy_list 00000001801db728 f   libvcruntime:std_type_info.obj
 0001:001da754       __std_type_info_name       00000001801db754 f   libvcruntime:std_type_info.obj
 0001:001da860       strstr                     00000001801db860 f   libvcruntime:strstr.obj
 0001:001daa54       __vcrt_initialize          00000001801dba54 f   libvcruntime:initialization.obj
 0001:001daa7c       __vcrt_thread_attach       00000001801dba7c f   libvcruntime:initialization.obj
 0001:001daa90       __vcrt_thread_detach       00000001801dba90 f   libvcruntime:initialization.obj
 0001:001daaa0       __vcrt_uninitialize        00000001801dbaa0 f   libvcruntime:initialization.obj
 0001:001daabc       __vcrt_uninitialize_critical 00000001801dbabc f   libvcruntime:initialization.obj
 0001:001daacc       __C_specific_handler       00000001801dbacc f   libvcruntime:riscchandler.obj
 0001:001dace4       __DestructExceptionObject  00000001801dbce4 f   libvcruntime:ehhelpers.obj
 0001:001dad58       ?_CallMemberFunction0@@YAXQEAX0@Z 00000001801dbd58 f i libvcruntime:ehhelpers.obj
 0001:001dad5c       _IsExceptionObjectToBeDestroyed 00000001801dbd5c f   libvcruntime:ehhelpers.obj
 0001:001dad8c       __AdjustPointer            00000001801dbd8c f   libvcruntime:ehhelpers.obj
 0001:001dadb0       __FrameUnwindFilter        00000001801dbdb0 f   libvcruntime:ehhelpers.obj
 0001:001dae18       __std_terminate            00000001801dbe18 f   libvcruntime:ehhelpers.obj
 0001:001dae24       ??$?0$00@DName@@QEAA@PEAVUnDecorator@@PEBDU?$StringLifeSelector@$00@@@Z 00000001801dbe24 f i libvcruntime:undname.obj
 0001:001dae70       ??$?0$01@DName@@QEAA@PEAVUnDecorator@@PEBDU?$StringLifeSelector@$01@@@Z 00000001801dbe70 f i libvcruntime:undname.obj
 0001:001dae70       ??$?0$0A@@DName@@QEAA@PEAVUnDecorator@@PEBDU?$StringLifeSelector@$0A@@@@Z 00000001801dbe70 f i libvcruntime:undname.obj
 0001:001daebc       ??$?0$01@pcharNode@@QEAA@PEBDHU?$StringLifeSelector@$01@@AEAV_HeapManager@@@Z 00000001801dbebc f i libvcruntime:undname.obj
 0001:001daebc       ??$?0$0A@@pcharNode@@QEAA@PEBDHU?$StringLifeSelector@$0A@@@AEAV_HeapManager@@@Z 00000001801dbebc f i libvcruntime:undname.obj
 0001:001daf24       ??$append@VDNameNode@@@DName@@AEAAXPEBVDNameNode@@@Z 00000001801dbf24 f i libvcruntime:undname.obj
 0001:001daf24       ??$append@VDNameStatusNode@@@DName@@AEAAXPEBVDNameStatusNode@@@Z 00000001801dbf24 f i libvcruntime:undname.obj
 0001:001daf24       ??$append@VcharNode@@@DName@@AEAAXPEBVcharNode@@@Z 00000001801dbf24 f i libvcruntime:undname.obj
 0001:001daf24       ??$append@VpcharNode@@@DName@@AEAAXPEBVpcharNode@@@Z 00000001801dbf24 f i libvcruntime:undname.obj
 0001:001daf8c       ??$doPchar@$00@DName@@AEAAXPEBDH@Z 00000001801dbf8c f i libvcruntime:undname.obj
 0001:001db028       ??$doPchar@$01@DName@@AEAAXPEBDH@Z 00000001801dc028 f i libvcruntime:undname.obj
 0001:001db028       ??$doPchar@$0A@@DName@@AEAAXPEBDH@Z 00000001801dc028 f i libvcruntime:undname.obj
 0001:001db0e0       ??0DName@@QEAA@PEAVUnDecorator@@AEAPEBDD@Z 00000001801dc0e0 f   libvcruntime:undname.obj
 0001:001db1a4       ??0DName@@QEAA@PEAVUnDecorator@@AEBUStringLiteral@@@Z 00000001801dc1a4 f   libvcruntime:undname.obj
 0001:001db1dc       ??0DName@@QEAA@PEAVUnDecorator@@D@Z 00000001801dc1dc f   libvcruntime:undname.obj
 0001:001db208       ??0DName@@QEAA@PEAVUnDecorator@@PEAV0@@Z 00000001801dc208 f   libvcruntime:undname.obj
 0001:001db290       ??0DName@@QEAA@PEAVUnDecorator@@W4DNameStatus@@@Z 00000001801dc290 f   libvcruntime:undname.obj
 0001:001db2c4       ??0DName@@QEAA@PEAVUnDecorator@@_J@Z 00000001801dc2c4 f   libvcruntime:undname.obj
 0001:001db370       ??0DName@@QEAA@PEAVUnDecorator@@_K@Z 00000001801dc370 f   libvcruntime:undname.obj
 0001:001db3fc       ??0DNameNode@@IEAA@XZ      00000001801dc3fc f i libvcruntime:undname.obj
 0001:001db40c       ??0UnDecorator@@QEAA@PEBDP6APEADJ@ZKP6APEAX_K@ZP6AXPEAX@Z@Z 00000001801dc40c f i libvcruntime:undname.obj
 0001:001db4fc       ??2@YAPEAX_KAEAV_HeapManager@@H@Z 00000001801dc4fc f   libvcruntime:undname.obj
 0001:001db524       ??4DName@@QEAAAEAV0@AEBUStringLiteral@@@Z 00000001801dc524 f   libvcruntime:undname.obj
 0001:001db550       ??AReplicator@@QEBA?AVDName@@H@Z 00000001801dc550 f   libvcruntime:undname.obj
 0001:001db5ac       ??HDName@@QEBA?AV0@AEBUStringLiteral@@@Z 00000001801dc5ac f   libvcruntime:undname.obj
 0001:001db5e0       ??HDName@@QEBA?AV0@AEBV0@@Z 00000001801dc5e0 f   libvcruntime:undname.obj
 0001:001db614       ??HDName@@QEBA?AV0@D@Z     00000001801dc614 f   libvcruntime:undname.obj
 0001:001db648       ??HDName@@QEBA?AV0@W4DNameStatus@@@Z 00000001801dc648 f   libvcruntime:undname.obj
 0001:001db67c       ??YDName@@QEAAAEAV0@AEBUStringLiteral@@@Z 00000001801dc67c f   libvcruntime:undname.obj
 0001:001db6f4       ??YDName@@QEAAAEAV0@AEBV0@@Z 00000001801dc6f4 f   libvcruntime:undname.obj
 0001:001db7ac       ??YDName@@QEAAAEAV0@D@Z    00000001801dc7ac f   libvcruntime:undname.obj
 0001:001db824       ??YDName@@QEAAAEAV0@W4DNameStatus@@@Z 00000001801dc824 f   libvcruntime:undname.obj
 0001:001db890       ??YReplicator@@QEAAAEAV0@AEBVDName@@@Z 00000001801dc890 f   libvcruntime:undname.obj
 0001:001db8f4       ?UScore@UnDecorator@@QEAA?AUStringLiteral@@W4Tokens@@@Z 00000001801dc8f4 f   libvcruntime:undname.obj
 0001:001db930       ?composeDeclaration@UnDecorator@@AEAA?AVDName@@AEBV2@@Z 00000001801dc930 f i libvcruntime:undname.obj
 0001:001dcb44       ?doPchar@DName@@AEAAXD@Z   00000001801ddb44 f   libvcruntime:undname.obj
 0001:001dcb9c       ?getAddressOf@UnDecorator@@AEAA?AVDName@@XZ 00000001801ddb9c f   libvcruntime:undname.obj
 0001:001dcc3c       ?getArgumentList@UnDecorator@@AEAA?AVDName@@XZ 00000001801ddc3c f   libvcruntime:undname.obj
 0001:001dcde8       ?getArgumentTypes@UnDecorator@@AEAA?AVDName@@XZ 00000001801ddde8 f   libvcruntime:undname.obj
 0001:001dcf54       ?getArrayAccess@UnDecorator@@AEAA?AVDName@@XZ 00000001801ddf54 f   libvcruntime:undname.obj
 0001:001dd004       ?getArrayObject@UnDecorator@@AEAA?AVDName@@XZ 00000001801de004 f   libvcruntime:undname.obj
 0001:001dd0ec       ?getArrayType@UnDecorator@@AEAA?AVDName@@AEBV2@@Z 00000001801de0ec f i libvcruntime:undname.obj
 0001:001dd368       ?getBasedType@UnDecorator@@AEAA?AVDName@@XZ 00000001801de368 f   libvcruntime:undname.obj
 0001:001dd47c       ?getBasicDataType@UnDecorator@@AEAA?AVDName@@AEBV2@@Z 00000001801de47c f   libvcruntime:undname.obj
 0001:001ddbc0       ?getCallingConvention@UnDecorator@@AEAA?AVDName@@XZ 00000001801debc0 f   libvcruntime:undname.obj
 0001:001ddd00       ?getDataIndirectType@UnDecorator@@AEAA?AVDName@@AEBV2@W4IndirectionKind@@0H@Z 00000001801ded00 f   libvcruntime:undname.obj
 0001:001de7c0       ?getDataType@UnDecorator@@AEAA?AVDName@@PEAV2@@Z 00000001801df7c0 f   libvcruntime:undname.obj
 0001:001de904       ?getDecoratedName@UnDecorator@@AEAA?AVDName@@XZ 00000001801df904 f   libvcruntime:undname.obj
 0001:001dec40       ?getDimension@UnDecorator@@AEAA?AVDName@@_N@Z 00000001801dfc40 f   libvcruntime:undname.obj
 0001:001deda8       ?getDispatchTarget@UnDecorator@@AEAA?AVDName@@XZ 00000001801dfda8 f   libvcruntime:undname.obj
 0001:001dee20       ?getECSUDataType@UnDecorator@@AEAA?AVDName@@XZ 00000001801dfe20 f   libvcruntime:undname.obj
 0001:001df060       ?getEnumType@UnDecorator@@AEAA?AVDName@@XZ 00000001801e0060 f i libvcruntime:undname.obj
 0001:001df1c0       ?getExtendedDataIndirectType@UnDecorator@@AEAA?AVDName@@AEAW4IndirectionKind@@AEA_NH@Z 00000001801e01c0 f   libvcruntime:undname.obj
 0001:001df430       ?getExternalDataType@UnDecorator@@AEAA?AVDName@@AEBV2@@Z 00000001801e0430 f i libvcruntime:undname.obj
 0001:001df52c       ?getFloatingPoint@UnDecorator@@AEAA?AVDName@@H@Z 00000001801e052c f   libvcruntime:undname.obj
 0001:001df690       ?getFunctionIndirectType@UnDecorator@@AEAA?AVDName@@AEBV2@@Z 00000001801e0690 f   libvcruntime:undname.obj
 0001:001dfc24       ?getLastChar@DNameStatusNode@@UEBADXZ 00000001801e0c24 f i libvcruntime:undname.obj
 0001:001dfc30       ?getLastChar@charNode@@UEBADXZ 00000001801e0c30 f i libvcruntime:undname.obj
 0001:001dfc34       ?getLastChar@pDNameNode@@UEBADXZ 00000001801e0c34 f i libvcruntime:undname.obj
 0001:001dfc60       ?getLastChar@pairNode@@UEBADXZ 00000001801e0c60 f i libvcruntime:undname.obj
 0001:001dfc98       ?getLastChar@pcharNode@@UEBADXZ 00000001801e0c98 f i libvcruntime:undname.obj
 0001:001dfcac       ?getMemberAccess@UnDecorator@@AEAA?AVDName@@XZ 00000001801e0cac f   libvcruntime:undname.obj
 0001:001dfd58       ?getMemoryWithBuffer@_HeapManager@@QEAAPEAX_K@Z 00000001801e0d58 f   libvcruntime:undname.obj
 0001:001dfde8       ?getNoexcept@UnDecorator@@AEAA?AVDName@@XZ 00000001801e0de8 f   libvcruntime:undname.obj
 0001:001dfe5c       ?getNumberOfDimensions@UnDecorator@@AEAAHXZ 00000001801e0e5c f   libvcruntime:undname.obj
 0001:001dfec8       ?getOperatorName@UnDecorator@@AEAA?AVDName@@_NPEA_N@Z 00000001801e0ec8 f i libvcruntime:undname.obj
 0001:001e0a70       ?getPointerToMember@UnDecorator@@AEAA?AVDName@@XZ 00000001801e1a70 f   libvcruntime:undname.obj
 0001:001e0b80       ?getPrimaryDataType@UnDecorator@@AEAA?AVDName@@AEBV2@@Z 00000001801e1b80 f   libvcruntime:undname.obj
 0001:001e0e98       ?getPtrRefDataType@UnDecorator@@AEAA?AVDName@@AEBV2@H@Z 00000001801e1e98 f   libvcruntime:undname.obj
 0001:001e1098       ?getPtrRefType@UnDecorator@@AEAA?AVDName@@AEBV2@0W4IndirectionKind@@@Z 00000001801e2098 f   libvcruntime:undname.obj
 0001:001e1204       ?getRestrictionSpec@UnDecorator@@AEAA?AVDName@@XZ 00000001801e2204 f   libvcruntime:undname.obj
 0001:001e1464       ?getReturnType@UnDecorator@@AEAA?AVDName@@PEAV2@@Z 00000001801e2464 f   libvcruntime:undname.obj
 0001:001e14a0       ?getScope@UnDecorator@@AEAA?AVDName@@XZ 00000001801e24a0 f   libvcruntime:undname.obj
 0001:001e1968       ?getScopedName@UnDecorator@@AEAA?AVDName@@XZ 00000001801e2968 f   libvcruntime:undname.obj
 0001:001e1adc       ?getSignedDimension@UnDecorator@@AEAA?AVDName@@XZ 00000001801e2adc f   libvcruntime:undname.obj
 0001:001e1b60       ?getString@DNameStatusNode@@UEBAPEADPEAD0@Z 00000001801e2b60 f i libvcruntime:undname.obj
 0001:001e1bec       ?getString@charNode@@UEBAPEADPEAD0@Z 00000001801e2bec f i libvcruntime:undname.obj
 0001:001e1c00       ?getString@pDNameNode@@UEBAPEADPEAD0@Z 00000001801e2c00 f i libvcruntime:undname.obj
 0001:001e1c30       ?getString@pairNode@@UEBAPEADPEAD0@Z 00000001801e2c30 f i libvcruntime:undname.obj
 0001:001e1c7c       ?getString@pcharNode@@UEBAPEADPEAD0@Z 00000001801e2c7c f i libvcruntime:undname.obj
 0001:001e1cb8       ?getStringEncoding@UnDecorator@@AEAA?AVDName@@W4PrefixKind@@H@Z 00000001801e2cb8 f   libvcruntime:undname.obj
 0001:001e1de8       ?getStringObject@UnDecorator@@AEAA?AVDName@@XZ 00000001801e2de8 f   libvcruntime:undname.obj
 0001:001e1e90       ?getSymbolName@UnDecorator@@AEAA?AVDName@@XZ 00000001801e2e90 f i libvcruntime:undname.obj
 0001:001e1ee0       ?getTemplateArgumentList@UnDecorator@@AEAA?AVDName@@XZ 00000001801e2ee0 f   libvcruntime:undname.obj
 0001:001e2144       ?getTemplateName@UnDecorator@@AEAA?AVDName@@_N@Z 00000001801e3144 f   libvcruntime:undname.obj
 0001:001e245c       ?getTemplateNonTypeArgument@UnDecorator@@AEAA?AVDName@@XZ 00000001801e345c f   libvcruntime:undname.obj
 0001:001e2900       ?getTemplateTypeArgument@UnDecorator@@AEAA?AVDName@@XZ 00000001801e3900 f   libvcruntime:undname.obj
 0001:001e2a7c       ?getThrowTypes@UnDecorator@@AEAA?AVDName@@XZ 00000001801e3a7c f   libvcruntime:undname.obj
 0001:001e2aa8       ?getTypeEncoding@UnDecorator@@AEAAHXZ 00000001801e3aa8 f i libvcruntime:undname.obj
 0001:001e2e74       ?getUndecoratedName@UnDecorator@@QEAAPEADPEADH@Z 00000001801e3e74 f i libvcruntime:undname.obj
 0001:001e2fb0       ?getUnionObject@UnDecorator@@AEAA?AVDName@@XZ 00000001801e3fb0 f   libvcruntime:undname.obj
 0001:001e30a0       ?getVCallThunkType@UnDecorator@@AEAA?AVDName@@XZ 00000001801e40a0 f i libvcruntime:undname.obj
 0001:001e3114       ?getValue@UnDecorator@@AEAA?AV?$optional@_K@std@@XZ 00000001801e4114 f   libvcruntime:undname.obj
 0001:001e3158       ?getValueObject@UnDecorator@@AEAA?AVDName@@XZ 00000001801e4158 f   libvcruntime:undname.obj
 0001:001e32f8       ?getVdispMapType@UnDecorator@@AEAA?AVDName@@AEBV2@@Z 00000001801e42f8 f i libvcruntime:undname.obj
 0001:001e3390       ?getVfTableType@UnDecorator@@AEAA?AVDName@@AEBV2@@Z 00000001801e4390 f i libvcruntime:undname.obj
 0001:001e35cc       ?getZName@UnDecorator@@AEAA?AVDName@@_N0@Z 00000001801e45cc f   libvcruntime:undname.obj
 0001:001e38c8       ?length@pDNameNode@@UEBAHXZ 00000001801e48c8 f i libvcruntime:undname.obj
 0001:001e38f0       ?length@pairNode@@UEBAHXZ  00000001801e48f0 f i libvcruntime:undname.obj
 0001:001e3944       ?make@DNameStatusNode@@SAPEBV1@W4DNameStatus@@@Z 00000001801e4944 f i libvcruntime:undname.obj
 0001:001e3964       ?parseDecoratedName@UnDecorator@@AEAA?AVDName@@XZ 00000001801e4964 f   libvcruntime:undname.obj
 0001:001e3a98       ?raw_length@pDNameNode@@UEBAHXZ 00000001801e4a98 f i libvcruntime:undname.obj
 0001:001e3a9c       ?raw_length@pairNode@@UEBAHXZ 00000001801e4a9c f i libvcruntime:undname.obj
 0001:001e3af8       __unDName                  00000001801e4af8 f   libvcruntime:undname.obj
 0001:001e3b24       __unDNameEx                00000001801e4b24 f   libvcruntime:undname.obj
 0001:001e3c00       snprintf                   00000001801e4c00 f i libvcruntime:undname.obj
 0001:001e3c5c       sprintf_s                  00000001801e4c5c f i libvcruntime:undname.obj
 0001:001e3cb4       __vcrt_freefls             00000001801e4cb4 f   libvcruntime:per_thread_data.obj
 0001:001e3cd4       __vcrt_freeptd_for_this_thread 00000001801e4cd4 f   libvcruntime:per_thread_data.obj
 0001:001e3d1c       __vcrt_getptd              00000001801e4d1c f   libvcruntime:per_thread_data.obj
 0001:001e3d38       __vcrt_getptd_noexit       00000001801e4d38 f   libvcruntime:per_thread_data.obj
 0001:001e3e04       __vcrt_initialize_ptd      00000001801e4e04 f   libvcruntime:per_thread_data.obj
 0001:001e3e4c       __vcrt_uninitialize_ptd    00000001801e4e4c f   libvcruntime:per_thread_data.obj
 0001:001e3e74       __vcrt_initialize_locks    00000001801e4e74 f   libvcruntime:locks.obj
 0001:001e3ebc       __vcrt_lock                00000001801e4ebc f   libvcruntime:locks.obj
 0001:001e3ed8       __vcrt_uninitialize_locks  00000001801e4ed8 f   libvcruntime:locks.obj
 0001:001e3f10       __vcrt_unlock              00000001801e4f10 f   libvcruntime:locks.obj
 0001:001e3f60       _NLG_Notify                00000001801e4f60 f   libvcruntime:notify.obj
 0001:001e3f80       __NLG_Dispatch2            00000001801e4f80 f   libvcruntime:notify.obj
 0001:001e3f90       __NLG_Return2              00000001801e4f90 f   libvcruntime:notify.obj
 0001:001e3f94       __except_validate_context_record 00000001801e4f94 f   libvcruntime:jbcxrval.obj
 0001:001e3fcc       ??$_CallSETranslator@V__FrameHandler3@@@@YAHPEAUEHExceptionRecord@@PEA_KPEAU_CONTEXT@@PEAU_xDISPATCHER_CONTEXT@@PEBU_s_FuncInfo@@K1H@Z 00000001801e4fcc f i libvcruntime:risctrnsctrl.obj
 0001:001e4020       ??$_CallSETranslator@V__FrameHandler4@@@@YAHPEAUEHExceptionRecord@@PEA_KPEAU_CONTEXT@@PEAU_xDISPATCHER_CONTEXT@@PEAUFuncInfo4@FH4@@K1H@Z 00000001801e5020 f i libvcruntime:risctrnsctrl.obj
 0001:001e4074       ?CatchTryBlock@__FrameHandler3@@SAPEBU_s_TryBlockMapEntry@@PEBU_s_FuncInfo@@H@Z 00000001801e5074 f   libvcruntime:risctrnsctrl.obj
 0001:001e40d8       ?DecompFuncInfo@FH4@@YA_JPEAEAEAUFuncInfo4@1@_KH_N@Z 00000001801e50d8 f i libvcruntime:risctrnsctrl.obj
 0001:001e4204       ?ExecutionInCatch@__FrameHandler3@@SA_NPEAU_xDISPATCHER_CONTEXT@@PEBU_s_FuncInfo@@@Z 00000001801e5204 f   libvcruntime:risctrnsctrl.obj
 0001:001e4230       ?ExecutionInCatch@__FrameHandler4@@SA_NPEAU_xDISPATCHER_CONTEXT@@PEAUFuncInfo4@FH4@@@Z 00000001801e5230 f   libvcruntime:risctrnsctrl.obj
 0001:001e4238       ?FrameUnwindToEmptyState@__FrameHandler3@@SAXPEA_KPEAU_xDISPATCHER_CONTEXT@@PEBU_s_FuncInfo@@@Z 00000001801e5238 f   libvcruntime:risctrnsctrl.obj
 0001:001e429c       ?FrameUnwindToEmptyState@__FrameHandler4@@SAXPEA_KPEAU_xDISPATCHER_CONTEXT@@PEAUFuncInfo4@FH4@@@Z 00000001801e529c f   libvcruntime:risctrnsctrl.obj
 0001:001e42d0       ?GetEstablisherFrame@__FrameHandler3@@SAPEA_KPEA_KPEAU_xDISPATCHER_CONTEXT@@PEBU_s_FuncInfo@@0@Z 00000001801e52d0 f   libvcruntime:risctrnsctrl.obj
 0001:001e43b8       ?GetEstablisherFrame@__FrameHandler4@@SAPEA_KPEA_KPEAU_xDISPATCHER_CONTEXT@@PEAUFuncInfo4@FH4@@0@Z 00000001801e53b8 f   libvcruntime:risctrnsctrl.obj
 0001:001e43dc       ?GetRangeOfTrysToCheck@__FrameHandler3@@SA?AU?$pair@Viterator@TryBlockMap@__FrameHandler3@@V123@@std@@AEAVTryBlockMap@1@HPEAU_xDISPATCHER_CONTEXT@@PEBU_s_FuncInfo@@H@Z 00000001801e53dc f   libvcruntime:risctrnsctrl.obj
 0001:001e4514       ?GetRangeOfTrysToCheck@__FrameHandler4@@SA?AU?$pair@Viterator@TryBlockMap4@FH4@@V123@@std@@AEAVTryBlockMap4@FH4@@HPEAU_xDISPATCHER_CONTEXT@@PEAUFuncInfo4@5@H@Z 00000001801e5514 f   libvcruntime:risctrnsctrl.obj
 0001:001e4694       ?UnwindNestedFrames@__FrameHandler3@@SAXPEA_KPEAUEHExceptionRecord@@PEAU_CONTEXT@@0PEAXPEBU_s_FuncInfo@@HHPEBU_s_HandlerType@@PEAU_xDISPATCHER_CONTEXT@@E@Z 00000001801e5694 f   libvcruntime:risctrnsctrl.obj
 0001:001e4798       ?UnwindNestedFrames@__FrameHandler4@@SAXPEA_KPEAUEHExceptionRecord@@PEAU_CONTEXT@@0PEAXPEAUFuncInfo4@FH4@@HHPEAUHandlerType4@5@PEAU_xDISPATCHER_CONTEXT@@E@Z 00000001801e5798 f   libvcruntime:risctrnsctrl.obj
 0001:001e48b8       ?setBuffer@TryBlockMap4@FH4@@QEAAXViterator@12@@Z 00000001801e58b8 f i libvcruntime:risctrnsctrl.obj
 0001:001e4aa4       _CreateFrameInfo           00000001801e5aa4 f   libvcruntime:risctrnsctrl.obj
 0001:001e4ae0       _FindAndUnlinkFrame        00000001801e5ae0 f   libvcruntime:risctrnsctrl.obj
 0001:001e4b34       _GetImageBase              00000001801e5b34 f   libvcruntime:risctrnsctrl.obj
 0001:001e4b48       _GetThrowImageBase         00000001801e5b48 f   libvcruntime:risctrnsctrl.obj
 0001:001e4b5c       _SetImageBase              00000001801e5b5c f   libvcruntime:risctrnsctrl.obj
 0001:001e4b74       _SetThrowImageBase         00000001801e5b74 f   libvcruntime:risctrnsctrl.obj
 0001:001e4b8c       __CxxFrameHandler3         00000001801e5b8c f   libvcruntime:risctrnsctrl.obj
 0001:001e4c14       __CxxFrameHandler4         00000001801e5c14 f   libvcruntime:risctrnsctrl.obj
 0001:001e4e2c       __vcrt_FlsAlloc            00000001801e5e2c f   libvcruntime:winapi_downlevel.obj
 0001:001e4e74       __vcrt_FlsFree             00000001801e5e74 f   libvcruntime:winapi_downlevel.obj
 0001:001e4ebc       __vcrt_FlsGetValue         00000001801e5ebc f   libvcruntime:winapi_downlevel.obj
 0001:001e4f04       __vcrt_FlsSetValue         00000001801e5f04 f   libvcruntime:winapi_downlevel.obj
 0001:001e4f58       __vcrt_InitializeCriticalSectionEx 00000001801e5f58 f   libvcruntime:winapi_downlevel.obj
 0001:001e4fbc       ?GetCurrentState@__FrameHandler3@@SAHPEA_KPEAU_xDISPATCHER_CONTEXT@@PEBU_s_FuncInfo@@@Z 00000001801e5fbc f   libvcruntime:ehstate.obj
 0001:001e4fe4       ?GetUnwindTryBlock@__FrameHandler3@@SAHPEA_KPEAU_xDISPATCHER_CONTEXT@@PEBU_s_FuncInfo@@@Z 00000001801e5fe4 f   libvcruntime:ehstate.obj
 0001:001e5010       ?SetState@__FrameHandler3@@SAXPEA_KPEBU_s_FuncInfo@@H@Z 00000001801e6010 f   libvcruntime:ehstate.obj
 0001:001e501c       ?SetUnwindTryBlock@__FrameHandler3@@SAXPEA_KPEAU_xDISPATCHER_CONTEXT@@PEBU_s_FuncInfo@@H@Z 00000001801e601c f   libvcruntime:ehstate.obj
 0001:001e5058       ?StateFromControlPc@__FrameHandler3@@SAHPEBU_s_FuncInfo@@PEAU_xDISPATCHER_CONTEXT@@@Z 00000001801e6058 f   libvcruntime:ehstate.obj
 0001:001e5060       ?StateFromControlPc@__FrameHandler4@@SAHPEAUFuncInfo4@FH4@@PEAU_xDISPATCHER_CONTEXT@@@Z 00000001801e6060 f   libvcruntime:ehstate.obj
 0001:001e5068       ?StateFromIp@__FrameHandler3@@SAHPEBU_s_FuncInfo@@PEAU_xDISPATCHER_CONTEXT@@_K@Z 00000001801e6068 f   libvcruntime:ehstate.obj
 0001:001e50d0       ?StateFromIp@__FrameHandler4@@SAHPEAUFuncInfo4@FH4@@PEAU_xDISPATCHER_CONTEXT@@_K@Z 00000001801e60d0 f   libvcruntime:ehstate.obj
 0001:001e6874       ??$TypeMatchHelper@V__FrameHandler3@@@@YAHPEBU_s_HandlerType@@PEBU_s_CatchableType@@PEBU_s_ThrowInfo@@@Z 00000001801e7874 f i libvcruntime:frame.obj
 0001:001e6994       ??$TypeMatchHelper@V__FrameHandler4@@@@YAHPEAUHandlerType4@FH4@@PEBU_s_CatchableType@@PEBU_s_ThrowInfo@@@Z 00000001801e7994 f i libvcruntime:frame.obj
 0001:001e6ad4       ??$__InternalCxxFrameHandler@V__FrameHandler3@@@@YA?AW4_EXCEPTION_DISPOSITION@@PEAUEHExceptionRecord@@PEA_KPEAU_CONTEXT@@PEAU_xDISPATCHER_CONTEXT@@PEBU_s_FuncInfo@@H1E@Z 00000001801e7ad4 f i libvcruntime:frame.obj
 0001:001e6d04       ??$__InternalCxxFrameHandler@V__FrameHandler4@@@@YA?AW4_EXCEPTION_DISPOSITION@@PEAUEHExceptionRecord@@PEA_KPEAU_CONTEXT@@PEAU_xDISPATCHER_CONTEXT@@PEAUFuncInfo4@FH4@@H1E@Z 00000001801e7d04 f i libvcruntime:frame.obj
 0001:001e6fac       ??$__InternalCxxFrameHandlerWrapper@V__FrameHandler3@@@@YA?AW4_EXCEPTION_DISPOSITION@@PEAUEHExceptionRecord@@PEA_KPEAU_CONTEXT@@PEAU_xDISPATCHER_CONTEXT@@PEBU_s_FuncInfo@@H1E@Z 00000001801e7fac f i libvcruntime:frame.obj
 0001:001e6fb4       ??$__InternalCxxFrameHandlerWrapper@V__FrameHandler4@@@@YA?AW4_EXCEPTION_DISPOSITION@@PEAUEHExceptionRecord@@PEA_KPEAU_CONTEXT@@PEAU_xDISPATCHER_CONTEXT@@PEAUFuncInfo4@FH4@@H1E@Z 00000001801e7fb4 f i libvcruntime:frame.obj
 0001:001e7000       ??0HandlerMap4@FH4@@QEAA@PEBUTryBlockMapEntry4@1@_KH@Z 00000001801e8000 f i libvcruntime:frame.obj
 0001:001e7084       ??0TryBlockMap4@FH4@@QEAA@PEBUFuncInfo4@1@_K@Z 00000001801e8084 f i libvcruntime:frame.obj
 0001:001e7168       ??0bad_exception@std@@QEAA@AEBV01@@Z 00000001801e8168 f i libvcruntime:frame.obj
 0001:001e71a4       ??0bad_exception@std@@QEAA@XZ 00000001801e81a4 f i libvcruntime:frame.obj
 0001:001e71c8       ??0exception@std@@QEAA@AEBV01@@Z 00000001801e81c8 f i libvcruntime:frame.obj
 0001:001e71fc       ??1bad_exception@std@@UEAA@XZ 00000001801e81fc f i libvcruntime:frame.obj
 0001:001e7210       ??_Ebad_exception@std@@UEAAPEAXI@Z 00000001801e8210 f i libvcruntime:frame.obj
 0001:001e7210       ??_Eexception@std@@UEAAPEAXI@Z 00000001801e8210 f i libvcruntime:frame.obj
 0001:001e7210       ??_Gbad_exception@std@@UEAAPEAXI@Z 00000001801e8210 f i libvcruntime:frame.obj
 0001:001e7210       ??_Gexception@std@@UEAAPEAXI@Z 00000001801e8210 f i libvcruntime:frame.obj
 0001:001e7254       ?CxxCallCatchBlock@__FrameHandler3@@SAPEAXPEAU_EXCEPTION_RECORD@@@Z 00000001801e8254 f   libvcruntime:frame.obj
 0001:001e7440       ?CxxCallCatchBlock@__FrameHandler4@@SAPEAXPEAU_EXCEPTION_RECORD@@@Z 00000001801e8440 f   libvcruntime:frame.obj
 0001:001e7680       ?DecompHandler@HandlerMap4@FH4@@AEAAXXZ 00000001801e8680 f i libvcruntime:frame.obj
 0001:001e78d0       ?FrameUnwindToState@__FrameHandler3@@SAXPEA_KPEAU_xDISPATCHER_CONTEXT@@PEBU_s_FuncInfo@@H@Z 00000001801e88d0 f   libvcruntime:frame.obj
 0001:001e7a5c       ?FrameUnwindToState@__FrameHandler4@@SAXPEA_KPEAU_xDISPATCHER_CONTEXT@@PEAUFuncInfo4@FH4@@H@Z 00000001801e8a5c f   libvcruntime:frame.obj
 0001:001e7d68       ?GetHandlerSearchState@__FrameHandler3@@SAHPEA_KPEAU_xDISPATCHER_CONTEXT@@PEBU_s_FuncInfo@@@Z 00000001801e8d68 f i libvcruntime:frame.obj
 0001:001e7f70       ?ReadEntry@UWMap4@FH4@@AEAAXPEAPEAE@Z 00000001801e8f70 f i libvcruntime:frame.obj
 0001:001e8010       ?_CallMemberFunction1@@YAXQEAX00@Z 00000001801e9010 f i libvcruntime:frame.obj
 0001:001e801c       ?_CallMemberFunction2@@YAXQEAX00H@Z 00000001801e901c f i libvcruntime:frame.obj
 0001:001e802c       ?getStartStop@UWMap4@FH4@@QEAAXHHAEAViterator@12@0@Z 00000001801e902c f i libvcruntime:frame.obj
 0001:001e80fc       ?getStateFromIterators@UWMap4@FH4@@SAHAEBViterator@12@H0H0@Z 00000001801e90fc f i libvcruntime:frame.obj
 0001:001e81ac       ?what@exception@std@@UEBAPEBDXZ 00000001801e91ac f i libvcruntime:frame.obj
 0001:001e8200       _CallSettingFrame          00000001801e9200 f   libvcruntime:handlers.obj
 0001:001e8240       _CallSettingFrame_LookupContinuationIndex 00000001801e9240 f   libvcruntime:handlers.obj
 0001:001e8270       _CallSettingFrame_NotifyContinuationAddr 00000001801e9270 f   libvcruntime:handlers.obj
 0001:001e82a0       _CallSettingFrameEncoded   00000001801e92a0 f   libvcruntime:handlers.obj
 0001:001e82e8       __std_exception_copy       00000001801e92e8 f   libvcruntime:std_exception.obj
 0001:001e8368       __std_exception_destroy    00000001801e9368 f   libvcruntime:std_exception.obj
 0001:001e8390       _CxxThrowException         00000001801e9390 f   libvcruntime:throw.obj
 0001:001e8440       cosf_sse2                  00000001801e9440 f   libucrt:cosf.obj
 0001:001e86e0       cosf                       00000001801e96e0 f   libucrt:cosf.obj
 0001:001e8900       sinf_sse2                  00000001801e9900 f   libucrt:sinf.obj
 0001:001e8c70       sinf                       00000001801e9c70 f   libucrt:sinf.obj
 0001:001e8fc0       tanf_sse2                  00000001801e9fc0 f   libucrt:tanf.obj
 0001:001e92e0       tanf                       00000001801ea2e0 f   libucrt:tanf.obj
 0001:001e95bc       __acrt_initialize_stdio    00000001801ea5bc f   libucrt:_file.obj
 0001:001e96dc       __acrt_iob_func            00000001801ea6dc f   libucrt:_file.obj
 0001:001e96f0       __acrt_uninitialize_stdio  00000001801ea6f0 f   libucrt:_file.obj
 0001:001e974c       _lock_file                 00000001801ea74c f   libucrt:_file.obj
 0001:001e9758       _unlock_file               00000001801ea758 f   libucrt:_file.obj
 0001:001e9954       ??$ensure_buffer_is_big_enough@D@formatting_buffer@__crt_stdio_output@@QEAA_N_KAEAV__crt_cached_ptd_host@@@Z 00000001801ea954 f i libucrt:output.obj
 0001:001e99fc       ??$parse_integer@KV?$c_string_character_source@D@__crt_strtox@@$0A@@__crt_strtox@@YAKAEAV__crt_cached_ptd_host@@V?$c_string_character_source@D@0@H_N@Z 00000001801ea9fc f i libucrt:output.obj
 0001:001e9cb0       ??$type_case_integer@$07@?$output_processor@DV?$stream_output_adapter@D@__crt_stdio_output@@V?$standard_base@DV?$stream_output_adapter@D@__crt_stdio_output@@@2@@__crt_stdio_output@@AEAA_N_N@Z 00000001801eacb0 f i libucrt:output.obj
 0001:001e9cb0       ??$type_case_integer@$07@?$output_processor@DV?$string_output_adapter@D@__crt_stdio_output@@V?$format_validation_base@DV?$string_output_adapter@D@__crt_stdio_output@@@2@@__crt_stdio_output@@AEAA_N_N@Z 00000001801eacb0 f i libucrt:output.obj
 0001:001e9cb0       ??$type_case_integer@$07@?$output_processor@DV?$string_output_adapter@D@__crt_stdio_output@@V?$standard_base@DV?$string_output_adapter@D@__crt_stdio_output@@@2@@__crt_stdio_output@@AEAA_N_N@Z 00000001801eacb0 f i libucrt:output.obj
 0001:001e9eb4       ??$type_case_integer@$09@?$output_processor@DV?$stream_output_adapter@D@__crt_stdio_output@@V?$standard_base@DV?$stream_output_adapter@D@__crt_stdio_output@@@2@@__crt_stdio_output@@AEAA_N_N@Z 00000001801eaeb4 f i libucrt:output.obj
 0001:001e9eb4       ??$type_case_integer@$09@?$output_processor@DV?$string_output_adapter@D@__crt_stdio_output@@V?$format_validation_base@DV?$string_output_adapter@D@__crt_stdio_output@@@2@@__crt_stdio_output@@AEAA_N_N@Z 00000001801eaeb4 f i libucrt:output.obj
 0001:001e9eb4       ??$type_case_integer@$09@?$output_processor@DV?$string_output_adapter@D@__crt_stdio_output@@V?$standard_base@DV?$string_output_adapter@D@__crt_stdio_output@@@2@@__crt_stdio_output@@AEAA_N_N@Z 00000001801eaeb4 f i libucrt:output.obj
 0001:001ea0b8       ??$type_case_integer@$0BA@@?$output_processor@DV?$stream_output_adapter@D@__crt_stdio_output@@V?$standard_base@DV?$stream_output_adapter@D@__crt_stdio_output@@@2@@__crt_stdio_output@@AEAA_N_N@Z 00000001801eb0b8 f i libucrt:output.obj
 0001:001ea0b8       ??$type_case_integer@$0BA@@?$output_processor@DV?$string_output_adapter@D@__crt_stdio_output@@V?$format_validation_base@DV?$string_output_adapter@D@__crt_stdio_output@@@2@@__crt_stdio_output@@AEAA_N_N@Z 00000001801eb0b8 f i libucrt:output.obj
 0001:001ea0b8       ??$type_case_integer@$0BA@@?$output_processor@DV?$string_output_adapter@D@__crt_stdio_output@@V?$standard_base@DV?$string_output_adapter@D@__crt_stdio_output@@@2@@__crt_stdio_output@@AEAA_N_N@Z 00000001801eb0b8 f i libucrt:output.obj
 0001:001ea2bc       ??$type_case_integer_parse_into_buffer@I$07@?$output_processor@DV?$stream_output_adapter@D@__crt_stdio_output@@V?$standard_base@DV?$stream_output_adapter@D@__crt_stdio_output@@@2@@__crt_stdio_output@@AEAAXI_N@Z 00000001801eb2bc f i libucrt:output.obj
 0001:001ea2bc       ??$type_case_integer_parse_into_buffer@I$07@?$output_processor@DV?$string_output_adapter@D@__crt_stdio_output@@V?$format_validation_base@DV?$string_output_adapter@D@__crt_stdio_output@@@2@@__crt_stdio_output@@AEAAXI_N@Z 00000001801eb2bc f i libucrt:output.obj
 0001:001ea2bc       ??$type_case_integer_parse_into_buffer@I$07@?$output_processor@DV?$string_output_adapter@D@__crt_stdio_output@@V?$standard_base@DV?$string_output_adapter@D@__crt_stdio_output@@@2@@__crt_stdio_output@@AEAAXI_N@Z 00000001801eb2bc f i libucrt:output.obj
 0001:001ea32c       ??$type_case_integer_parse_into_buffer@I$09@?$output_processor@DV?$stream_output_adapter@D@__crt_stdio_output@@V?$standard_base@DV?$stream_output_adapter@D@__crt_stdio_output@@@2@@__crt_stdio_output@@AEAAXI_N@Z 00000001801eb32c f i libucrt:output.obj
 0001:001ea32c       ??$type_case_integer_parse_into_buffer@I$09@?$output_processor@DV?$string_output_adapter@D@__crt_stdio_output@@V?$format_validation_base@DV?$string_output_adapter@D@__crt_stdio_output@@@2@@__crt_stdio_output@@AEAAXI_N@Z 00000001801eb32c f i libucrt:output.obj
 0001:001ea32c       ??$type_case_integer_parse_into_buffer@I$09@?$output_processor@DV?$string_output_adapter@D@__crt_stdio_output@@V?$standard_base@DV?$string_output_adapter@D@__crt_stdio_output@@@2@@__crt_stdio_output@@AEAAXI_N@Z 00000001801eb32c f i libucrt:output.obj
 0001:001ea3d8       ??$type_case_integer_parse_into_buffer@I$0BA@@?$output_processor@DV?$stream_output_adapter@D@__crt_stdio_output@@V?$standard_base@DV?$stream_output_adapter@D@__crt_stdio_output@@@2@@__crt_stdio_output@@AEAAXI_N@Z 00000001801eb3d8 f i libucrt:output.obj
 0001:001ea3d8       ??$type_case_integer_parse_into_buffer@I$0BA@@?$output_processor@DV?$string_output_adapter@D@__crt_stdio_output@@V?$format_validation_base@DV?$string_output_adapter@D@__crt_stdio_output@@@2@@__crt_stdio_output@@AEAAXI_N@Z 00000001801eb3d8 f i libucrt:output.obj
 0001:001ea3d8       ??$type_case_integer_parse_into_buffer@I$0BA@@?$output_processor@DV?$string_output_adapter@D@__crt_stdio_output@@V?$standard_base@DV?$string_output_adapter@D@__crt_stdio_output@@@2@@__crt_stdio_output@@AEAAXI_N@Z 00000001801eb3d8 f i libucrt:output.obj
 0001:001ea45c       ??$type_case_integer_parse_into_buffer@_K$07@?$output_processor@DV?$stream_output_adapter@D@__crt_stdio_output@@V?$standard_base@DV?$stream_output_adapter@D@__crt_stdio_output@@@2@@__crt_stdio_output@@AEAAX_K_N@Z 00000001801eb45c f i libucrt:output.obj
 0001:001ea45c       ??$type_case_integer_parse_into_buffer@_K$07@?$output_processor@DV?$string_output_adapter@D@__crt_stdio_output@@V?$format_validation_base@DV?$string_output_adapter@D@__crt_stdio_output@@@2@@__crt_stdio_output@@AEAAX_K_N@Z 00000001801eb45c f i libucrt:output.obj
 0001:001ea45c       ??$type_case_integer_parse_into_buffer@_K$07@?$output_processor@DV?$string_output_adapter@D@__crt_stdio_output@@V?$standard_base@DV?$string_output_adapter@D@__crt_stdio_output@@@2@@__crt_stdio_output@@AEAAX_K_N@Z 00000001801eb45c f i libucrt:output.obj
 0001:001ea4cc       ??$type_case_integer_parse_into_buffer@_K$09@?$output_processor@DV?$stream_output_adapter@D@__crt_stdio_output@@V?$standard_base@DV?$stream_output_adapter@D@__crt_stdio_output@@@2@@__crt_stdio_output@@AEAAX_K_N@Z 00000001801eb4cc f i libucrt:output.obj
 0001:001ea4cc       ??$type_case_integer_parse_into_buffer@_K$09@?$output_processor@DV?$string_output_adapter@D@__crt_stdio_output@@V?$format_validation_base@DV?$string_output_adapter@D@__crt_stdio_output@@@2@@__crt_stdio_output@@AEAAX_K_N@Z 00000001801eb4cc f i libucrt:output.obj
 0001:001ea4cc       ??$type_case_integer_parse_into_buffer@_K$09@?$output_processor@DV?$string_output_adapter@D@__crt_stdio_output@@V?$standard_base@DV?$string_output_adapter@D@__crt_stdio_output@@@2@@__crt_stdio_output@@AEAAX_K_N@Z 00000001801eb4cc f i libucrt:output.obj
 0001:001ea57c       ??$type_case_integer_parse_into_buffer@_K$0BA@@?$output_processor@DV?$stream_output_adapter@D@__crt_stdio_output@@V?$standard_base@DV?$stream_output_adapter@D@__crt_stdio_output@@@2@@__crt_stdio_output@@AEAAX_K_N@Z 00000001801eb57c f i libucrt:output.obj
 0001:001ea57c       ??$type_case_integer_parse_into_buffer@_K$0BA@@?$output_processor@DV?$string_output_adapter@D@__crt_stdio_output@@V?$format_validation_base@DV?$string_output_adapter@D@__crt_stdio_output@@@2@@__crt_stdio_output@@AEAAX_K_N@Z 00000001801eb57c f i libucrt:output.obj
 0001:001ea57c       ??$type_case_integer_parse_into_buffer@_K$0BA@@?$output_processor@DV?$string_output_adapter@D@__crt_stdio_output@@V?$standard_base@DV?$string_output_adapter@D@__crt_stdio_output@@@2@@__crt_stdio_output@@AEAAX_K_N@Z 00000001801eb57c f i libucrt:output.obj
 0001:001ea71c       ?crop_zeroes@__crt_stdio_output@@YAXPEADQEAU__crt_locale_pointers@@@Z 00000001801eb71c f i libucrt:output.obj
 0001:001ea790       ?get_raw_ptd@__crt_cached_ptd_host@@QEAAPEAU__acrt_ptd@@XZ 00000001801eb790 f i libucrt:output.obj
 0001:001ea7f8       ?parse_int_from_format_string@?$output_processor@DV?$stream_output_adapter@D@__crt_stdio_output@@V?$standard_base@DV?$stream_output_adapter@D@__crt_stdio_output@@@2@@__crt_stdio_output@@AEAA_NQEAH@Z 00000001801eb7f8 f i libucrt:output.obj
 0001:001ea7f8       ?parse_int_from_format_string@?$output_processor@DV?$string_output_adapter@D@__crt_stdio_output@@V?$format_validation_base@DV?$string_output_adapter@D@__crt_stdio_output@@@2@@__crt_stdio_output@@AEAA_NQEAH@Z 00000001801eb7f8 f i libucrt:output.obj
 0001:001ea7f8       ?parse_int_from_format_string@?$output_processor@DV?$string_output_adapter@D@__crt_stdio_output@@V?$standard_base@DV?$string_output_adapter@D@__crt_stdio_output@@@2@@__crt_stdio_output@@AEAA_NQEAH@Z 00000001801eb7f8 f i libucrt:output.obj
 0001:001ea888       ?process@?$output_processor@DV?$stream_output_adapter@D@__crt_stdio_output@@V?$standard_base@DV?$stream_output_adapter@D@__crt_stdio_output@@@2@@__crt_stdio_output@@QEAAHXZ 00000001801eb888 f i libucrt:output.obj
 0001:001eac0c       ?process@?$output_processor@DV?$string_output_adapter@D@__crt_stdio_output@@V?$format_validation_base@DV?$string_output_adapter@D@__crt_stdio_output@@@2@@__crt_stdio_output@@QEAAHXZ 00000001801ebc0c f i libucrt:output.obj
 0001:001eaf74       ?process@?$output_processor@DV?$string_output_adapter@D@__crt_stdio_output@@V?$standard_base@DV?$string_output_adapter@D@__crt_stdio_output@@@2@@__crt_stdio_output@@QEAAHXZ 00000001801ebf74 f i libucrt:output.obj
 0001:001eb2e4       ?state_case_size@?$output_processor@DV?$stream_output_adapter@D@__crt_stdio_output@@V?$standard_base@DV?$stream_output_adapter@D@__crt_stdio_output@@@2@@__crt_stdio_output@@AEAA_NXZ 00000001801ec2e4 f i libucrt:output.obj
 0001:001eb46c       ?state_case_size@?$output_processor@DV?$string_output_adapter@D@__crt_stdio_output@@V?$format_validation_base@DV?$string_output_adapter@D@__crt_stdio_output@@@2@@__crt_stdio_output@@AEAA_NXZ 00000001801ec46c f i libucrt:output.obj
 0001:001eb46c       ?state_case_size@?$output_processor@DV?$string_output_adapter@D@__crt_stdio_output@@V?$standard_base@DV?$string_output_adapter@D@__crt_stdio_output@@@2@@__crt_stdio_output@@AEAA_NXZ 00000001801ec46c f i libucrt:output.obj
 0001:001eb5f4       ?state_case_type@?$output_processor@DV?$stream_output_adapter@D@__crt_stdio_output@@V?$standard_base@DV?$stream_output_adapter@D@__crt_stdio_output@@@2@@__crt_stdio_output@@AEAA_NXZ 00000001801ec5f4 f i libucrt:output.obj
 0001:001ebb2c       ?state_case_type@?$output_processor@DV?$string_output_adapter@D@__crt_stdio_output@@V?$format_validation_base@DV?$string_output_adapter@D@__crt_stdio_output@@@2@@__crt_stdio_output@@AEAA_NXZ 00000001801ecb2c f i libucrt:output.obj
 0001:001ebb2c       ?state_case_type@?$output_processor@DV?$string_output_adapter@D@__crt_stdio_output@@V?$standard_base@DV?$string_output_adapter@D@__crt_stdio_output@@@2@@__crt_stdio_output@@AEAA_NXZ 00000001801ecb2c f i libucrt:output.obj
 0001:001ebf9c       ?type_case_Z@?$output_processor@DV?$stream_output_adapter@D@__crt_stdio_output@@V?$standard_base@DV?$stream_output_adapter@D@__crt_stdio_output@@@2@@__crt_stdio_output@@AEAA_NXZ 00000001801ecf9c f i libucrt:output.obj
 0001:001ebf9c       ?type_case_Z@?$output_processor@DV?$string_output_adapter@D@__crt_stdio_output@@V?$format_validation_base@DV?$string_output_adapter@D@__crt_stdio_output@@@2@@__crt_stdio_output@@AEAA_NXZ 00000001801ecf9c f i libucrt:output.obj
 0001:001ebf9c       ?type_case_Z@?$output_processor@DV?$string_output_adapter@D@__crt_stdio_output@@V?$standard_base@DV?$string_output_adapter@D@__crt_stdio_output@@@2@@__crt_stdio_output@@AEAA_NXZ 00000001801ecf9c f i libucrt:output.obj
 0001:001ec018       ?type_case_a@?$output_processor@DV?$stream_output_adapter@D@__crt_stdio_output@@V?$standard_base@DV?$stream_output_adapter@D@__crt_stdio_output@@@2@@__crt_stdio_output@@AEAA_NXZ 00000001801ed018 f i libucrt:output.obj
 0001:001ec018       ?type_case_a@?$output_processor@DV?$string_output_adapter@D@__crt_stdio_output@@V?$format_validation_base@DV?$string_output_adapter@D@__crt_stdio_output@@@2@@__crt_stdio_output@@AEAA_NXZ 00000001801ed018 f i libucrt:output.obj
 0001:001ec018       ?type_case_a@?$output_processor@DV?$string_output_adapter@D@__crt_stdio_output@@V?$standard_base@DV?$string_output_adapter@D@__crt_stdio_output@@@2@@__crt_stdio_output@@AEAA_NXZ 00000001801ed018 f i libucrt:output.obj
 0001:001ec274       ?type_case_c_tchar@?$output_processor@DV?$stream_output_adapter@D@__crt_stdio_output@@V?$standard_base@DV?$stream_output_adapter@D@__crt_stdio_output@@@2@@__crt_stdio_output@@AEAA_ND@Z 00000001801ed274 f i libucrt:output.obj
 0001:001ec274       ?type_case_c_tchar@?$output_processor@DV?$string_output_adapter@D@__crt_stdio_output@@V?$format_validation_base@DV?$string_output_adapter@D@__crt_stdio_output@@@2@@__crt_stdio_output@@AEAA_ND@Z 00000001801ed274 f i libucrt:output.obj
 0001:001ec274       ?type_case_c_tchar@?$output_processor@DV?$string_output_adapter@D@__crt_stdio_output@@V?$standard_base@DV?$string_output_adapter@D@__crt_stdio_output@@@2@@__crt_stdio_output@@AEAA_ND@Z 00000001801ed274 f i libucrt:output.obj
 0001:001ec348       ?type_case_n@?$output_processor@DV?$stream_output_adapter@D@__crt_stdio_output@@V?$standard_base@DV?$stream_output_adapter@D@__crt_stdio_output@@@2@@__crt_stdio_output@@AEAA_NXZ 00000001801ed348 f i libucrt:output.obj
 0001:001ec348       ?type_case_n@?$output_processor@DV?$string_output_adapter@D@__crt_stdio_output@@V?$format_validation_base@DV?$string_output_adapter@D@__crt_stdio_output@@@2@@__crt_stdio_output@@AEAA_NXZ 00000001801ed348 f i libucrt:output.obj
 0001:001ec348       ?type_case_n@?$output_processor@DV?$string_output_adapter@D@__crt_stdio_output@@V?$standard_base@DV?$string_output_adapter@D@__crt_stdio_output@@@2@@__crt_stdio_output@@AEAA_NXZ 00000001801ed348 f i libucrt:output.obj
 0001:001ec400       ?type_case_s@?$output_processor@DV?$stream_output_adapter@D@__crt_stdio_output@@V?$standard_base@DV?$stream_output_adapter@D@__crt_stdio_output@@@2@@__crt_stdio_output@@AEAA_NXZ 00000001801ed400 f i libucrt:output.obj
 0001:001ec400       ?type_case_s@?$output_processor@DV?$string_output_adapter@D@__crt_stdio_output@@V?$format_validation_base@DV?$string_output_adapter@D@__crt_stdio_output@@@2@@__crt_stdio_output@@AEAA_NXZ 00000001801ed400 f i libucrt:output.obj
 0001:001ec400       ?type_case_s@?$output_processor@DV?$string_output_adapter@D@__crt_stdio_output@@V?$standard_base@DV?$string_output_adapter@D@__crt_stdio_output@@@2@@__crt_stdio_output@@AEAA_NXZ 00000001801ed400 f i libucrt:output.obj
 0001:001ec4a0       ?update_locale_slow@__crt_cached_ptd_host@@AEAAXXZ 00000001801ed4a0 f i libucrt:output.obj
 0001:001ec518       ?validate_stream_is_ansi_if_required@?$__acrt_stdio_char_traits@D@@SA_NQEAU_iobuf@@@Z 00000001801ed518 f i libucrt:output.obj
 0001:001ec5b4       ?write_string@?$string_output_adapter@D@__crt_stdio_output@@QEBAXQEBDHQEAHAEAV__crt_cached_ptd_host@@@Z 00000001801ed5b4 f i libucrt:output.obj
 0001:001ec658       ?write_string_impl@?$output_adapter_common@DV?$stream_output_adapter@D@__crt_stdio_output@@@__crt_stdio_output@@IEBAXQEBDHQEAHAEAV__crt_cached_ptd_host@@@Z 00000001801ed658 f i libucrt:output.obj
 0001:001ec728       __stdio_common_vfprintf    00000001801ed728 f   libucrt:output.obj
 0001:001ec84c       __stdio_common_vsprintf    00000001801ed84c f   libucrt:output.obj
 0001:001ecaa0       __stdio_common_vsprintf_s  00000001801edaa0 f   libucrt:output.obj
 0001:001ecbc0       _fpclass                   00000001801edbc0 f   libucrt:ieeemisc.obj
 0001:001ecc60       acosf                      00000001801edc60 f   libucrt:acosf.obj
 0001:001ecea0       powf                       00000001801edea0 f   libucrt:powf.obj
 0001:001edd60       atan2f                     00000001801eed60 f   libucrt:atan2f.obj
 0001:001ee180       free                       00000001801ef180 f   libucrt:free.obj
 0001:001ee188       _seh_filter_dll            00000001801ef188 f   libucrt:exception_filter.obj
 0001:001ee19c       _seh_filter_exe            00000001801ef19c f   libucrt:exception_filter.obj
 0001:001ee578       __acrt_initialize_thread_local_exit_callback 00000001801ef578 f   libucrt:exit.obj
 0001:001ee580       _cexit                     00000001801ef580 f   libucrt:exit.obj
 0001:001ee590       _exit                      00000001801ef590 f   libucrt:exit.obj
 0001:001ee59c       _is_c_termination_complete 00000001801ef59c f   libucrt:exit.obj
 0001:001ee764       __acrt_allocate_buffer_for_argv 00000001801ef764 f   libucrt:argv_parsing.obj
 0001:001ee7c4       _configure_narrow_argv     00000001801ef7c4 f   libucrt:argv_parsing.obj
 0001:001eeb48       __dcrt_uninitialize_environments_nolock 00000001801efb48 f   libucrt:environment_initialization.obj
 0001:001eeb8c       _initialize_narrow_environment 00000001801efb8c f   libucrt:environment_initialization.obj
 0001:001eeed4       _crt_atexit                00000001801efed4 f   libucrt:onexit.obj
 0001:001eeee4       _execute_onexit_table      00000001801efee4 f   libucrt:onexit.obj
 0001:001eef28       _initialize_onexit_table   00000001801eff28 f   libucrt:onexit.obj
 0001:001eef50       _register_onexit_function  00000001801eff50 f   libucrt:onexit.obj
 0001:001eefd0       __acrt_uninitialize_command_line 00000001801effd0 f   libucrt:argv_data.obj
 0001:001ef0c8       __acrt_initialize          00000001801f00c8 f   libucrt:initialization.obj
 0001:001ef0dc       __acrt_thread_attach       00000001801f00dc f   libucrt:initialization.obj
 0001:001ef0f0       __acrt_thread_detach       00000001801f00f0 f   libucrt:initialization.obj
 0001:001ef100       __acrt_uninitialize        00000001801f0100 f   libucrt:initialization.obj
 0001:001ef138       __acrt_uninitialize_critical 00000001801f0138 f   libucrt:initialization.obj
 0001:001ef148       _initterm                  00000001801f0148 f   libucrt:initterm.obj
 0001:001ef180       _initterm_e                00000001801f0180 f   libucrt:initterm.obj
 0001:001ef1bc       terminate                  00000001801f01bc f   libucrt:terminate.obj
 0001:001ef1dc       abort                      00000001801f01dc f   libucrt:abort.obj
 0001:001ef240       malloc                     00000001801f0240 f   libucrt:malloc.obj
 0001:001ef250       strcpy_s                   00000001801f0250 f   libucrt:strcpy_s.obj
 0001:001ef2d0       ??$parse_integer@KV?$c_string_character_source@D@__crt_strtox@@$00@__crt_strtox@@YAKAEAV__crt_cached_ptd_host@@V?$c_string_character_source@D@0@H_N@Z 00000001801f02d0 f i libucrt:atox.obj
 0001:001ef5ac       _ischartype_l              00000001801f05ac f i libucrt:atox.obj
 0001:001ef624       atol                       00000001801f0624 f   libucrt:atox.obj
 0001:001ef6e0       calloc                     00000001801f06e0 f   libucrt:calloc.obj
 0001:001ef6f0       wcsncmp                    00000001801f06f0 f   libucrt:wcsncmp.obj
 0001:001ef730       __remainder_piby2d2f_forAsm 00000001801f0730 f   libucrt:remainder_piby2f_forasm.obj
 0001:001ef880       __remainder_piby2_fma3     00000001801f0880 f   libucrt:remainder_piby2_forfma3.obj
 0001:001efa70       __remainder_piby2_fma3_bdl 00000001801f0a70 f   libucrt:remainder_piby2_forfma3.obj
 0001:001efaf0       _cosf_special              00000001801f0af0 f   libucrt:sincos_special.obj
 0001:001efb80       _sinf_special              00000001801f0b80 f   libucrt:sincos_special.obj
 0001:001efc10       _tanf_special              00000001801f0c10 f   libucrt:sincos_special.obj
 0001:001efca0       _clrfp                     00000001801f0ca0 f   libucrt:fpctrl.obj
 0001:001efcc0       _ctrlfp                    00000001801f0cc0 f   libucrt:fpctrl.obj
 0001:001efd40       _get_fpcsr                 00000001801f0d40 f   libucrt:fpctrl.obj
 0001:001efd40       _get_fpsr                  00000001801f0d40 f   libucrt:fpctrl.obj
 0001:001efd50       _set_fpcsr                 00000001801f0d50 f   libucrt:fpctrl.obj
 0001:001efd50       _set_fpsr                  00000001801f0d50 f   libucrt:fpctrl.obj
 0001:001efd60       _set_statfp                00000001801f0d60 f   libucrt:fpctrl.obj
 0001:001efd80       _statfp                    00000001801f0d80 f   libucrt:fpctrl.obj
 0001:001efd90       __acrt_initialize_fma3     00000001801f0d90 f   libucrt:fma3_available.obj
 0001:001efe50       __remainder_piby2d2f_forC  00000001801f0e50 f   libucrt:remainder_piby2f_forc.obj
 0001:001effdc       ?get_raw_ptd_noexit@__crt_cached_ptd_host@@QEAAPEAU__acrt_ptd@@XZ 00000001801f0fdc f i libucrt:invalid_parameter.obj
 0001:001f0048       ?value@?$dual_state_global@P6AXPEB_W00I_K@Z@__crt_state_management@@QEAAAEAP6AXPEB_W00I_K@ZAEAV__crt_cached_ptd_host@@@Z 00000001801f1048 f i libucrt:invalid_parameter.obj
 0001:001f0094       __acrt_call_reportfault    00000001801f1094 f   libucrt:invalid_parameter.obj
 0001:001f0204       __acrt_initialize_invalid_parameter_handler 00000001801f1204 f   libucrt:invalid_parameter.obj
 0001:001f020c       _invalid_parameter         00000001801f120c f   libucrt:invalid_parameter.obj
 0001:001f02a8       _invalid_parameter_internal 00000001801f12a8 f   libucrt:invalid_parameter.obj
 0001:001f0360       _invalid_parameter_noinfo  00000001801f1360 f   libucrt:invalid_parameter.obj
 0001:001f0380       _invoke_watson             00000001801f1380 f   libucrt:invalid_parameter.obj
 0001:001f03c8       __acrt_errno_from_os_error 00000001801f13c8 f   libucrt:errno.obj
 0001:001f0498       __acrt_errno_map_os_error  00000001801f1498 f   libucrt:errno.obj
 0001:001f04c0       __acrt_errno_map_os_error_ptd 00000001801f14c0 f   libucrt:errno.obj
 0001:001f04e4       __doserrno                 00000001801f14e4 f   libucrt:errno.obj
 0001:001f0508       _errno                     00000001801f1508 f   libucrt:errno.obj
 0001:001f0530       _calloc_base               00000001801f1530 f   libucrt:calloc_base.obj
 0001:001f05b0       _free_base                 00000001801f15b0 f   libucrt:free_base.obj
 0001:001f07bc       __acrt_AppPolicyGetProcessTerminationMethodInternal 00000001801f17bc f   libucrt:winapi_thunks.obj
 0001:001f0818       __acrt_AreFileApisANSI     00000001801f1818 f   libucrt:winapi_thunks.obj
 0001:001f0864       __acrt_FlsAlloc            00000001801f1864 f   libucrt:winapi_thunks.obj
 0001:001f086c       __acrt_FlsFree             00000001801f186c f   libucrt:winapi_thunks.obj
 0001:001f0874       __acrt_FlsGetValue         00000001801f1874 f   libucrt:winapi_thunks.obj
 0001:001f087c       __acrt_FlsGetValue2        00000001801f187c f   libucrt:winapi_thunks.obj
 0001:001f0888       __acrt_FlsSetValue         00000001801f1888 f   libucrt:winapi_thunks.obj
 0001:001f0890       __acrt_InitializeCriticalSectionEx 00000001801f1890 f   libucrt:winapi_thunks.obj
 0001:001f0898       __acrt_LCMapStringEx       00000001801f1898 f   libucrt:winapi_thunks.obj
 0001:001f098c       __acrt_LocaleNameToLCID    00000001801f198c f   libucrt:winapi_thunks.obj
 0001:001f09f0       __acrt_initialize_winapi_thunks 00000001801f19f0 f   libucrt:winapi_thunks.obj
 0001:001f0a20       __acrt_tls2_supported      00000001801f1a20 f   libucrt:winapi_thunks.obj
 0001:001f0a64       __acrt_uninitialize_winapi_thunks 00000001801f1a64 f   libucrt:winapi_thunks.obj
 0001:001f0aa8       _fcloseall                 00000001801f1aa8 f   libucrt:closeall.obj
 0001:001f0d3c       __acrt_stdio_flush_nolock  00000001801f1d3c f   libucrt:fflush.obj
 0001:001f0dc8       _fflush_nolock             00000001801f1dc8 f   libucrt:fflush.obj
 0001:001f0e9c       _flushall                  00000001801f1e9c f   libucrt:fflush.obj
 0001:001f0ea4       __acrt_stdio_free_buffer_nolock 00000001801f1ea4 f   libucrt:_freebuf.obj
 0001:001f10f0       __acrt_initialize_lowio    00000001801f20f0 f   libucrt:ioinit.obj
 0001:001f112c       __acrt_uninitialize_lowio  00000001801f212c f   libucrt:ioinit.obj
 0001:001f1170       _malloc_base               00000001801f2170 f   libucrt:malloc_base.obj
 0001:001f11d0       strnlen                    00000001801f21d0 f   libucrt:strnlen.obj
 0001:001f1360       wcsnlen                    00000001801f2360 f   libucrt:strnlen.obj
 0001:001f1568       __acrt_update_locale_info  00000001801f2568 f   libucrt:locale_update.obj
 0001:001f159c       __acrt_update_locale_info_explicit 00000001801f259c f   libucrt:locale_update.obj
 0001:001f15d4       __acrt_update_multibyte_info 00000001801f25d4 f   libucrt:locale_update.obj
 0001:001f1608       __acrt_update_multibyte_info_explicit 00000001801f2608 f   libucrt:locale_update.obj
 0001:001f2150       __acrt_fp_format           00000001801f3150 f   libucrt:cvt.obj
 0001:001f2438       _wctomb_internal           00000001801f3438 f   libucrt:wctomb.obj
 0001:001f25e8       _mbtowc_internal           00000001801f35e8 f   libucrt:mbtowc.obj
 0001:001f2760       ?__mblen_utf8@__crt_mbstring@@YAHPEBD@Z 00000001801f3760 f   libucrt:mbrtoc32.obj
 0001:001f2798       ?__mbrtoc32_utf8@__crt_mbstring@@YA_KPEA_UPEBD_KPEAU_Mbstatet@@AEAV__crt_cached_ptd_host@@@Z 00000001801f3798 f   libucrt:mbrtoc32.obj
 0001:001f2958       ?__c16rtomb_utf8@__crt_mbstring@@YA_KPEAD_SPEAU_Mbstatet@@AEAV__crt_cached_ptd_host@@@Z 00000001801f3958 f   libucrt:c16rtomb.obj
 0001:001f29fc       ?__mbrtowc_utf8@__crt_mbstring@@YA_KPEA_WPEBD_KPEAU_Mbstatet@@AEAV__crt_cached_ptd_host@@@Z 00000001801f39fc f   libucrt:mbrtowc.obj
 0001:001f2a44       ?__mbsrtowcs_utf8@__crt_mbstring@@YA_KPEA_WPEAPEBD_KPEAU_Mbstatet@@AEAV__crt_cached_ptd_host@@@Z 00000001801f3a44 f   libucrt:mbrtowc.obj
 0001:001f2bfc       _fileno                    00000001801f3bfc f   libucrt:fileno.obj
 0001:001f2c24       _get_printf_count_output   00000001801f3c24 f   libucrt:printf_count_output.obj
 0001:001f2c3c       _fputc_nolock_internal     00000001801f3c3c f   libucrt:fputc.obj
 0001:001f2c54       __acrt_should_use_temporary_buffer 00000001801f3c54 f   libucrt:_sftbuf.obj
 0001:001f2ca0       __acrt_stdio_begin_temporary_buffering_nolock 00000001801f3ca0 f   libucrt:_sftbuf.obj
 0001:001f2d68       __acrt_stdio_end_temporary_buffering_nolock 00000001801f3d68 f   libucrt:_sftbuf.obj
 0001:001f30b8       ?internal_get_ptd_head_slow@@YAPEAU__acrt_ptd@@XZ 00000001801f40b8 f   libucrt:per_thread_data.obj
 0001:001f31d8       __acrt_freeptd             00000001801f41d8 f   libucrt:per_thread_data.obj
 0001:001f3228       __acrt_getptd              00000001801f4228 f   libucrt:per_thread_data.obj
 0001:001f3244       __acrt_getptd_head         00000001801f4244 f   libucrt:per_thread_data.obj
 0001:001f3288       __acrt_getptd_noexit       00000001801f4288 f   libucrt:per_thread_data.obj
 0001:001f3318       __acrt_getptd_noexit_explicit 00000001801f4318 f   libucrt:per_thread_data.obj
 0001:001f3374       __acrt_initialize_ptd      00000001801f4374 f   libucrt:per_thread_data.obj
 0001:001f33b8       __acrt_uninitialize_ptd    00000001801f43b8 f   libucrt:per_thread_data.obj
 0001:001f344c       __acrt_set_locale_changed  00000001801f444c f   libucrt:wsetlocale.obj
 0001:001f3458       __acrt_uninitialize_locale 00000001801f4458 f   libucrt:wsetlocale.obj
 0001:001f35a0       _handle_error              00000001801f45a0 f   libucrt:libm_error.obj
 0001:001f36e0       _handle_errorf             00000001801f46e0 f   libucrt:libm_error.obj
 0001:001f3820       _handle_nan                00000001801f4820 f   libucrt:libm_error.obj
 0001:001f3840       _handle_nanf               00000001801f4840 f   libucrt:libm_error.obj
 0001:001f3850       acosf_fma                  00000001801f4850 f   libucrt:acosf.obj
 0001:001f3a50       _powf_special              00000001801f4a50 f   libucrt:pow_special.obj
 0001:001f3bc0       atan2f_fma                 00000001801f4bc0 f   libucrt:atan2f.obj
 0001:001f3fa0       __acrt_initialize_locks    00000001801f4fa0 f   libucrt:locks.obj
 0001:001f3fe8       __acrt_lock                00000001801f4fe8 f   libucrt:locks.obj
 0001:001f4004       __acrt_uninitialize_locks  00000001801f5004 f   libucrt:locks.obj
 0001:001f403c       __acrt_unlock              00000001801f503c f   libucrt:locks.obj
 0001:001f4058       __acrt_app_verifier_enabled 00000001801f5058 f   libucrt:peb_access.obj
 0001:001f4074       __acrt_is_secure_process   00000001801f5074 f   libucrt:peb_access.obj
 0001:001f408c       __acrt_get_process_end_policy 00000001801f508c f   libucrt:win_policies.obj
 0001:001f40d0       ??$__acrt_convert_wcs_mbs_cp@D_WV<lambda_7c9dea7b4ca7285d2cdb541a38da6275>@@U__crt_win32_buffer_internal_dynamic_resizing@@@@YAHQEBDAEAV?$__crt_win32_buffer@_WU__crt_win32_buffer_internal_dynamic_resizing@@@@AEBV<lambda_7c9dea7b4ca7285d2cdb541a38da6275>@@I@Z 00000001801f50d0 f i libucrt:argv_wildcards.obj
 0001:001f4270       ??$__acrt_convert_wcs_mbs_cp@_WDV<lambda_d8593a27d1aa8c02be35c86a17d324c4>@@U__crt_win32_buffer_internal_dynamic_resizing@@@@YAHQEB_WAEAV?$__crt_win32_buffer@DU__crt_win32_buffer_internal_dynamic_resizing@@@@AEBV<lambda_d8593a27d1aa8c02be35c86a17d324c4>@@I@Z 00000001801f5270 f i libucrt:argv_wildcards.obj
 0001:001f4b3c       ??0_LocaleUpdate@@QEAA@QEAU__crt_locale_pointers@@@Z 00000001801f5b3c f i libucrt:argv_wildcards.obj
 0001:001f4bd8       __acrt_expand_narrow_argv_wildcards 00000001801f5bd8 f   libucrt:argv_wildcards.obj
 0001:001f4be0       ??$__acrt_convert_wcs_mbs_cp@_WDV<lambda_f788ae46380686e8b737efdd8c720d07>@@U__crt_win32_buffer_no_resizing@@@@YAHQEB_WAEAV?$__crt_win32_buffer@DU__crt_win32_buffer_no_resizing@@@@AEBV<lambda_f788ae46380686e8b737efdd8c720d07>@@I@Z 00000001801f5be0 f i libucrt:getmodulefilenamea.obj
 0001:001f4cfc       __acrt_GetModuleFileNameA  00000001801f5cfc f   libucrt:getmodulefilenamea.obj
 0001:001f5628       __acrt_initialize_multibyte 00000001801f6628 f   libucrt:mbctype.obj
 0001:001f5688       __acrt_update_thread_multibyte_data 00000001801f6688 f   libucrt:mbctype.obj
 0001:001f56a4       _setmbcp_nolock            00000001801f66a4 f   libucrt:mbctype.obj
 0001:001f59e0       _ismbblead                 00000001801f69e0 f   libucrt:ismbbyte.obj
 0001:001f59f4       __acrt_initialize_command_line 00000001801f69f4 f   libucrt:argv_data.obj
 0001:001f5a1c       __acrt_MultiByteToWideChar 00000001801f6a1c f   libucrt:multibytetowidechar.obj
 0001:001f5aac       __acrt_WideCharToMultiByte 00000001801f6aac f   libucrt:widechartomultibyte.obj
 0001:001f5b8c       __dcrt_get_narrow_environment_from_os 00000001801f6b8c f   libucrt:get_environment_from_os.obj
 0001:001f5ca0       _recalloc_base             00000001801f6ca0 f   libucrt:recalloc.obj
 0001:001f5d40       _recalloc                  00000001801f6d40 f   libucrt:recalloc.obj
 0001:001f5d50       _get_heap_handle           00000001801f6d50 f   libucrt:heap_handle.obj
 0001:001f5d60       __acrt_initialize_heap     00000001801f6d60 f   libucrt:heap_handle.obj
 0001:001f5d90       __acrt_uninitialize_heap   00000001801f6d90 f   libucrt:heap_handle.obj
 0001:001f5db0       __acrt_getheap             00000001801f6db0 f   libucrt:heap_handle.obj
 0001:001f5db8       __acrt_execute_initializers 00000001801f6db8 f   libucrt:shared_initialization.obj
 0001:001f5e38       __acrt_execute_uninitializers 00000001801f6e38 f   libucrt:shared_initialization.obj
 0001:001f5e80       _callnewh                  00000001801f6e80 f   libucrt:new_handler.obj
 0001:001f5ec0       __acrt_initialize_new_handler 00000001801f6ec0 f   libucrt:new_handler.obj
 0001:001f5ed0       _query_new_handler         00000001801f6ed0 f   libucrt:new_handler.obj
 0001:001f5f10       _set_new_handler           00000001801f6f10 f   libucrt:new_handler.obj
 0001:001f5f70       ?_set_new_handler@@YAP6AH_K@ZH@Z 00000001801f6f70 f   libucrt:new_handler.obj
 0001:001f5fc4       __acrt_get_sigabrt_handler 00000001801f6fc4 f   libucrt:signal.obj
 0001:001f5ff4       __acrt_initialize_signal_handlers 00000001801f6ff4 f   libucrt:signal.obj
 0001:001f6014       raise                      00000001801f7014 f   libucrt:signal.obj
 0001:001f6270       __acrt_has_user_matherr    00000001801f7270 f   libucrt:matherr.obj
 0001:001f6290       __acrt_initialize_user_matherr 00000001801f7290 f   libucrt:matherr.obj
 0001:001f62a0       __acrt_invoke_user_matherr 00000001801f72a0 f   libucrt:matherr.obj
 0001:001f62d0       __pctype_func              00000001801f72d0 f   libucrt:ctype.obj
 0001:001f6300       _isctype_l                 00000001801f7300 f   libucrt:isctype.obj
 0001:001f6410       _query_new_mode            00000001801f7410 f   libucrt:new_mode.obj
 0001:001f6420       _set_new_mode              00000001801f7420 f   libucrt:new_mode.obj
 0001:001f644c       __acrt_DownlevelLocaleNameToLCID 00000001801f744c f   libucrt:lcidtoname_downlevel.obj
 0001:001f6618       fclose                     00000001801f7618 f   libucrt:fclose.obj
 0001:001f673c       _commit                    00000001801f773c f   libucrt:commit.obj
 0001:001f6ffc       _write_internal            00000001801f7ffc f   libucrt:write.obj
 0001:001f711c       _write_nolock              00000001801f811c f   libucrt:write.obj
 0001:001f744c       __acrt_lowio_create_handle_array 00000001801f844c f   libucrt:osfinfo.obj
 0001:001f74f4       __acrt_lowio_destroy_handle_array 00000001801f84f4 f   libucrt:osfinfo.obj
 0001:001f7544       __acrt_lowio_ensure_fh_exists 00000001801f8544 f   libucrt:osfinfo.obj
 0001:001f75ec       __acrt_lowio_lock_fh       00000001801f85ec f   libucrt:osfinfo.obj
 0001:001f7614       __acrt_lowio_unlock_fh     00000001801f8614 f   libucrt:osfinfo.obj
 0001:001f763c       _free_osfhnd               00000001801f863c f   libucrt:osfinfo.obj
 0001:001f76f8       _get_osfhandle             00000001801f86f8 f   libucrt:osfinfo.obj
 0001:001f7770       __acrt_add_locale_ref      00000001801f8770 f   libucrt:locale_refcounting.obj
 0001:001f77fc       __acrt_free_locale         00000001801f87fc f   libucrt:locale_refcounting.obj
 0001:001f7974       __acrt_locale_add_lc_time_reference 00000001801f8974 f   libucrt:locale_refcounting.obj
 0001:001f799c       __acrt_locale_free_lc_time_if_unreferenced 00000001801f899c f   libucrt:locale_refcounting.obj
 0001:001f79d4       __acrt_locale_release_lc_time_reference 00000001801f89d4 f   libucrt:locale_refcounting.obj
 0001:001f79fc       __acrt_release_locale_ref  00000001801f89fc f   libucrt:locale_refcounting.obj
 0001:001f7aa4       __acrt_update_thread_locale_data 00000001801f8aa4 f   libucrt:locale_refcounting.obj
 0001:001f7b14       _updatetlocinfoEx_nolock   00000001801f8b14 f   libucrt:locale_refcounting.obj
 0001:001f7c4c       __acrt_fp_strflt_to_string 00000001801f8c4c f   libucrt:_fptostr.obj
 0001:001f7d60       ?divide@__crt_strtox@@YA_KAEAUbig_integer@1@AEBU21@@Z 00000001801f8d60 f i libucrt:cfout.obj
 0001:001f81ec       __acrt_fltout              00000001801f91ec f   libucrt:cfout.obj
 0001:001f9500       fegetround                 00000001801fa500 f   libucrt:fegetround.obj
 0001:001f9514       ?__c32rtomb_utf8@__crt_mbstring@@YA_KPEAD_UPEAU_Mbstatet@@AEAV__crt_cached_ptd_host@@@Z 00000001801fa514 f   libucrt:c32rtomb.obj
 0001:001f95b8       ?reset_and_return@__crt_mbstring@@YA_K_KPEAU_Mbstatet@@@Z 00000001801fa5b8 f   libucrt:common_utf8.obj
 0001:001f95c0       ?return_illegal_sequence@__crt_mbstring@@YA_KPEAU_Mbstatet@@AEAV__crt_cached_ptd_host@@@Z 00000001801fa5c0 f   libucrt:common_utf8.obj
 0001:001f9754       __acrt_stdio_flush_and_write_narrow_nolock 00000001801fa754 f   libucrt:_flsbuf.obj
 0001:001f9820       _isatty                    00000001801fa820 f   libucrt:isatty.obj
 0001:001f9880       __acrt_locale_free_monetary 00000001801fa880 f   libucrt:initmon.obj
 0001:001f998c       __acrt_locale_free_numeric 00000001801fa98c f   libucrt:initnum.obj
 0001:001f9a2c       __acrt_locale_free_time    00000001801faa2c f   libucrt:inittime.obj
 0001:001f9b34       __acrt_GetStringTypeA      00000001801fab34 f   libucrt:getstringtypea.obj
 0001:001f9cd0       _raise_exc                 00000001801facd0 f   libucrt:fpexcept.obj
 0001:001f9d00       _raise_exc_ex              00000001801fad00 f   libucrt:fpexcept.obj
 0001:001fa010       _raise_excf                00000001801fb010 f   libucrt:fpexcept.obj
 0001:001fa040       _set_errno_from_matherr    00000001801fb040 f   libucrt:fpexcept.obj
 0001:001fa080       _handle_nanf_fma           00000001801fb080 f   libucrt:libm_error.obj
 0001:001fa090       qsort                      00000001801fb090 f   libucrt:qsort.obj
 0001:001fa430       strncpy_s                  00000001801fb430 f   libucrt:strncpy_s.obj
 0001:001fa600       strpbrk                    00000001801fb600 f   libucrt:strpbrk.obj
 0001:001fa9b8       _mbsdec                    00000001801fb9b8 f   libucrt:mbsdec.obj
 0001:001fa9c0       _mbsdec_l                  00000001801fb9c0 f   libucrt:mbsdec.obj
 0001:001fad88       __acrt_LCMapStringA        00000001801fbd88 f   libucrt:lcmapstringa.obj
 0001:001fae40       _msize_base                00000001801fbe40 f   libucrt:msize.obj
 0001:001fae80       _msize                     00000001801fbe80 f   libucrt:msize.obj
 0001:001fae90       _realloc_base              00000001801fbe90 f   libucrt:realloc_base.obj
 0001:001faf10       __ascii_wcsnicmp           00000001801fbf10 f   libucrt:wcsnicmp.obj
 0001:001faff0       _close_internal            00000001801fbff0 f   libucrt:close.obj
 0001:001fb0b4       _close_nolock_internal     00000001801fc0b4 f   libucrt:close.obj
 0001:001fb184       ?__acrt_stdio_free_stream@@YAXV__crt_stdio_stream@@@Z 00000001801fc184 f   libucrt:stream.obj
 0001:001fb370       _lseeki64                  00000001801fc370 f   libucrt:lseek.obj
 0001:001fb40c       _lseeki64_nolock_internal  00000001801fc40c f   libucrt:lseek.obj
 0001:001fb414       _putwch_nolock             00000001801fc414 f   libucrt:putwch.obj
 0001:001fb454       _query_app_type            00000001801fc454 f   libucrt:report_runtime_error.obj
 0001:001fb460       _controlfp_s               00000001801fc460 f   libucrt:contrlfp.obj
 0001:001fb4d0       fegetenv                   00000001801fc4d0 f   libucrt:fegetenv.obj
 0001:001fb4f0       fesetenv                   00000001801fc4f0 f   libucrt:fesetenv.obj
 0001:001fb560       feholdexcept               00000001801fc560 f   libucrt:feholdexcept.obj
 0001:001fb5c0       ceil                       00000001801fc5c0 f   libucrt:ceil.obj
 0001:001fb690       log10                      00000001801fc690 f   libucrt:log10.obj
 0001:001fbc40       __acrt_fenv_get_common_round_control 00000001801fcc40 f   libucrt:_fenvutils.obj
 0001:001fbc50       __acrt_fenv_get_control    00000001801fcc50 f   libucrt:_fenvutils.obj
 0001:001fbd30       __acrt_fenv_get_status     00000001801fcd30 f   libucrt:_fenvutils.obj
 0001:001fbd90       __acrt_fenv_set_control    00000001801fcd90 f   libucrt:_fenvutils.obj
 0001:001fbec0       __acrt_fenv_set_status     00000001801fcec0 f   libucrt:_fenvutils.obj
 0001:001fbf34       __acrt_stdio_allocate_buffer_nolock 00000001801fcf34 f   libucrt:_getbuf.obj
 0001:001fbfa0       _guard_check_icall         00000001801fcfa0 f i libucrt:checkcfg.obj
 0001:001fbfc0       __strncnt                  00000001801fcfc0 f   libucrt:strncnt.obj
 0001:001fbfd8       __dcrt_lowio_ensure_console_output_initialized 00000001801fcfd8 f   libucrt:initcon.obj
 0001:001fc02c       __dcrt_terminate_console_output 00000001801fd02c f   libucrt:initcon.obj
 0001:001fc048       __dcrt_write_console       00000001801fd048 f   libucrt:initcon.obj
 0001:001fc110       _clearfp                   00000001801fd110 f   libucrt:ieee.obj
 0001:001fc180       _control87                 00000001801fd180 f   libucrt:ieee.obj
 0001:001fc430       ceil_sse41                 00000001801fd430 f   libucrt:floorceil_sse41.obj
 0001:001fc440       _log10_special             00000001801fd440 f   libucrt:log_special.obj
 0001:001fc500       _FindPESection             00000001801fd500 f   LIBCMT:pesect.obj
 0001:001fc550       _IsNonwritableInCurrentImage 00000001801fd550 f   LIBCMT:pesect.obj
 0001:001fc5a0       _ValidateImageBase         00000001801fd5a0 f   LIBCMT:pesect.obj
 0001:001fc5cc       __GSHandlerCheck           00000001801fd5cc f   LIBCMT:gshandler.obj
 0001:001fc5ec       __GSHandlerCheckCommon     00000001801fd5ec f   LIBCMT:gshandler.obj
 0001:001fc660       __security_check_cookie    00000001801fd660 f   LIBCMT:amdsecgs.obj
 0001:001fc680       __GSHandlerCheck_SEH       00000001801fd680 f   LIBCMT:gshandlerseh.obj
 0001:001fc708       __GSHandlerCheck_EH        00000001801fd708 f   LIBCMT:gshandlereh.obj
 0001:001fc788       __raise_securityfailure    00000001801fd788 f   LIBCMT:gs_report.obj
 0001:001fc7bc       __report_gsfailure         00000001801fd7bc f   LIBCMT:gs_report.obj
 0001:001fc904       __C_specific_handler_noexcept 00000001801fd904 f   libvcruntime:chandler_noexcept.obj
 0001:001fc950       strrchr                    00000001801fd950 f   libvcruntime:strrchr.obj
 0001:001fca90       _guard_dispatch_icall_nop  00000001801fda90 f   LIBCMT:guard_dispatch.obj
 0001:001fcab0       _guard_xfg_dispatch_icall_nop 00000001801fdab0 f   LIBCMT:guard_xfg_dispatch.obj
 0001:001fcad0       _guard_dispatch_icall      00000001801fdad0 f   libucrt:dispatchcfg.obj
 0001:001fcad0       _guard_dispatch_icall_$fo_default$ 00000001801fdad0     libucrt:dispatchcfg.obj
 0001:001fcb00       memcpy_repmovs             00000001801fdb00 f   libvcruntime:memcpy.obj
 0001:001fcb10       memcpy                     00000001801fdb10 f   libvcruntime:memcpy.obj
 0001:001fcb10       memcpy_$fo_default$        00000001801fdb10     libvcruntime:memcpy.obj
 0001:001fcb10       memmove                    00000001801fdb10 f   libvcruntime:memcpy.obj
 0001:001fd1a0       memset_repstos             00000001801fe1a0 f   libvcruntime:memset.obj
 0001:001fd1b0       memset                     00000001801fe1b0 f   libvcruntime:memset.obj
 0001:001fd550       strcmp                     00000001801fe550 f   libucrt:strcmp.obj
 0001:001fd5d0       strlen                     00000001801fe5d0 f   libucrt:strlen.obj
 0001:001fd690       strncmp                    00000001801fe690 f   libucrt:strncmp.obj
 0002:00000000       __imp_GetLastError         00000001801ff000     kernel32:KERNEL32.dll
 0002:00000008       __imp_FreeLibrary          00000001801ff008     kernel32:KERNEL32.dll
 0002:00000010       __imp_GetProcAddress       00000001801ff010     kernel32:KERNEL32.dll
 0002:00000018       __imp_LoadLibraryA         00000001801ff018     kernel32:KERNEL32.dll
 0002:00000020       __imp_RaiseException       00000001801ff020     kernel32:KERNEL32.dll
 0002:00000028       __imp_GetSystemInfo        00000001801ff028     kernel32:KERNEL32.dll
 0002:00000030       __imp_VirtualProtect       00000001801ff030     kernel32:KERNEL32.dll
 0002:00000038       __imp_VirtualQuery         00000001801ff038     kernel32:KERNEL32.dll
 0002:00000040       __imp_GetModuleHandleW     00000001801ff040     kernel32:KERNEL32.dll
 0002:00000048       __imp_LoadLibraryExA       00000001801ff048     kernel32:KERNEL32.dll
 0002:00000050       __imp_InitializeSListHead  00000001801ff050     kernel32:KERNEL32.dll
 0002:00000058       __imp_RtlCaptureContext    00000001801ff058     kernel32:KERNEL32.dll
 0002:00000060       __imp_RtlLookupFunctionEntry 00000001801ff060     kernel32:KERNEL32.dll
 0002:00000068       __imp_RtlVirtualUnwind     00000001801ff068     kernel32:KERNEL32.dll
 0002:00000070       __imp_IsDebuggerPresent    00000001801ff070     kernel32:KERNEL32.dll
 0002:00000078       __imp_UnhandledExceptionFilter 00000001801ff078     kernel32:KERNEL32.dll
 0002:00000080       __imp_SetUnhandledExceptionFilter 00000001801ff080     kernel32:KERNEL32.dll
 0002:00000088       __imp_GetStartupInfoW      00000001801ff088     kernel32:KERNEL32.dll
 0002:00000090       __imp_IsProcessorFeaturePresent 00000001801ff090     kernel32:KERNEL32.dll
 0002:00000098       __imp_QueryPerformanceCounter 00000001801ff098     kernel32:KERNEL32.dll
 0002:000000a0       __imp_GetCurrentProcessId  00000001801ff0a0     kernel32:KERNEL32.dll
 0002:000000a8       __imp_GetCurrentThreadId   00000001801ff0a8     kernel32:KERNEL32.dll
 0002:000000b0       __imp_GetSystemTimeAsFileTime 00000001801ff0b0     kernel32:KERNEL32.dll
 0002:000000b8       __imp_InterlockedPushEntrySList 00000001801ff0b8     kernel32:KERNEL32.dll
 0002:000000c0       __imp_InterlockedFlushSList 00000001801ff0c0     kernel32:KERNEL32.dll
 0002:000000c8       __imp_RtlUnwindEx          00000001801ff0c8     kernel32:KERNEL32.dll
 0002:000000d0       __imp_SetLastError         00000001801ff0d0     kernel32:KERNEL32.dll
 0002:000000d8       __imp_EnterCriticalSection 00000001801ff0d8     kernel32:KERNEL32.dll
 0002:000000e0       __imp_LeaveCriticalSection 00000001801ff0e0     kernel32:KERNEL32.dll
 0002:000000e8       __imp_DeleteCriticalSection 00000001801ff0e8     kernel32:KERNEL32.dll
 0002:000000f0       __imp_InitializeCriticalSectionAndSpinCount 00000001801ff0f0     kernel32:KERNEL32.dll
 0002:000000f8       __imp_TlsAlloc             00000001801ff0f8     kernel32:KERNEL32.dll
 0002:00000100       __imp_TlsGetValue          00000001801ff100     kernel32:KERNEL32.dll
 0002:00000108       __imp_TlsSetValue          00000001801ff108     kernel32:KERNEL32.dll
 0002:00000110       __imp_TlsFree              00000001801ff110     kernel32:KERNEL32.dll
 0002:00000118       __imp_LoadLibraryExW       00000001801ff118     kernel32:KERNEL32.dll
 0002:00000120       __imp_EncodePointer        00000001801ff120     kernel32:KERNEL32.dll
 0002:00000128       __imp_RtlPcToFileHeader    00000001801ff128     kernel32:KERNEL32.dll
 0002:00000130       __imp_GetCurrentProcess    00000001801ff130     kernel32:KERNEL32.dll
 0002:00000138       __imp_ExitProcess          00000001801ff138     kernel32:KERNEL32.dll
 0002:00000140       __imp_TerminateProcess     00000001801ff140     kernel32:KERNEL32.dll
 0002:00000148       __imp_GetModuleHandleExW   00000001801ff148     kernel32:KERNEL32.dll
 0002:00000150       __imp_GetModuleFileNameW   00000001801ff150     kernel32:KERNEL32.dll
 0002:00000158       __imp_HeapAlloc            00000001801ff158     kernel32:KERNEL32.dll
 0002:00000160       __imp_HeapFree             00000001801ff160     kernel32:KERNEL32.dll
 0002:00000168       __imp_FlsAlloc             00000001801ff168     kernel32:KERNEL32.dll
 0002:00000170       __imp_FlsGetValue          00000001801ff170     kernel32:KERNEL32.dll
 0002:00000178       __imp_FlsSetValue          00000001801ff178     kernel32:KERNEL32.dll
 0002:00000180       __imp_FlsFree              00000001801ff180     kernel32:KERNEL32.dll
 0002:00000188       __imp_InitializeCriticalSectionEx 00000001801ff188     kernel32:KERNEL32.dll
 0002:00000190       __imp_LCMapStringW         00000001801ff190     kernel32:KERNEL32.dll
 0002:00000198       __imp_GetStdHandle         00000001801ff198     kernel32:KERNEL32.dll
 0002:000001a0       __imp_GetFileType          00000001801ff1a0     kernel32:KERNEL32.dll
 0002:000001a8       __imp_FindClose            00000001801ff1a8     kernel32:KERNEL32.dll
 0002:000001b0       __imp_FindFirstFileExW     00000001801ff1b0     kernel32:KERNEL32.dll
 0002:000001b8       __imp_FindNextFileW        00000001801ff1b8     kernel32:KERNEL32.dll
 0002:000001c0       __imp_IsValidCodePage      00000001801ff1c0     kernel32:KERNEL32.dll
 0002:000001c8       __imp_GetACP               00000001801ff1c8     kernel32:KERNEL32.dll
 0002:000001d0       __imp_GetOEMCP             00000001801ff1d0     kernel32:KERNEL32.dll
 0002:000001d8       __imp_GetCPInfo            00000001801ff1d8     kernel32:KERNEL32.dll
 0002:000001e0       __imp_GetCommandLineA      00000001801ff1e0     kernel32:KERNEL32.dll
 0002:000001e8       __imp_GetCommandLineW      00000001801ff1e8     kernel32:KERNEL32.dll
 0002:000001f0       __imp_MultiByteToWideChar  00000001801ff1f0     kernel32:KERNEL32.dll
 0002:000001f8       __imp_WideCharToMultiByte  00000001801ff1f8     kernel32:KERNEL32.dll
 0002:00000200       __imp_GetEnvironmentStringsW 00000001801ff200     kernel32:KERNEL32.dll
 0002:00000208       __imp_FreeEnvironmentStringsW 00000001801ff208     kernel32:KERNEL32.dll
 0002:00000210       __imp_GetProcessHeap       00000001801ff210     kernel32:KERNEL32.dll
 0002:00000218       __imp_FlushFileBuffers     00000001801ff218     kernel32:KERNEL32.dll
 0002:00000220       __imp_WriteFile            00000001801ff220     kernel32:KERNEL32.dll
 0002:00000228       __imp_GetConsoleOutputCP   00000001801ff228     kernel32:KERNEL32.dll
 0002:00000230       __imp_GetConsoleMode       00000001801ff230     kernel32:KERNEL32.dll
 0002:00000238       __imp_SetStdHandle         00000001801ff238     kernel32:KERNEL32.dll
 0002:00000240       __imp_GetFileSizeEx        00000001801ff240     kernel32:KERNEL32.dll
 0002:00000248       __imp_SetFilePointerEx     00000001801ff248     kernel32:KERNEL32.dll
 0002:00000250       __imp_GetStringTypeW       00000001801ff250     kernel32:KERNEL32.dll
 0002:00000258       __imp_HeapSize             00000001801ff258     kernel32:KERNEL32.dll
 0002:00000260       __imp_HeapReAlloc          00000001801ff260     kernel32:KERNEL32.dll
 0002:00000268       __imp_CloseHandle          00000001801ff268     kernel32:KERNEL32.dll
 0002:00000270       __imp_CreateFileW          00000001801ff270     kernel32:KERNEL32.dll
 0002:00000278       __imp_WriteConsoleW        00000001801ff278     kernel32:KERNEL32.dll
 0002:00000280       \177KERNEL32_NULL_THUNK_DATA 00000001801ff280     kernel32:KERNEL32.dll
 0002:00000288       __guard_check_icall_fptr   00000001801ff288     LIBCMT:guard_support.obj
 0002:00000290       __guard_xfg_check_icall_fptr 00000001801ff290     LIBCMT:guard_support.obj
 0002:00000298       __guard_dispatch_icall_fptr 00000001801ff298     LIBCMT:guard_support.obj
 0002:000002a0       __guard_xfg_dispatch_icall_fptr 00000001801ff2a0     LIBCMT:guard_support.obj
 0002:000002a8       __guard_xfg_table_dispatch_icall_fptr 00000001801ff2a8     LIBCMT:guard_support.obj
 0002:000002b0       __castguard_check_failure_os_handled_fptr 00000001801ff2b0     LIBCMT:guard_support.obj
 0002:000002b8       __guard_memcpy_fptr        00000001801ff2b8     libvcruntime:softmemtag.obj
 0002:000002c0       __xc_a                     00000001801ff2c0     LIBCMT:initializers.obj
 0002:00001db8       __xc_z                     0000000180200db8     LIBCMT:initializers.obj
 0002:00001dc0       __xi_a                     0000000180200dc0     LIBCMT:initializers.obj
 0002:00001dc8       __acrt_stdio_initializer   0000000180200dc8     libucrt:stdio_initializer.obj
 0002:00001dd0       __acrt_tran_fma3_initializer 0000000180200dd0     libucrt:fma3_initializer.obj
 0002:00001dd8       __acrt_multibyte_initializer 0000000180200dd8     libucrt:multibyte_initializer.obj
 0002:00001de0       __xi_z                     0000000180200de0     LIBCMT:initializers.obj
 0002:00001de8       __xp_a                     0000000180200de8     LIBCMT:initializers.obj
 0002:00001df0       __acrt_locale_terminator   0000000180200df0     libucrt:locale_initializer.obj
 0002:00001df8       __dcrt_console_output_terminator 0000000180200df8     libucrt:console_output_initializer.obj
 0002:00001e00       __acrt_stdio_terminator    0000000180200e00     libucrt:stdio_initializer.obj
 0002:00001e08       __xp_z                     0000000180200e08     LIBCMT:initializers.obj
 0002:00001e10       __xt_a                     0000000180200e10     LIBCMT:initializers.obj
 0002:00001e18       __xt_z                     0000000180200e18     LIBCMT:initializers.obj
 0002:00001e20       ??_7PxCollection@physx@@6B@ 0000000180200e20     CmCollection.obj
 0002:00001ea0       ??_C@_00CNPNBAHC@@         0000000180200ea0     CmCollection.obj
 0002:00001ea8       ??_7Collection@Cm@physx@@6B@ 0000000180200ea8     CmCollection.obj
 0002:00001f30       ??_C@_0GE@GBACBMOC@PxCollection?3?3add?5called?5for?5an@ 0000000180200f30     CmCollection.obj
 0002:00001f98       ??_C@_0DM@FMLKNGKC@E?3?2Libraries?2PhysX?2physx?2source@ 0000000180200f98     CmCollection.obj
 0002:00001fe0       ??_C@_0EM@OMMGDOMK@PxCollection?3?3add?5called?5with?5a@ 0000000180200fe0     CmCollection.obj
 0002:00002030       ??_C@_0EL@CBFFIHFG@PxCollection?3?3remove?5called?5for@ 0000000180201030     CmCollection.obj
 0002:00002080       ??_C@_0EP@DBNENNLL@PxCollection?3?3addId?5called?5for?5@ 0000000180201080     CmCollection.obj
 0002:000020d0       ??_C@_0FL@DACPFKDD@PxCollection?3?3addId?5called?5with@ 00000001802010d0     CmCollection.obj
 0002:00002130       ??_C@_0EP@GMPAMDKI@PxCollection?3?3addId?5called?5with@ 0000000180201130     CmCollection.obj
 0002:00002180       ??_C@_0FO@DIHIGAFD@PxCollection?3?3removeId?5called?5w@ 0000000180201180     CmCollection.obj
 0002:000021e0       ??_C@_0FF@MENHIPMD@PxCollection?3?3removeId?5called?5w@ 00000001802011e0     CmCollection.obj
 0002:00002240       ??_C@_0FK@BAFICJEM@PxCollection?3?3find?5called?5with?5@ 0000000180201240     CmCollection.obj
 0002:000022a0       ??_C@_0DF@CLGAFPLL@PxCollection?3?3add?$CIPxCollection?$CG@ 00000001802012a0     CmCollection.obj
 0002:000022d8       ??_C@_0DN@DMJACFO@PxCollection?3?3add?$CIPxCollection?$CG@ 00000001802012d8     CmCollection.obj
 0002:00002318       ??_C@_0DI@DICAIAPC@PxCollection?3?3remove?$CIPxCollecti@ 0000000180201318     CmCollection.obj
 0002:00002350       ??_C@_0DG@LOILDLGN@PxCollection?3?3getObjects?5called@ 0000000180201350     CmCollection.obj
 0002:00002388       ??_C@_0DD@GMICJLDJ@PxCollection?3?3getObjects?5called@ 0000000180201388     CmCollection.obj
 0002:000023c0       ??_C@_0DC@GILGGBAI@PxCollection?3?3getIds?5called?5wit@ 00000001802013c0     CmCollection.obj
 0002:000023f8       ??_C@_0CP@LFEKADKN@PxCollection?3?3getIds?5called?5wit@ 00000001802013f8     CmCollection.obj
 0002:00002428       ??_C@_0BM@OIFKLHDN@?$DMallocation?5names?5disabled?$DO@ 0000000180201428     CmCollection.obj
 0002:00002448       ??_C@_0DO@GNEBIOHG@E?3?2Libraries?2PhysX?2physx?2includ@ 0000000180201448     CmCollection.obj
 0002:00002488       ??_7RadixSort@Cm@physx@@6B@ 0000000180201488     CmRadixSort.obj
 0002:00002490       ??_7RadixSortBuffered@Cm@physx@@6B@ 0000000180201490     CmRadixSort.obj
 0002:00002498       ??_C@_0DL@NBCMMEIK@E?3?2Libraries?2PhysX?2physx?2source@ 0000000180201498     CmRadixSort.obj
 0002:000024e0       __xmm@00000001000000010000000100000001 00000001802014e0     CmRadixSort.obj
 0002:000024f0       __xmm@00000003000000020000000100000000 00000001802014f0     CmRadixSort.obj
 0002:00002500       __real@3d4ccccd            0000000180201500     CmVisualization.obj
 0002:00002504       __real@3e19999a            0000000180201504     CmVisualization.obj
 0002:00002508       __real@3e490fdb            0000000180201508     CmVisualization.obj
 0002:0000250c       __real@3e800000            000000018020150c     CmVisualization.obj
 0002:00002510       __real@3e99999a            0000000180201510     CmVisualization.obj
 0002:00002514       __real@3ea0d97c            0000000180201514     CmVisualization.obj
 0002:00002518       __real@3f000000            0000000180201518     CmVisualization.obj
 0002:0000251c       __real@3f3504f3            000000018020151c     CmVisualization.obj
 0002:00002520       __real@3f800000            0000000180201520     CmVisualization.obj
 0002:00002524       __real@3fc00000            0000000180201524     CmVisualization.obj
 0002:00002528       __real@3fddb3d7            0000000180201528     CmVisualization.obj
 0002:0000252c       __real@40100000            000000018020152c     CmVisualization.obj
 0002:00002530       __real@40400000            0000000180201530     CmVisualization.obj
 0002:00002534       __real@40c90fdb            0000000180201534     CmVisualization.obj
 0002:00002538       __real@40d80000            0000000180201538     CmVisualization.obj
 0002:0000253c       __real@80000000            000000018020153c     CmVisualization.obj
 0002:00002540       __xmm@3f800000000000000000000000000000 0000000180201540     CmVisualization.obj
 0002:00002550       __xmm@7fffffff7fffffff7fffffff7fffffff 0000000180201550     CmVisualization.obj
 0002:00002560       __xmm@80000000800000008000000080000000 0000000180201560     CmVisualization.obj
 0002:00002570       ??_C@_0BB@CPDDPFKD@GetUpdatedModule@ 0000000180201570     CmWindowsModuleUpdateLoader.obj
 0002:00002590       ??_C@_0FD@JDPJNDCA@E?3?2Libraries?2PhysX?2physx?2source@ 0000000180201590     CmWindowsModuleUpdateLoader.obj
 0002:000025e8       ??_C@_0CP@PGOIOJOO@?$CFs?3?$CFi?3?5loadLibrary?5error?5when?5l@ 00000001802015e8     CmWindowsModuleUpdateLoader.obj
 0002:00002618       ??_C@_0BA@EGLNOO@PhysXFoundation@ 0000000180201618     CmWindowsDelayLoadHook.obj
 0002:00002628       ??_C@_0M@ILKNCJKN@PhysXCommon@ 0000000180201628     CmWindowsDelayLoadHook.obj
 0002:00002660       __real@3f7ff972            0000000180201660     GuBox.obj
 0002:00002670       __xmm@000000003a83126f3a83126f3a83126f 0000000180201670     GuBox.obj
 0002:00002680       __xmm@00000000ba83126fba83126fba83126f 0000000180201680     GuBox.obj
 0002:00002690       __xmm@3a83126f3a83126f3a83126f3a83126f 0000000180201690     GuBox.obj
 0002:000026a0       __xmm@ba83126fba83126fba83126fba83126f 00000001802016a0     GuBox.obj
 0002:000026d0       ??_7EntityReport@Gu@physx@@6B@ 00000001802016d0     GuSweepsHF.obj
 0002:000026d0       ??_7OverlapCallback@PxBVH@physx@@6B@ 00000001802016d0     GuQuerySystem.obj
 0002:000026d0       ??_7OverlapReport@Gu@physx@@6B@ 00000001802016d0     GuCCTSweepTests.obj
 0002:000026d0       ??_7RaycastCallback@PxBVH@physx@@6B@ 00000001802016d0     GuQuerySystem.obj
 0002:000026d0       ??_7RemapCallback@RTreeCooker@physx@@6B@ 00000001802016d0     GuCookingTriangleMesh.obj
 0002:000026f0       __real@3b03126f            00000001802016f0     GuCCTSweepTests.obj
 0002:000026f4       __real@40000000            00000001802016f4     GuCCTSweepTests.obj
 0002:00002730       ??_C@_0CD@CGJJEFHC@Gu?3?3overlap?$CI?$CJ?3?5pose0?5is?5not?5val@ 0000000180201730     GuGeometryQuery.obj
 0002:00002760       ??_C@_0ED@GKAJNPHC@E?3?2Libraries?2PhysX?2physx?2source@ 0000000180201760     GuGeometryQuery.obj
 0002:000027a8       ??_C@_0CD@IIPBNEOD@Gu?3?3overlap?$CI?$CJ?3?5pose1?5is?5not?5val@ 00000001802017a8     GuGeometryQuery.obj
 0002:000027d0       ??_7SupportLocal@Gu@physx@@6B@ 00000001802017d0     GuGeometryQuery.obj
 0002:000027f0       ??_C@_0CO@DGHGHPPJ@PxGeometryQuery?3?3sweep?$CI?$CJ?3?5pose0@ 00000001802017f0     GuGeometryQuery.obj
 0002:00002820       ??_C@_0EC@MHKLBNMF@E?3?2Libraries?2PhysX?2physx?2source@ 0000000180201820     GuGeometryQuery.obj
 0002:00002868       ??_C@_0CO@JIBOOOGI@PxGeometryQuery?3?3sweep?$CI?$CJ?3?5pose1@ 0000000180201868     GuGeometryQuery.obj
 0002:00002898       ??_C@_0DA@JEEBDBEM@PxGeometryQuery?3?3sweep?$CI?$CJ?3?5unitD@ 0000000180201898     GuGeometryQuery.obj
 0002:000028c8       ??_C@_0DB@KCEKJBPE@PxGeometryQuery?3?3sweep?$CI?$CJ?3?5dista@ 00000001802018c8     GuGeometryQuery.obj
 0002:00002900       ??_C@_0FM@HAJNNJNC@PxGeometryQuery?3?3sweep?$CI?$CJ?3?5sweep@ 0000000180201900     GuGeometryQuery.obj
 0002:00002960       ??_C@_0CB@JDDBKCNL@Provided?5geometry?50?5is?5not?5vali@ 0000000180201960     GuGeometryQuery.obj
 0002:00002988       ??_C@_0CB@CKMKHJDD@Provided?5geometry?51?5is?5not?5vali@ 0000000180201988     GuGeometryQuery.obj
 0002:000029b0       ??_C@_0GL@GJKJELMB@PxGeometryQuery?3?3sweep?$CI?$CJ?3?5first@ 00000001802019b0     GuGeometryQuery.obj
 0002:00002a20       ??_C@_0DB@OMDGMOND@PxGeometryQuery?3?3raycast?$CI?$CJ?3?5ray@ 0000000180201a20     GuGeometryQuery.obj
 0002:00002a58       ??_C@_0DE@MGFNMBNA@PxGeometryQuery?3?3raycast?$CI?$CJ?3?5ray@ 0000000180201a58     GuGeometryQuery.obj
 0002:00002a90       ??_C@_0CP@NHLDPNEB@PxGeometryQuery?3?3raycast?$CI?$CJ?3?5pos@ 0000000180201a90     GuGeometryQuery.obj
 0002:00002ac0       ??_C@_0DB@HPNPNEMP@PxGeometryQuery?3?3raycast?$CI?$CJ?3?5max@ 0000000180201ac0     GuGeometryQuery.obj
 0002:00002af8       ??_C@_0DC@BLMIOBO@PxGeometryQuery?3?3raycast?$CI?$CJ?3?5max@ 0000000180201af8     GuGeometryQuery.obj
 0002:00002b30       ??_C@_0DP@IPJGHFJE@PxGeometryQuery?3?3raycast?$CI?$CJ?3?5ray@ 0000000180201b30     GuGeometryQuery.obj
 0002:00002b70       ??_C@_0DF@BMEFDPAL@PxGeometryQuery?3?3pointDistance?$CI@ 0000000180201b70     GuGeometryQuery.obj
 0002:00002bb0       ??_C@_0HD@CIHHMJFE@PxGeometryQuery?3?3pointDistance?$CI@ 0000000180201bb0     GuGeometryQuery.obj
 0002:00002c28       ??_C@_0DJ@FHLFMELL@PxGeometryQuery?3?3computeGeomBou@ 0000000180201c28     GuGeometryQuery.obj
 0002:00002c68       ??_C@_0DL@LECAKFBF@PxGeometryQuery?3?3computePenetra@ 0000000180201c68     GuGeometryQuery.obj
 0002:00002ca8       ??_C@_0DL@BKEIDEIE@PxGeometryQuery?3?3computePenetra@ 0000000180201ca8     GuGeometryQuery.obj
 0002:00002ce8       ??_7?$SupportLocalImpl@VBoxV@Gu@physx@@@Gu@physx@@6B@ 0000000180201ce8     GuGeometryQuery.obj
 0002:00002d08       ??_7?$SupportLocalImpl@VConvexHullV@Gu@physx@@@Gu@physx@@6B@ 0000000180201d08     GuGeometryQuery.obj
 0002:00002d28       ??_C@_0DG@CFCENBIK@E?3?2Libraries?2PhysX?2physx?2includ@ 0000000180201d28     GuGeometryQuery.obj
 0002:00002d60       __real@2edbe6fe            0000000180201d60     GuGeometryQuery.obj
 0002:00002d64       __real@30d1b7e9            0000000180201d64     GuGeometryQuery.obj
 0002:00002d68       __real@322bcc77            0000000180201d68     GuGeometryQuery.obj
 0002:00002d6c       __real@34000000            0000000180201d6c     GuGeometryQuery.obj
 0002:00002d70       __real@358637bd            0000000180201d70     GuGeometryQuery.obj
 0002:00002d74       __real@3727c5ac            0000000180201d74     GuGeometryQuery.obj
 0002:00002d78       __real@38d1b717            0000000180201d78     GuGeometryQuery.obj
 0002:00002d7c       __real@3a83126f            0000000180201d7c     GuGeometryQuery.obj
 0002:00002d80       __real@3c23d70a            0000000180201d80     GuGeometryQuery.obj
 0002:00002d84       __real@3ccccccd            0000000180201d84     GuGeometryQuery.obj
 0002:00002d88       __real@3dcccccd            0000000180201d88     GuGeometryQuery.obj
 0002:00002d8c       __real@3e0f5c29            0000000180201d8c     GuGeometryQuery.obj
 0002:00002d90       __real@3f7d70a4            0000000180201d90     GuGeometryQuery.obj
 0002:00002d94       __real@49742400            0000000180201d94     GuGeometryQuery.obj
 0002:00002d98       __real@7f7fffff            0000000180201d98     GuGeometryQuery.obj
 0002:00002d9c       __real@b727c5ac            0000000180201d9c     GuGeometryQuery.obj
 0002:00002da0       __real@bf000000            0000000180201da0     GuGeometryQuery.obj
 0002:00002da4       __real@bf7d70a4            0000000180201da4     GuGeometryQuery.obj
 0002:00002da8       __real@bf800000            0000000180201da8     GuGeometryQuery.obj
 0002:00002dac       __real@ff7fffff            0000000180201dac     GuGeometryQuery.obj
 0002:00002db0       __xmm@0000000000000000000000003f800000 0000000180201db0     GuGeometryQuery.obj
 0002:00002dc0       __xmm@00000000000000003f80000000000000 0000000180201dc0     GuGeometryQuery.obj
 0002:00002dd0       __xmm@00000000000000003f8000003f800000 0000000180201dd0     GuGeometryQuery.obj
 0002:00002de0       __xmm@000000003f8000000000000000000000 0000000180201de0     GuGeometryQuery.obj
 0002:00002df0       __xmm@000000003f8000003f8000003f800000 0000000180201df0     GuGeometryQuery.obj
 0002:00002e00       __xmm@00000000ffffffffffffffffffffffff 0000000180201e00     GuGeometryQuery.obj
 0002:00002e10       __xmm@3d4ccccd3d4ccccd3d4ccccd3d4ccccd 0000000180201e10     GuGeometryQuery.obj
 0002:00002e20       __xmm@3e19999a3e19999a3e19999a3e19999a 0000000180201e20     GuGeometryQuery.obj
 0002:00002e30       __xmm@3e4ccccd3e4ccccd3e4ccccd3e4ccccd 0000000180201e30     GuGeometryQuery.obj
 0002:00002e40       __xmm@3e8000003e8000003e8000003e800000 0000000180201e40     GuGeometryQuery.obj
 0002:00002e50       __xmm@3f7ef9db3f7ef9db3f7ef9db3f7ef9db 0000000180201e50     GuGeometryQuery.obj
 0002:00002e60       __xmm@3f7ff2e53f7ff2e53f7ff2e53f7ff2e5 0000000180201e60     GuGeometryQuery.obj
 0002:00002e70       __xmm@3f8000003f8000003f8000003f800000 0000000180201e70     GuGeometryQuery.obj
 0002:00002e80       __xmm@7f7fffff7f7fffff7f7fffff7f7fffff 0000000180201e80     GuGeometryQuery.obj
 0002:00002e90       __xmm@bf000000bf000000bf000000bf000000 0000000180201e90     GuGeometryQuery.obj
 0002:00002ed0       ??_C@_0EM@BDFDGBD@Inserting?5object?5failed?3?5Object@ 0000000180201ed0     GuMeshFactory.obj
 0002:00002f40       ??_7CallbackRaycast@RTree@Gu@physx@@6B@ 0000000180201f40     GuMidphaseRTree.obj
 0002:00002f40       ??_7CallbackRefit@RTree@Gu@physx@@6B@ 0000000180201f40     GuTriangleMeshRTree.obj
 0002:00002f40       ??_7PxInsertionCallback@physx@@6B@ 0000000180201f40     GuMeshFactory.obj
 0002:00002f50       ??_C@_0EA@PBBDBPME@E?3?2Libraries?2PhysX?2physx?2source@ 0000000180201f50     GuMeshFactory.obj
 0002:00002f90       ??_7PxCollisionMeshMappingData@physx@@6B@ 0000000180201f90     GuMeshFactory.obj
 0002:00002fa0       ??_7MeshFactory@Gu@physx@@6B@ 0000000180201fa0     GuMeshFactory.obj
 0002:00002fa8       ??_7MeshDataBase@Gu@physx@@6B@ 0000000180201fa8     GuMeshFactory.obj
 0002:00002fb0       ??_C@_0EA@BPMFBBED@E?3?2Libraries?2PhysX?2physx?2source@ 0000000180201fb0     GuMeshFactory.obj
 0002:00002ff0       ??_7TriangleMeshData@Gu@physx@@6B@ 0000000180201ff0     GuMeshFactory.obj
 0002:00002ff8       ??_7RTreeTriangleData@Gu@physx@@6B@ 0000000180201ff8     GuMeshFactory.obj
 0002:00003000       ??_7BV4TriangleData@Gu@physx@@6B@ 0000000180202000     GuMeshFactory.obj
 0002:00003008       ??_7DeformableVolumeCollisionData@Gu@physx@@6B@ 0000000180202008     GuMeshFactory.obj
 0002:00003010       ??_7CollisionMeshMappingData@Gu@physx@@6B@ 0000000180202010     GuMeshFactory.obj
 0002:00003020       ??_7DeformableVolumeSimulationData@Gu@physx@@6B@ 0000000180202020     GuMeshFactory.obj
 0002:00003030       ??_C@_0GP@NHELMDAL@Loading?5triangle?5mesh?5failed?3?5D@ 0000000180202030     GuMeshFactory.obj
 0002:000030a0       ??_C@_0BP@CDOKDACA@RTree?5binary?5image?5load?5error?4@ 00000001802020a0     GuMeshFactory.obj
 0002:000030c0       ??_C@_0BN@MJPNIELF@BV4?5binary?5image?5load?5error?4@ 00000001802020c0     GuMeshFactory.obj
 0002:000030e0       ??_C@_0BO@JDPABAOF@BV32?5binary?5image?5load?5error?4@ 00000001802020e0     GuMeshFactory.obj
 0002:00003100       ??_C@_0BN@IKININFO@Invalid?5tetrahedron?5indices?4@ 0000000180202100     GuMeshFactory.obj
 0002:00003120       ??_C@_0DG@CMEJNIPD@E?3?2Libraries?2PhysX?2physx?2includ@ 0000000180202120     GuMeshFactory.obj
 0002:00003160       __xmm@cdcdcdcdcdcdcdcdcdcdcdcdcdcdcdcd 0000000180202160     GuMeshFactory.obj
 0002:00003170       __xmm@fe7fffff7e7fffff7e7fffff7e7fffff 0000000180202170     GuMeshFactory.obj
 0002:000031a0       ??_7?$SupportLocalImpl@VConvexHullNoScaleV@Gu@physx@@@Gu@physx@@6B@ 00000001802021a0     GuMTD.obj
 0002:000031c0       ?absMask@?1??FAbs@aos@physx@@YA?AT__m128@@T4@@Z@4QBIB 00000001802021c0     GuMTD.obj
 0002:000031d0       ??_7GjkConvex@Gu@physx@@6B@ 00000001802021d0     GuMTD.obj
 0002:00003200       ??_7?$LocalConvex@VCapsuleV@Gu@physx@@@Gu@physx@@6B@ 0000000180202200     GuMTD.obj
 0002:00003230       ??_7?$LocalConvex@VConvexHullV@Gu@physx@@@Gu@physx@@6B@ 0000000180202230     GuMTD.obj
 0002:00003260       __real@2edbe6ff            0000000180202260     GuMTD.obj
 0002:00003270       __xmm@28800000288000002880000028800000 0000000180202270     GuMTD.obj
 0002:00003280       __xmm@34000000340000003400000034000000 0000000180202280     GuMTD.obj
 0002:00003290       __xmm@358637bd358637bd358637bd358637bd 0000000180202290     GuMTD.obj
 0002:000032a0       __xmm@3dcccccd3dcccccd3dcccccd3dcccccd 00000001802022a0     GuMTD.obj
 0002:000032b0       __xmm@3f7ff1413f7ff1413f7ff1413f7ff141 00000001802022b0     GuMTD.obj
 0002:000032e0       ??_7?$RelativeConvex@VBoxV@Gu@physx@@@Gu@physx@@6B@ 00000001802022e0     GuOverlapTests.obj
 0002:00003310       ??_7?$RelativeConvex@VConvexHullV@Gu@physx@@@Gu@physx@@6B@ 0000000180202310     GuOverlapTests.obj
 0002:00003350       ??_7Support@PxGjkQuery@physx@@6B@ 0000000180202350     GuRaycastTests.obj
 0002:000033b8       __real@1e3ce508            00000001802023b8     GuRaycastTests.obj
 0002:000033bc       __real@28800000            00000001802023bc     GuRaycastTests.obj
 0002:000033c0       __real@33d6bf95            00000001802023c0     GuRaycastTests.obj
 0002:000033c4       __real@3f0147ae            00000001802023c4     GuRaycastTests.obj
 0002:000033c8       __real@3f7ffffe            00000001802023c8     GuRaycastTests.obj
 0002:000033cc       __real@3f800347            00000001802023cc     GuRaycastTests.obj
 0002:000033d0       __real@41200000            00000001802023d0     GuRaycastTests.obj
 0002:000033d4       __real@b3d6bf95            00000001802023d4     GuRaycastTests.obj
 0002:000033d8       __real@b8d1b717            00000001802023d8     GuRaycastTests.obj
 0002:000033dc       __real@c1200000            00000001802023dc     GuRaycastTests.obj
 0002:00003410       ??_7?$MeshHitCallback@UPxGeomRaycastHit@physx@@@Gu@physx@@6B@ 0000000180202410     GuSweepMTD.obj
 0002:00003420       ??_7MeshMTDGenerationCallback@@6B@ 0000000180202420     GuSweepMTD.obj
 0002:00003430       ??_7MidPhaseQueryLocalReport@@6B@ 0000000180202430     GuSweepMTD.obj
 0002:00003440       __real@3f8147ae            0000000180202440     GuSweepMTD.obj
 0002:00003444       __real@3f933333            0000000180202444     GuSweepMTD.obj
 0002:00003470       __real@42c80000            0000000180202470     GuSweepSharedTests.obj
 0002:00003480       __xmm@000000ff000000ff000000ff000000ff 0000000180202480     GuSweepSharedTests.obj
 0002:00003490       __xmm@ffffffffffffffffffffffffffffffff 0000000180202490     GuSweepSharedTests.obj
 0002:00003540       ??_7?$LocalConvex@VBoxV@Gu@physx@@@Gu@physx@@6B@ 0000000180202540     GuSweepTests.obj
 0002:00003570       ??_7?$LocalConvex@VTriangleV@Gu@physx@@@Gu@physx@@6B@ 0000000180202570     GuSweepTests.obj
 0002:000035d0       __xmm@00000002000000020000000200000002 00000001802025d0     GuSweepTests.obj
 0002:000035e0       __xmm@3eaaaa9f3eaaaa9f3eaaaa9f3eaaaa9f 00000001802025e0     GuSweepTests.obj
 0002:00003698       ??_7PxRunnable@physx@@6B@  0000000180202698     GuSDF.obj
 0002:000036a8       ??_C@_0DI@EBBGFNJO@E?3?2Libraries?2PhysX?2physx?2source@ 00000001802026a8     GuSDF.obj
 0002:000036e0       ??_7PointOntoTriangleMeshProjector@Gu@physx@@6B@ 00000001802026e0     GuSDF.obj
 0002:000036f8       ??_7?$PxThreadT@V?$PxReflectionAllocator@VPxThreadImpl@physx@@@physx@@@physx@@6B@ 00000001802026f8     GuSDF.obj
 0002:00003708       ??_C@_06FJHNOCKE@thread@   0000000180202708     GuSDF.obj
 0002:00003710       ??_C@_0BAK@OPLLKLNG@SDF?5creation?3?5Mesh?5is?5not?5suita@ 0000000180202710     GuSDF.obj
 0002:00003820       ??_C@_0FB@OMEANACP@SDF?5creation?3?5Input?5mesh?5is?5not@ 0000000180202820     GuSDF.obj
 0002:00003880       ??_C@_0EC@LILMFABM@No?5distance?5data?5available?5?$CInul@ 0000000180202880     GuSDF.obj
 0002:000038d0       ??_C@_0EF@PBPCGDDJ@No?5sparse?5grid?5data?5available?5?$CI@ 00000001802028d0     GuSDF.obj
 0002:00003918       ??_C@_0DH@OAPPFCOD@E?3?2Libraries?2PhysX?2physx?2includ@ 0000000180202918     GuSDF.obj
 0002:00003950       ??_C@_0DF@OPHECIGB@E?3?2Libraries?2PhysX?2physx?2includ@ 0000000180202950     GuSDF.obj
 0002:00003988       ??_C@_0DO@IPHMHNHH@E?3?2Libraries?2PhysX?2physx?2includ@ 0000000180202988     GuSDF.obj
 0002:000039c8       __real@37800080            00000001802029c8     GuSDF.obj
 0002:000039cc       __real@3b808081            00000001802029cc     GuSDF.obj
 0002:000039d0       __real@3e2aaaab            00000001802029d0     GuSDF.obj
 0002:000039d4       __real@3eaaaaab            00000001802029d4     GuSDF.obj
 0002:000039d8       __real@7e7fffff            00000001802029d8     GuSDF.obj
 0002:000039dc       __real@fe7fffff            00000001802029dc     GuSDF.obj
 0002:000039e0       __xmm@00000001000000010000000100000000 00000001802029e0     GuSDF.obj
 0002:00003a10       ??_7?$RelativeConvex@UCustomConvexV@@@Gu@physx@@6B@ 0000000180202a10     GuGjkQuery.obj
 0002:00003a40       ??_7?$LocalConvex@UCustomConvexV@@@Gu@physx@@6B@ 0000000180202a40     GuGjkQuery.obj
 0002:00003a70       ??_7?$LocalConvex@UPointConvexV@@@Gu@physx@@6B@ 0000000180202a70     GuGjkQuery.obj
 0002:00003ac0       __real@3da2f983            0000000180202ac0     GuWindingNumber.obj
 0002:00003ac4       __real@3e22f983            0000000180202ac4     GuWindingNumber.obj
 0002:00003ac8       __real@3f99999a            0000000180202ac8     GuWindingNumber.obj
 0002:00003af0       __real@38aaaaab            0000000180202af0     GuConvexGeometry.obj
 0002:00003af4       __real@3d000000            0000000180202af4     GuConvexGeometry.obj
 0002:00003af8       __real@3daaaaab            0000000180202af8     GuConvexGeometry.obj
 0002:00003afc       __real@3ecccccd            0000000180202afc     GuConvexGeometry.obj
 0002:00003b00       __real@3fc90fdb            0000000180202b00     GuConvexGeometry.obj
 0002:00003b04       __real@40490fdb            0000000180202b04     GuConvexGeometry.obj
 0002:00003b08       __real@40860a92            0000000180202b08     GuConvexGeometry.obj
 0002:00003b10       __xmm@3f800000bf8000003f8000003f800000 0000000180202b10     GuConvexGeometry.obj
 0002:00003b20       __xmm@bf8000003f800000bf800000bf800000 0000000180202b20     GuConvexGeometry.obj
 0002:00003bb0       __real@3c343958            0000000180202bb0     GuCCDSweepConvexMesh.obj
 0002:00003bb4       __real@3ca3d70a            0000000180202bb4     GuCCDSweepConvexMesh.obj
 0002:00003bb8       __real@3f0ccccd            0000000180202bb8     GuCCDSweepConvexMesh.obj
 0002:00003bbc       __real@3f8ccccd            0000000180202bbc     GuCCDSweepConvexMesh.obj
 0002:00003bc0       __real@b58637bd            0000000180202bc0     GuCCDSweepConvexMesh.obj
 0002:00003bf0       ??_7?$RelativeConvex@VCapsuleV@Gu@physx@@@Gu@physx@@6B@ 0000000180202bf0     GuCCDSweepPrimitives.obj
 0002:00003c20       ??_7?$RelativeConvex@VTriangleV@Gu@physx@@@Gu@physx@@6B@ 0000000180202c20     GuCCDSweepPrimitives.obj
 0002:00003c50       __real@3ba3d70a            0000000180202c50     GuCCDSweepPrimitives.obj
 0002:00003c54       __real@501502f9            0000000180202c54     GuCCDSweepPrimitives.obj
 0002:00003c80       ??_C@_0EH@JBNNBLPI@E?3?2Libraries?2PhysX?2physx?2source@ 0000000180202c80     GuAdjacencies.obj
 0002:00003cc8       ??_C@_0DA@FMEHLBKI@Adjacencies?3?3UpdateLink?3?5invali@ 0000000180202cc8     GuAdjacencies.obj
 0002:00003d00       ??_C@_0EA@CPHOACLK@Adjacencies?3?3CreateDatabase?3?5ca@ 0000000180202d00     GuAdjacencies.obj
 0002:00003d40       ??_C@_0EE@JHMKGPLE@E?3?2Libraries?2PhysX?2physx?2source@ 0000000180202d40     GuEdgeList.obj
 0002:00003d88       ??_C@_0CO@GBNJFPN@EdgeList?3?3CreateFacesToEdges?3?5N@ 0000000180202d88     GuEdgeList.obj
 0002:00003db8       ??_C@_0CO@EHJBBMNK@EdgeList?3?3ComputeActiveEdges?3?5N@ 0000000180202db8     GuEdgeList.obj
 0002:00003de8       ??_C@_0DI@GBHLFOFP@ActiveEdges?3?3ComputeConvexEdges@ 0000000180202de8     GuEdgeList.obj
 0002:00003e20       ??_C@_0DM@JOGBLHDI@ActiveEdges?3?3ComputeConvexEdges@ 0000000180202e20     GuEdgeList.obj
 0002:00003e60       ??_C@_0ED@FEMJKPEL@ActiveEdges?3?3ComputeConvexEdges@ 0000000180202e60     GuEdgeList.obj
 0002:00003eb0       ??_C@_0EB@BFDPMFCD@ActiveEdges?3?3ComputeConvexEdges@ 0000000180202eb0     GuEdgeList.obj
 0002:00003ef4       __real@bf7fbe77            0000000180202ef4     GuEdgeList.obj
 0002:00003ef8       ??_7Quantizer@Gu@physx@@6B@ 0000000180202ef8     GuQuantizer.obj
 0002:00003f20       ??_7QuantizerImpl@@6B@     0000000180202f20     GuQuantizer.obj
 0002:00003f50       ??_C@_0EF@FHGMIBI@E?3?2Libraries?2PhysX?2physx?2source@ 0000000180202f50     GuQuantizer.obj
 0002:00003f98       __real@3f8020c5            0000000180202f98     GuQuantizer.obj
 0002:00003fa0       ??_C@_0EH@LEIGDGKM@E?3?2Libraries?2PhysX?2physx?2source@ 0000000180202fa0     GuMeshCleaner.obj
 0002:00003fe8       __real@40800000            0000000180202fe8     GuMeshCleaner.obj
 0002:00003ff0       ??_C@_0EJ@BLMHICFA@E?3?2Libraries?2PhysX?2physx?2source@ 0000000180202ff0     GuVertexReducer.obj
 0002:00004140       __real@3f7fbe77            0000000180203140     GuContactBoxBox.obj
 0002:00004190       __real@3f7ff2e5            0000000180203190     GuContactCapsuleCapsule.obj
 0002:00004220       __real@358637be            0000000180203220     GuContactCapsuleMesh.obj
 0002:00004224       __real@ba83126f            0000000180203224     GuContactCapsuleMesh.obj
 0002:00004280       ??_7ConvexMeshContactGenerationCallback@@6B@ 0000000180203280     GuContactConvexMesh.obj
 0002:000042f0       __real@3f7fff58            00000001802032f0     GuContactConvexCoreMesh.obj
 0002:000043a0       ??_C@_0DH@KENLBLCP@E?3?2Libraries?2PhysX?2physx?2includ@ 00000001802033a0     GuContactPlaneMesh.obj
 0002:00004400       __real@3ec90fdb            0000000180203400     GuContactPolygonPolygon.obj
 0002:00004404       __real@3f490fdb            0000000180203404     GuContactPolygonPolygon.obj
 0002:00004408       __real@3f96cbe4            0000000180203408     GuContactPolygonPolygon.obj
 0002:0000440c       __real@3ffb53d2            000000018020340c     GuContactPolygonPolygon.obj
 0002:00004410       __real@4016cbe4            0000000180203410     GuContactPolygonPolygon.obj
 0002:00004414       __real@402feddf            0000000180203414     GuContactPolygonPolygon.obj
 0002:00004440       ??_C@_0ED@KPEAGMIA@Dropping?5contacts?5in?5contact?5re@ 0000000180203440     GuContactMeshMesh.obj
 0002:00004490       ??_C@_0EL@OPEGJBDK@E?3?2Libraries?2PhysX?2physx?2source@ 0000000180203490     GuContactMeshMesh.obj
 0002:000044dc       __real@3b800000            00000001802034dc     GuContactMeshMesh.obj
 0002:000044e0       __real@3ed64e4c            00000001802034e0     GuContactMeshMesh.obj
 0002:000044e4       __real@3f12648a            00000001802034e4     GuContactMeshMesh.obj
 0002:000044e8       __real@3f349e9b            00000001802034e8     GuContactMeshMesh.obj
 0002:000044ec       __real@3f4ccccd            00000001802034ec     GuContactMeshMesh.obj
 0002:000044f0       __real@3f59999a            00000001802034f0     GuContactMeshMesh.obj
 0002:000044f4       __real@3f7fdf3b            00000001802034f4     GuContactMeshMesh.obj
 0002:00004530       ??_C@_0DM@PKEGDNOH@Dropping?5contacts?5in?5sphere?5vs?5@ 0000000180203530     GuContactSphereMesh.obj
 0002:00004570       ??_C@_0EO@KAHOCMNO@E?3?2Libraries?2PhysX?2physx?2source@ 0000000180203570     GuContactSphereMesh.obj
 0002:000045f0       ??_C@_0EJ@EJEEOGHE@E?3?2Libraries?2PhysX?2physx?2source@ 00000001802035f0     GuBigConvexData.obj
 0002:00004660       ??_C@_06EJKDJEDO@PxBase@   0000000180203660     GuConvexMesh.obj
 0002:00004668       ??_C@_0N@CDGINLLF@PxConvexMesh@ 0000000180203668     GuConvexMesh.obj
 0002:00004678       ??_7PxBase@physx@@6B@      0000000180203678     GuConvexMesh.obj
 0002:000046a0       ??_C@_0CE@IDAGNPDH@isKindOf?5called?5with?5invalid?5st@ 00000001802036a0     GuConvexMesh.obj
 0002:000046c8       ??_C@_0N@OPPDBGAG@PxRefCounted@ 00000001802036c8     GuConvexMesh.obj
 0002:000046d8       ??_C@_0DJ@PEONECFL@E?3?2Libraries?2PhysX?2physx?2includ@ 00000001802036d8     GuConvexMesh.obj
 0002:00004718       ??_7ConvexMesh@Gu@physx@@6B@ 0000000180203718     GuConvexMesh.obj
 0002:000047b0       ??_C@_0EG@MMFFGPOC@E?3?2Libraries?2PhysX?2physx?2source@ 00000001802037b0     GuConvexMesh.obj
 0002:000047f8       ??_C@_0DM@NEJKOFIP@Loading?5convex?5mesh?5failed?3?5Dep@ 00000001802037f8     GuConvexMesh.obj
 0002:00004838       ??_C@_0DB@PAHEPIEL@PxConvexMesh?3?3release?3?5double?5d@ 0000000180203838     GuConvexMesh.obj
 0002:00004870       ??_C@_0DO@JJNPMNPM@E?3?2Libraries?2PhysX?2physx?2source@ 0000000180203870     GuConvexMesh.obj
 0002:000048d0       __xmm@000000000000000000000000ffffffff 00000001802038d0     GuConvexSupportTable.obj
 0002:000048e0       __xmm@0000000000000000ffffffff00000000 00000001802038e0     GuConvexSupportTable.obj
 0002:000048f0       __xmm@0000000000000000ffffffffffffffff 00000001802038f0     GuConvexSupportTable.obj
 0002:00004900       __xmm@00000000ffffffff0000000000000000 0000000180203900     GuConvexSupportTable.obj
 0002:00004910       __xmm@00000000ffffffff00000000ffffffff 0000000180203910     GuConvexSupportTable.obj
 0002:00004920       __xmm@00000000ffffffffffffffff00000000 0000000180203920     GuConvexSupportTable.obj
 0002:000049b0       __xmm@2b8cbccc2b8cbccc2b8cbccc2b8cbccc 00000001802039b0     GuDistancePointTriangle.obj
 0002:00004a00       __xmm@3f0000003f0000003f0000003f000000 0000000180203a00     GuDistanceSegmentSegment.obj
 0002:00004a30       __real@2b8cbccc            0000000180203a30     GuDistanceSegmentTriangle.obj
 0002:00004a40       __xmm@3f8000013f8000013f8000013f800001 0000000180203a40     GuDistanceSegmentTriangle.obj
 0002:00004a50       __xmm@b4000000b4000000b4000000b4000000 0000000180203a50     GuDistanceSegmentTriangle.obj
 0002:00004a80       __real@26901d7d            0000000180203a80     GuDistanceTriangleTriangle.obj
 0002:00004b00       __xmm@38d1b71738d1b71738d1b71738d1b717 0000000180203b00     GuGJKSimplex.obj
 0002:00004b30       ??_C@_0O@PBAKPCEC@PxHeightField@ 0000000180203b30     GuHeightField.obj
 0002:00004b40       ??_C@_0DK@BGFPCLDF@E?3?2Libraries?2PhysX?2physx?2includ@ 0000000180203b40     GuHeightField.obj
 0002:00004b80       ??_7HeightField@Gu@physx@@6B@ 0000000180203b80     GuHeightField.obj
 0002:00004c38       ??_C@_0DC@BDMMBOKH@PxHeightField?3?3release?3?5double?5@ 0000000180203c38     GuHeightField.obj
 0002:00004c70       ??_C@_0DF@LLAFPPKJ@Gu?3?3HeightField?3?3modifySamples?3@ 0000000180203c70     GuHeightField.obj
 0002:00004cb0       ??_C@_0ED@ILAKOMBI@E?3?2Libraries?2PhysX?2physx?2source@ 0000000180203cb0     GuHeightField.obj
 0002:00004cf8       ??_C@_0CI@DMKEKGNK@Gu?3?3HeightField?3?3load?3?5PX_ALLOC@ 0000000180203cf8     GuHeightField.obj
 0002:00004d20       ??_C@_0DG@LACOBMDE@Gu?3?3HeightField?3?3loadFromDesc?3?5@ 0000000180203d20     GuHeightField.obj
 0002:00004d80       ??_C@_0DH@EJDJIMCB@HeightFieldShape?3?3getTriangle?3?5@ 0000000180203d80     GuHeightFieldUtil.obj
 0002:00004dc0       ??_C@_0EH@BLKGECHP@E?3?2Libraries?2PhysX?2physx?2source@ 0000000180203dc0     GuHeightFieldUtil.obj
 0002:00004e08       __real@3a03126f            0000000180203e08     GuHeightFieldUtil.obj
 0002:00004e0c       __real@3f19999a            0000000180203e0c     GuHeightFieldUtil.obj
 0002:00004e90       ??_7HeightFieldTraceSegmentReport@@6B@ 0000000180203e90     GuSweepsHF.obj
 0002:00004ea0       ??_7CapsuleTraceSegmentReport@@6B@ 0000000180203ea0     GuSweepsHF.obj
 0002:00004eb0       ??_7ConvexTraceSegmentReport@@6B@ 0000000180203eb0     GuSweepsHF.obj
 0002:00004ec0       ??_7BoxTraceSegmentReport@@6B@ 0000000180203ec0     GuSweepsHF.obj
 0002:00004ed0       __real@aedbe6ff            0000000180203ed0     GuSweepsHF.obj
 0002:00004f00       __real@3089705f            0000000180203f00     GuIntersectionRayBox.obj
 0002:00004f04       __real@b4000000            0000000180203f04     GuIntersectionRayBox.obj
 0002:00004f10       __xmm@000000003089705f3089705f3089705f 0000000180203f10     GuIntersectionRayBox.obj
 0002:00004f20       __xmm@00000000bf800000bf800000bf800000 0000000180203f20     GuIntersectionRayBox.obj
 0002:00004f70       ??_7SourceMeshBase@Gu@physx@@6B@ 0000000180203f70     GuBV4.obj
 0002:00004f98       ??_7SourceMesh@Gu@physx@@6B@ 0000000180203f98     GuBV4.obj
 0002:00004fc0       ??_7TetrahedronSourceMesh@Gu@physx@@6B@ 0000000180203fc0     GuBV4.obj
 0002:00004fe8       ??_C@_0DN@OHBGAANN@E?3?2Libraries?2PhysX?2physx?2source@ 0000000180203fe8     GuBV4.obj
 0002:00005030       __xmm@ff7fffffff7fffffff7fffffff7fffff 0000000180204030     GuBV4.obj
 0002:00005060       ??_C@_0EC@BALDJHNM@E?3?2Libraries?2PhysX?2physx?2source@ 0000000180204060     GuBV4Build.obj
 0002:000050a4       __real@38000100            00000001802040a4     GuBV4Build.obj
 0002:000050a8       __real@3e93cd3a            00000001802040a8     GuBV4Build.obj
 0002:000050ac       __real@46fffe00            00000001802040ac     GuBV4Build.obj
 0002:000050b0       __real@be93cd3a            00000001802040b0     GuBV4Build.obj
 0002:000050e0       __xmm@0000ffff0000ffff0000ffff0000ffff 00000001802040e0     GuBV4_AABBSweep.obj
 0002:000050f0       __xmm@3089705f3089705f3089705f3089705f 00000001802040f0     GuBV4_AABBSweep.obj
 0002:00005100       __xmm@33d6bf9533d6bf9533d6bf9533d6bf95 0000000180204100     GuBV4_AABBSweep.obj
 0002:00005110       __xmm@40000000400000004000000040000000 0000000180204110     GuBV4_AABBSweep.obj
 0002:000051a0       __xmm@322bcc77322bcc77322bcc77322bcc77 00000001802041a0     GuBV4_MeshMeshOverlap.obj
 0002:000051f0       __real@00000000            00000001802041f0     GuBV4_Raycast.obj
 0002:00005220       __real@4f7fffff            0000000180204220     GuBV4_SphereOverlap.obj
 0002:00005270       __xmm@000000007f7fffff0000000000000000 0000000180204270     GuMidphaseBV4.obj
 0002:000052e0       ??_C@_0DK@FFHPKGEP@PxMeshQuery?3?3getTriangle?3?5trian@ 00000001802042e0     GuMeshQuery.obj
 0002:00005320       ??_C@_0ED@IIOCBEHD@E?3?2Libraries?2PhysX?2physx?2source@ 0000000180204320     GuMeshQuery.obj
 0002:00005370       ??_C@_0FD@EHCCILIF@Adjacency?5information?5not?5creat@ 0000000180204370     GuMeshQuery.obj
 0002:000053d0       ??_C@_0FA@MCAAGAGM@findOverlapTriangleMesh?3?5Only?5b@ 00000001802043d0     GuMeshQuery.obj
 0002:00005420       ??_C@_0FL@BKNMAHIA@PxMeshQuery?3?3findOverlapTriangl@ 0000000180204420     GuMeshQuery.obj
 0002:00005480       ??_C@_0EM@BEFNLPHI@findOverlapHeightField?3?5Only?5bo@ 0000000180204480     GuMeshQuery.obj
 0002:000054d0       ??_C@_0CJ@NLNHIMDM@PxMeshQuery?3?3sweep?$CI?$CJ?3?5pose?5is?5n@ 00000001802044d0     GuMeshQuery.obj
 0002:00005500       ??_C@_0CM@BFKJPOOO@PxMeshQuery?3?3sweep?$CI?$CJ?3?5unitDir?5i@ 0000000180204500     GuMeshQuery.obj
 0002:00005530       ??_C@_0CN@JKBDLLPP@PxMeshQuery?3?3sweep?$CI?$CJ?3?5distance?5@ 0000000180204530     GuMeshQuery.obj
 0002:00005560       ??_C@_0DN@DPNNFGGF@PxMeshQuery?3?3sweep?$CI?$CJ?3?5sweep?5dis@ 0000000180204560     GuMeshQuery.obj
 0002:000055a0       ??_C@_0BA@MBAFFELP@MeshQuery?4sweep@ 00000001802045a0     GuMeshQuery.obj
 0002:000055b0       ??_C@_0FJ@GNAHJJCM@PxMeshQuery?3?3sweep?$CI?$CJ?3?5geometry?5@ 00000001802045b0     GuMeshQuery.obj
 0002:0000560c       __real@4cbebc20            000000018020460c     GuMeshQuery.obj
 0002:00005630       ??_7Callback@RTree@Gu@physx@@6B@ 0000000180204630     GuMidphaseRTree.obj
 0002:00005648       ??_7?$RayRTreeCallback@$00$0A@@@6BCallbackRaycast@RTree@Gu@physx@@@ 0000000180204648     GuMidphaseRTree.obj
 0002:00005648       ??_7?$RayRTreeCallback@$0A@$0A@@@6BCallbackRaycast@RTree@Gu@physx@@@ 0000000180204648     GuMidphaseRTree.obj
 0002:00005658       ??_7?$RayRTreeCallback@$00$0A@@@6BCallback@RTree@Gu@physx@@@ 0000000180204658     GuMidphaseRTree.obj
 0002:00005658       ??_7?$RayRTreeCallback@$0A@$0A@@@6BCallback@RTree@Gu@physx@@@ 0000000180204658     GuMidphaseRTree.obj
 0002:00005670       ??_7RayMeshColliderCallback@@6B@ 0000000180204670     GuMidphaseRTree.obj
 0002:00005680       ??_C@_0EN@DPPFLBLF@Point?9mesh?5distance?5query?5not?5s@ 0000000180204680     GuMidphaseRTree.obj
 0002:000056d0       ??_C@_0EH@NFAFPFIK@E?3?2Libraries?2PhysX?2physx?2source@ 00000001802046d0     GuMidphaseRTree.obj
 0002:00005718       ??_7?$RayRTreeCallback@$0A@$00@@6BCallbackRaycast@RTree@Gu@physx@@@ 0000000180204718     GuMidphaseRTree.obj
 0002:00005728       ??_7?$RayRTreeCallback@$0A@$00@@6BCallback@RTree@Gu@physx@@@ 0000000180204728     GuMidphaseRTree.obj
 0002:00005740       ??_7?$RayRTreeCallback@$00$00@@6BCallbackRaycast@RTree@Gu@physx@@@ 0000000180204740     GuMidphaseRTree.obj
 0002:00005750       ??_7?$RayRTreeCallback@$00$00@@6BCallback@RTree@Gu@physx@@@ 0000000180204750     GuMidphaseRTree.obj
 0002:000057d0       __xmm@7f7fffff000000000000000000000000 00000001802047d0     GuMidphaseRTree.obj
 0002:00005840       ??_7PxReportCallbackBase@physx@@6B@ 0000000180204840     GuOverlapTestsMesh.obj
 0002:00005870       ??_C@_0EP@CEFGCJKJ@PxGeometryQuery?3?3overlap?$CI?$CJ?3?5onl@ 0000000180204870     GuOverlapTestsMesh.obj
 0002:000058c0       ??_C@_0EK@MPFJJOBH@E?3?2Libraries?2PhysX?2physx?2source@ 00000001802048c0     GuOverlapTestsMesh.obj
 0002:00005920       ?MN@RTreePage@Gu@physx@@2MB 0000000180204920     GuRTree.obj
 0002:00005924       ?MX@RTreePage@Gu@physx@@2MB 0000000180204924     GuRTree.obj
 0002:00005950       ??_C@_0DP@PMCIGEKD@E?3?2Libraries?2PhysX?2physx?2source@ 0000000180204950     GuRTree.obj
 0002:00005a00       ??_7SweepShapeMeshHitCallback@Gu@physx@@6B@ 0000000180204a00     GuSweepsMesh.obj
 0002:00005a10       ??_7SweepCapsuleMeshHitCallback@Gu@physx@@6B@ 0000000180204a10     GuSweepsMesh.obj
 0002:00005a20       ??_7SweepBoxMeshHitCallback@Gu@physx@@6B@ 0000000180204a20     GuSweepsMesh.obj
 0002:00005a30       ??_7SweepConvexMeshHitCallback@Gu@physx@@6B@ 0000000180204a30     GuSweepsMesh.obj
 0002:00005a60       ??_C@_0P@GGNFNHKF@PxTriangleMesh@ 0000000180204a60     GuTriangleMesh.obj
 0002:00005a70       ??_C@_0DL@LBPNAJKI@E?3?2Libraries?2PhysX?2physx?2includ@ 0000000180204a70     GuTriangleMesh.obj
 0002:00005ab0       ??_7TriangleMesh@Gu@physx@@6B@ 0000000180204ab0     GuTriangleMesh.obj
 0002:00005b88       ??_C@_0DD@LOOPMCGG@PxTriangleMesh?3?3release?3?5double@ 0000000180204b88     GuTriangleMesh.obj
 0002:00005bc0       ??_C@_0FH@PMPAJDGI@PxTriangleMesh?3?3getVerticesForM@ 0000000180204bc0     GuTriangleMesh.obj
 0002:00005c20       ??_C@_0EG@PCAFMAAD@E?3?2Libraries?2PhysX?2physx?2source@ 0000000180204c20     GuTriangleMesh.obj
 0002:00005c70       ??_C@_0EF@GMNFLDH@PxTriangleMesh?3?3refitBVH?$CI?$CJ?5is?5n@ 0000000180204c70     GuTriangleMesh.obj
 0002:00005cc0       __xmm@38383838383838383838383838383838 0000000180204cc0     GuTriangleMesh.obj
 0002:00005cf0       ??_C@_0BE@CNJKIINO@PxBVH34TriangleMesh@ 0000000180204cf0     GuTriangleMeshBV4.obj
 0002:00005d08       ??_7BV4TriangleMesh@Gu@physx@@6B@ 0000000180204d08     GuTriangleMeshBV4.obj
 0002:00005de0       ??_C@_0EF@JLFNNPLP@BVH34?5trees?3?5refit?5operation?5on@ 0000000180204de0     GuTriangleMeshBV4.obj
 0002:00005e30       ??_C@_0EJ@IFHONCPA@E?3?2Libraries?2PhysX?2physx?2source@ 0000000180204e30     GuTriangleMeshBV4.obj
 0002:00005e7c       __real@3951b717            0000000180204e7c     GuTriangleMeshBV4.obj
 0002:00005ea0       ??_C@_0BE@EIFHCCBO@PxBVH33TriangleMesh@ 0000000180204ea0     GuTriangleMeshRTree.obj
 0002:00005eb8       ??_7RTreeTriangleMesh@Gu@physx@@6B@ 0000000180204eb8     GuTriangleMeshRTree.obj
 0002:00005f90       ??_7?$RefitCallback@G@physx@@6B@ 0000000180204f90     GuTriangleMeshRTree.obj
 0002:00005fa0       ??_7?$RefitCallback@I@physx@@6B@ 0000000180204fa0     GuTriangleMeshRTree.obj
 0002:00005fd0       ??_C@_0DO@IEMGFJHI@E?3?2Libraries?2PhysX?2physx?2source@ 0000000180204fd0     GuBV32.obj
 0002:00006030       ??_C@_0ED@NNCIMKEG@E?3?2Libraries?2PhysX?2physx?2source@ 0000000180205030     GuBV32Build.obj
 0002:000060a0       ??_C@_0BC@FDAIDHBP@PxTetrahedronMesh@ 00000001802050a0     GuTetrahedronMesh.obj
 0002:000060b8       ??_C@_0DO@PALJKL@E?3?2Libraries?2PhysX?2physx?2includ@ 00000001802050b8     GuTetrahedronMesh.obj
 0002:000060f8       ??_C@_0BK@EPBIEMIB@PxDeformableVolumeAuxData@ 00000001802050f8     GuTetrahedronMesh.obj
 0002:00006118       ??_C@_0BH@OHONILPI@PxDeformableVolumeMesh@ 0000000180205118     GuTetrahedronMesh.obj
 0002:00006130       ??_7DeformableVolumeAuxData@Gu@physx@@6B@ 0000000180205130     GuTetrahedronMesh.obj
 0002:00006178       ??_7TetrahedronMesh@Gu@physx@@6B@ 0000000180205178     GuTetrahedronMesh.obj
 0002:000061f0       ??_7BVTetrahedronMesh@Gu@physx@@6B@ 00000001802051f0     GuTetrahedronMesh.obj
 0002:00006268       ??_7DeformableVolumeMesh@Gu@physx@@6B@ 0000000180205268     GuTetrahedronMesh.obj
 0002:000062e8       ??_C@_0DG@JJNMDPMD@PxTetrahedronMesh?3?3release?3?5dou@ 00000001802052e8     GuTetrahedronMesh.obj
 0002:00006320       ??_C@_0DL@IHNCIOFH@PxDeformableVolumeMesh?3?3release@ 0000000180205320     GuTetrahedronMesh.obj
 0002:00006360       ??_C@_0EJ@GHDNDIGE@E?3?2Libraries?2PhysX?2physx?2source@ 0000000180205360     GuTetrahedronMesh.obj
 0002:000063f0       __xmm@00000000358637bd358637bd358637bd 00000001802053f0     GuPCMContactBoxBox.obj
 0002:00006400       __xmm@3f4ccccd3f4ccccd3f4ccccd3f4ccccd 0000000180205400     GuPCMContactBoxBox.obj
 0002:00006410       __xmm@3f8003473f8003473f8003473f800347 0000000180205410     GuPCMContactBoxBox.obj
 0002:00006420       __xmm@ffffffff00000000ffffffffffffffff 0000000180205420     GuPCMContactBoxBox.obj
 0002:00006450       ??_7?$LocalConvex@VConvexHullNoScaleV@Gu@physx@@@Gu@physx@@6B@ 0000000180205450     GuPCMContactBoxConvex.obj
 0002:00006480       __xmm@3f3504f33f3504f33f3504f33f3504f3 0000000180205480     GuPCMContactBoxConvex.obj
 0002:000064d0       __xmm@ffffffffffffffffffffffff00000000 00000001802054d0     GuPCMContactCapsuleCapsule.obj
 0002:00006500       __xmm@3fa000003fa000003fa000003fa00000 0000000180205500     GuPCMContactCapsuleConvex.obj
 0002:00006530       ??_7PCMCapsuleVsHeightfieldContactGenerationCallback@@6B@ 0000000180205530     GuPCMContactCapsuleHeightField.obj
 0002:00006540       __real@3f7f3b64            0000000180205540     GuPCMContactCapsuleHeightField.obj
 0002:00006550       __xmm@3ca3d70a3ca3d70a3ca3d70a3ca3d70a 0000000180205550     GuPCMContactCapsuleHeightField.obj
 0002:000065a0       __xmm@3f7ff9723f7ff9723f7ff9723f7ff972 00000001802055a0     GuPCMContactCapsuleMesh.obj
 0002:000065b0       __xmm@3f7fffef3f7fffef3f7fffef3f7fffef 00000001802055b0     GuPCMContactCapsuleMesh.obj
 0002:000065c0       __xmm@60ad78ec60ad78ec60ad78ec60ad78ec 00000001802055c0     GuPCMContactCapsuleMesh.obj
 0002:000065f0       ??_7?$SupportLocalImpl@VTriangleV@Gu@physx@@@Gu@physx@@6B@ 00000001802055f0     GuPCMContactConvexCommon.obj
 0002:00006610       __xmm@3cf5c2803cf5c2803cf5c2803cf5c280 0000000180205610     GuPCMContactConvexCommon.obj
 0002:00006620       __xmm@3f7851ec3f7851ec3f7851ec3f7851ec 0000000180205620     GuPCMContactConvexCommon.obj
 0002:00006650       ??_7?$RelativeConvex@VConvexHullNoScaleV@Gu@physx@@@Gu@physx@@6B@ 0000000180205650     GuPCMContactConvexConvex.obj
 0002:000066b0       __xmm@3f19999a3f19999a3f19999a3f19999a 00000001802056b0     GuPCMContactConvexHeightField.obj
 0002:00006720       __xmm@3f34fdf43f34fdf43f34fdf43f34fdf4 0000000180205720     GuPCMContactGenBoxConvex.obj
 0002:00006750       __xmm@3f80a3d73f80a3d73f80a3d73f80a3d7 0000000180205750     GuPCMContactGenSphereCapsule.obj
 0002:00006760       __xmm@bba3d70abba3d70abba3d70abba3d70a 0000000180205760     GuPCMContactGenSphereCapsule.obj
 0002:00006790       __xmm@3f7ffd613f7ffd613f7ffd613f7ffd61 0000000180205790     GuPCMContactPlaneBox.obj
 0002:000067e0       __xmm@3a03126f3a03126f3a03126f3a03126f 00000001802057e0     GuPCMContactPlaneConvex.obj
 0002:00006900       __xmm@3727c5ac3727c5ac3727c5ac3727c5ac 0000000180205900     GuPCMContactSphereSphere.obj
 0002:00006930       __xmm@3f7f06f73f7f06f73f7f06f73f7f06f7 0000000180205930     GuPCMContactCustomGeometry.obj
 0002:00006950       ?gPCMBoxPolygonData@Gu@physx@@3QBEB 0000000180205950     GuPCMShapeConvex.obj
 0002:000069b0       ?invalidateThresholds@Gu@physx@@3QBMB 00000001802059b0     GuPersistentContactManifold.obj
 0002:000069c8       ?invalidateQuatThresholds@Gu@physx@@3QBMB 00000001802059c8     GuPersistentContactManifold.obj
 0002:000069e0       ?invalidateThresholds2@Gu@physx@@3QBMB 00000001802059e0     GuPersistentContactManifold.obj
 0002:000069f0       ?invalidateQuatThresholds2@Gu@physx@@3QBMB 00000001802059f0     GuPersistentContactManifold.obj
 0002:00006a10       __xmm@00000000340000003400000034000000 0000000180205a10     GuPersistentContactManifold.obj
 0002:00006a20       __xmm@ffffffffffffffff00000000ffffffff 0000000180205a20     GuPersistentContactManifold.obj
 0002:00006a50       __xmm@c1200000c1200000c1200000c1200000 0000000180205a50     GuPCMContactGenUtil.obj
 0002:00006ba0       ??_C@_0CH@DHJGKCPD@Gu?3?3computeBounds?3?5Unknown?5shap@ 0000000180205ba0     GuBounds.obj
 0002:00006bc8       ??_C@_0DL@HMOFKKOE@E?3?2Libraries?2PhysX?2physx?2source@ 0000000180205bc8     GuBounds.obj
 0002:00006c04       __real@34800000            0000000180205c04     GuBounds.obj
 0002:00006c08       __real@3f7fffef            0000000180205c08     GuBounds.obj
 0002:00006c10       __xmm@3f8147ae3f8147ae3f8147ae3f8147ae 0000000180205c10     GuBounds.obj
 0002:00006c40       ??_C@_0DN@NIGEEDLN@E?3?2Libraries?2PhysX?2physx?2source@ 0000000180205c40     GuAABBTree.obj
 0002:00006c80       __xmm@5a60b17f5a60b17f5a60b17f5a60b17f 0000000180205c80     GuAABBTree.obj
 0002:00006c90       __xmm@da60b17fda60b17fda60b17fda60b17f 0000000180205c90     GuAABBTree.obj
 0002:00006d00       ??_C@_0EI@HLCFBEAF@E?3?2Libraries?2PhysX?2physx?2source@ 0000000180205d00     GuIncrementalAABBTree.obj
 0002:00006d48       ??_C@_0DF@NDEBBOLP@E?3?2Libraries?2PhysX?2physx?2includ@ 0000000180205d48     GuIncrementalAABBTree.obj
 0002:00006d80       ??_C@_0DI@CJCEBDEJ@E?3?2Libraries?2PhysX?2physx?2source@ 0000000180205d80     GuSAH.obj
 0002:00006de0       ??_7PxBVH@physx@@6B@       0000000180205de0     GuBVH.obj
 0002:00006e58       ??_C@_05OKJNPKBM@PxBVH@    0000000180205e58     GuBVH.obj
 0002:00006e60       ??_C@_0DC@JIPKJNBE@E?3?2Libraries?2PhysX?2physx?2includ@ 0000000180205e60     GuBVH.obj
 0002:00006e98       ??_7RefCountable@Cm@physx@@6B@ 0000000180205e98     GuBVH.obj
 0002:00006ea8       ??_7BVH@Gu@physx@@6BPxBVH@2@@ 0000000180205ea8     GuBVH.obj
 0002:00006f20       ??_7BVH@Gu@physx@@6BRefCountable@Cm@2@@ 0000000180205f20     GuBVH.obj
 0002:00006f30       ??_C@_0DI@DLEMIALM@E?3?2Libraries?2PhysX?2physx?2source@ 0000000180205f30     GuBVH.obj
 0002:00006f68       ??_C@_0CK@HAIOEINI@PxBVH?3?3release?3?5double?5deletion@ 0000000180205f68     GuBVH.obj
 0002:00006fc0       ??_C@_0EO@MFEMDDND@E?3?2Libraries?2PhysX?2physx?2source@ 0000000180205fc0     GuIncrementalAABBPrunerCore.obj
 0002:00007010       __real@3f80a3d7            0000000180206010     GuIncrementalAABBPrunerCore.obj
 0002:00007040       ??_7BasePruner@Gu@physx@@6B@ 0000000180206040     GuIncrementalAABBPruner.obj
 0002:00007058       ??_7IncrementalAABBPruner@Gu@physx@@6B@ 0000000180206058     GuIncrementalAABBPruner.obj
 0002:000070e0       ??_C@_0BM@FLAABPLG@SceneQuery?4prunerAddObjects@ 00000001802060e0     GuIncrementalAABBPruner.obj
 0002:00007100       ??_C@_0BP@EAAOKPEE@SceneQuery?4prunerUpdateObjects@ 0000000180206100     GuIncrementalAABBPruner.obj
 0002:00007120       ??_C@_0BP@EHMBNBOH@SceneQuery?4prunerRemoveObjects@ 0000000180206120     GuIncrementalAABBPruner.obj
 0002:00007140       ??_C@_0BI@HOKOKBIM@SceneQuery?4prunerCommit@ 0000000180206140     GuIncrementalAABBPruner.obj
 0002:00007160       ??_C@_0EK@BGBJBOHI@E?3?2Libraries?2PhysX?2physx?2source@ 0000000180206160     GuIncrementalAABBPruner.obj
 0002:000071d0       ??_C@_0BE@PKINCBHP@PruningPool?3?3resize@ 00000001802061d0     GuPruningPool.obj
 0002:000071f0       ??_C@_0EA@ODIDMKIB@E?3?2Libraries?2PhysX?2physx?2source@ 00000001802061f0     GuPruningPool.obj
 0002:00007230       ??_C@_0BI@HMDEMGJB@PruningPool?3?3addObjects@ 0000000180206230     GuPruningPool.obj
 0002:00007248       ??_C@_0BK@JPNIEHEJ@PruningPool?3?3removeObject@ 0000000180206248     GuPruningPool.obj
 0002:00007268       ??_C@_0BJ@GNLAFFBD@PruningPool?3?3shiftOrigin@ 0000000180206268     GuPruningPool.obj
 0002:00007288       ??_C@_0CE@MGPCCKGE@PruningPool?3?3updateAndInflateBo@ 0000000180206288     GuPruningPool.obj
 0002:000072f0       ??_7BucketPruner@Gu@physx@@6B@ 00000001802062f0     GuBucketPruner.obj
 0002:00007380       ??_C@_0EB@KGPPINCG@E?3?2Libraries?2PhysX?2physx?2source@ 0000000180206380     GuBucketPruner.obj
 0002:000073d0       __xmm@000000007e7fffff7e7fffff7e7fffff 00000001802063d0     GuBucketPruner.obj
 0002:000073e0       __xmm@00000000fe7ffffffe7ffffffe7fffff 00000001802063e0     GuBucketPruner.obj
 0002:000073f0       __xmm@3f13cd3a3f13cd3a3f13cd3a3f13cd3a 00000001802063f0     GuBucketPruner.obj
 0002:00007400       __xmm@bf13cd3a3f13cd3a3f13cd3abf13cd3a 0000000180206400     GuBucketPruner.obj
 0002:00007410       __xmm@bf13cd3a3f13cd3abf13cd3a3f13cd3a 0000000180206410     GuBucketPruner.obj
 0002:00007420       __xmm@bf13cd3abf13cd3a3f13cd3a3f13cd3a 0000000180206420     GuBucketPruner.obj
 0002:00007430       __xmm@bf13cd3abf13cd3abf13cd3a3f13cd3a 0000000180206430     GuBucketPruner.obj
 0002:00007440       ?mIndices@MaverickNode@Gu@physx@@2QBIB 0000000180206440     GuMaverickNode.obj
 0002:000074a0       ??_C@_0EJ@DDHHPLIJ@E?3?2Libraries?2PhysX?2physx?2source@ 00000001802064a0     GuExtendedBucketPruner.obj
 0002:00007510       ??_7CompanionPruner@Gu@physx@@6B@ 0000000180206510     GuSecondaryPruner.obj
 0002:00007590       ??_7CompanionPrunerBucket@@6B@ 0000000180206590     GuSecondaryPruner.obj
 0002:00007610       ??_7CompanionPrunerIncremental@@6B@ 0000000180206610     GuSecondaryPruner.obj
 0002:00007690       ??_7CompanionPrunerAABBTree@@6B@ 0000000180206690     GuSecondaryPruner.obj
 0002:00007710       ??_C@_0EE@FOJKBKBH@E?3?2Libraries?2PhysX?2physx?2source@ 0000000180206710     GuSecondaryPruner.obj
 0002:00007780       ??_7AABBPruner@Gu@physx@@6B@ 0000000180206780     GuAABBPruner.obj
 0002:00007820       ??_C@_0CC@JANKLMNO@SceneQuery?4bucketPrunerAddObjec@ 0000000180206820     GuAABBPruner.obj
 0002:00007850       ??_C@_0LA@IHBEIKND@SceneQuery?5static?5AABB?5Tree?5reb@ 0000000180206850     GuAABBPruner.obj
 0002:00007900       ??_C@_0DP@MPAKFNNO@E?3?2Libraries?2PhysX?2physx?2source@ 0000000180206900     GuAABBPruner.obj
 0002:00007940       ??_C@_0CB@JOCHAJIC@SceneQuery?4prunerNewTreeFinaliz@ 0000000180206940     GuAABBPruner.obj
 0002:00007968       ??_C@_0BP@IOICCIGM@SceneQuery?4prunerNewTreeSwitch@ 0000000180206968     GuAABBPruner.obj
 0002:00007988       ??_C@_0CA@LJGALBJD@SceneQuery?4prunerNewTreeMapping@ 0000000180206988     GuAABBPruner.obj
 0002:000079a8       ??_C@_0CD@OCIEMIME@SceneQuery?4prunerNewTreeFinalRe@ 00000001802069a8     GuAABBPruner.obj
 0002:000079d0       ??_C@_0CG@PMFEEPAE@SceneQuery?4prunerNewTreeRemoveO@ 00000001802069d0     GuAABBPruner.obj
 0002:000079f8       ??_C@_0BL@NAENOAHO@SceneQuery?4prunerBuildStep@ 00000001802069f8     GuAABBPruner.obj
 0002:00007a18       ??_C@_0CC@MJCIDELA@SceneQuery?4prunerNewTreeFullRef@ 0000000180206a18     GuAABBPruner.obj
 0002:00007a40       ??_C@_0BI@DAHHAEPA@SceneQuery?4prepareBuild@ 0000000180206a40     GuAABBPruner.obj
 0002:00007a58       ??_C@_0CF@PDMDBIIO@SceneQuery?4prunerFullRebuildAAB@ 0000000180206a58     GuAABBPruner.obj
 0002:00007a80       ??_C@_0CE@GKMPPEJP@SceneQuery?4prunerUpdateBucketPr@ 0000000180206a80     GuAABBPruner.obj
 0002:00007aa8       ??_C@_0CI@MKOHFNNO@SceneQuery?4prunerRefitUpdatedAn@ 0000000180206aa8     GuAABBPruner.obj
 0002:00007ad0       ??_C@_0EC@BCAEMNAP@E?3?2Libraries?2PhysX?2physx?2source@ 0000000180206ad0     GuActorShapeMap.obj
 0002:00007b40       ??_C@_0BF@DNABLJAF@Invalid?5pruner?5index@ 0000000180206b40     GuQuerySystem.obj
 0002:00007b60       ??_C@_0EA@LNOFDCAL@E?3?2Libraries?2PhysX?2physx?2source@ 0000000180206b60     GuQuerySystem.obj
 0002:00007ba0       ??_C@_0BO@MMDENGGP@QuerySystem?4processDirtyLists@ 0000000180206ba0     GuQuerySystem.obj
 0002:00007bc0       ??_C@_0BE@PHJMAGEL@QuerySystem?3?3update@ 0000000180206bc0     GuQuerySystem.obj
 0002:00007bd8       ??_C@_0BK@GODFCMPK@QuerySystem?4commitUpdates@ 0000000180206bd8     GuQuerySystem.obj
 0002:00007c28       ??_C@_0CA@NAJNANMC@QuerySystem?4createTreeOfPruners@ 0000000180206c28     GuQuerySystem.obj
 0002:00007c70       ??_C@_0DM@MCFDNICA@E?3?2Libraries?2PhysX?2physx?2source@ 0000000180206c70     GuFactory.obj
 0002:00007cd0       ?reductionFactors@SubSortQuick@physx@@2QBMB 0000000180206cd0     GuRTreeCooking.obj
 0002:00007ce0       ?stopAtTrisPerLeaf1@SubSortQuick@physx@@2QBIB 0000000180206ce0     GuRTreeCooking.obj
 0002:00007d90       ??_C@_0EJ@NFKDLBHM@E?3?2Libraries?2PhysX?2physx?2source@ 0000000180206d90     GuRTreeCooking.obj
 0002:00007ddc       __real@41100000            0000000180206ddc     GuRTreeCooking.obj
 0002:00007de0       __real@41700000            0000000180206de0     GuRTreeCooking.obj
 0002:00007de4       __real@42200000            0000000180206de4     GuRTreeCooking.obj
 0002:00007df0       __xmm@00000004000000030000000200000001 0000000180206df0     GuRTreeCooking.obj
 0002:00007e20       ??_C@_0EH@BDHEIMPK@E?3?2Libraries?2PhysX?2physx?2source@ 0000000180206e20     GuCookingBVH.obj
 0002:00007e68       ??_C@_0DL@JHPKHGFA@Cooking?3?3cookBVH?3?5user?9provided@ 0000000180206e68     GuCookingBVH.obj
 0002:00007ea8       ??_C@_0DN@PLNPGFEB@Cooking?3?3createBVH?3?5user?9provid@ 0000000180206ea8     GuCookingBVH.obj
 0002:00007ef0       ??_C@_0EL@JCJBAPHL@Cooking?3?3cookHeightField?3?5user?9@ 0000000180206ef0     GuCookingHF.obj
 0002:00007f40       ??_C@_0EG@IONLJPNF@E?3?2Libraries?2PhysX?2physx?2source@ 0000000180206f40     GuCookingHF.obj
 0002:00007f90       ??_C@_0EN@FCEPCAFC@Cooking?3?3createHeightField?3?5use@ 0000000180206f90     GuCookingHF.obj
 0002:00007fe0       ??_C@_0EK@EKAIJEBL@Cooking?3?3cookConvexMesh?3?5user?9p@ 0000000180206fe0     GuCookingConvexMesh.obj
 0002:00008030       ??_C@_0FA@GFFGAPML@Cooking?3?3cookConvexMesh?3?5provid@ 0000000180207030     GuCookingConvexMesh.obj
 0002:00008080       ??_C@_0EP@PKDCPNNO@Cooking?3?3cookConvexMesh?3?5provid@ 0000000180207080     GuCookingConvexMesh.obj
 0002:000080d0       ??_C@_0EO@LKFMMDE@Cooking?3?3cookConvexMesh?3?5user?9p@ 00000001802070d0     GuCookingConvexMesh.obj
 0002:00008120       ??_C@_0EL@KJEPJALG@Cooking?3?3cookConvexMesh?3?5user?9p@ 0000000180207120     GuCookingConvexMesh.obj
 0002:00008170       ??_C@_0FM@LHMEBKMM@Cooking?3?3cookConvexMesh?3?5GPU?9co@ 0000000180207170     GuCookingConvexMesh.obj
 0002:000081d0       ??_C@_0FJ@FHCFFABE@Cooking?3?3cookConvexMesh?3?5GPU?9co@ 00000001802071d0     GuCookingConvexMesh.obj
 0002:00008230       ??_C@_0LM@CHONPBFM@Cooking?3?3cookConvexMesh?3?5GPU?9co@ 0000000180207230     GuCookingConvexMesh.obj
 0002:000082f0       ??_C@_0EO@NLIJELMO@E?3?2Libraries?2PhysX?2physx?2source@ 00000001802072f0     GuCookingConvexMesh.obj
 0002:00008360       ??_7TriangleMeshBuilder@physx@@6B@ 0000000180207360     GuCookingTriangleMesh.obj
 0002:00008388       ??_7RTreeTriangleMeshBuilder@physx@@6B@ 0000000180207388     GuCookingTriangleMesh.obj
 0002:000083b0       ??_7BV4TriangleMeshBuilder@physx@@6B@ 00000001802073b0     GuCookingTriangleMesh.obj
 0002:000083e0       ??_C@_0FA@MBICMKHH@E?3?2Libraries?2PhysX?2physx?2source@ 00000001802073e0     GuCookingTriangleMesh.obj
 0002:00008430       ??_C@_0EM@DBPINPE@TriangleMeshBuilder?3?3cleanMesh?3@ 0000000180207430     GuCookingTriangleMesh.obj
 0002:00008480       ??_C@_0EF@MLNDPEDJ@TriangleMeshBuilder?3?3cleanMesh?3@ 0000000180207480     GuCookingTriangleMesh.obj
 0002:000084d0       ??_C@_0FJ@HHJLKGDF@TriangleMesh?3?5triangles?5are?5too@ 00000001802074d0     GuCookingTriangleMesh.obj
 0002:00008530       ??_C@_0CN@KGPHHHLK@TriangleMesh?3?5mesh?5is?5too?5big?5f@ 0000000180207530     GuCookingTriangleMesh.obj
 0002:00008560       ??_C@_0DD@CMJGDCNN@TriangleMesh?3?3loadFromDesc?3?5des@ 0000000180207560     GuCookingTriangleMesh.obj
 0002:000085a0       ??_C@_0ED@ILJJNHIP@TriangleMesh?3?3loadFromDesc?3?5mPa@ 00000001802075a0     GuCookingTriangleMesh.obj
 0002:000085e8       ??_C@_0CK@BJFFGDPK@input?5mesh?5contains?5corrupted?5v@ 00000001802075e8     GuCookingTriangleMesh.obj
 0002:00008620       ??_C@_0EP@FHJBNFFH@Requesting?5SDF?5for?5mesh?5without@ 0000000180207620     GuCookingTriangleMesh.obj
 0002:00008670       ??_C@_0CC@BPIMLJA@input?5sdf?5contains?5corrupted?5da@ 0000000180207670     GuCookingTriangleMesh.obj
 0002:00008698       ??_C@_0BK@JIDHMMCE@BV4?5tree?5failed?5to?5build?4@ 0000000180207698     GuCookingTriangleMesh.obj
 0002:000086b8       ??_C@_0BL@DHNECNBE@BV32?5tree?5failed?5to?5build?4@ 00000001802076b8     GuCookingTriangleMesh.obj
 0002:000086d8       ??_7RTreeCookerRemap@@6B@  00000001802076d8     GuCookingTriangleMesh.obj
 0002:000086f0       ??_C@_0FC@PJIHAFK@Cooking?3?3validateTriangleMesh?3?5@ 00000001802076f0     GuCookingTriangleMesh.obj
 0002:000087d0       ??_7PxCollisionTetrahedronMeshData@physx@@6B@ 00000001802077d0     GuCookingTetrahedronMesh.obj
 0002:00008800       ??_7PxSimulationTetrahedronMeshData@physx@@6B@ 0000000180207800     GuCookingTetrahedronMesh.obj
 0002:00008820       ??_7CollisionTetrahedronMeshData@Gu@physx@@6B@ 0000000180207820     GuCookingTetrahedronMesh.obj
 0002:00008850       ??_7SimulationTetrahedronMeshData@Gu@physx@@6B@ 0000000180207850     GuCookingTetrahedronMesh.obj
 0002:00008870       ??_C@_0FD@LNPGAGNC@E?3?2Libraries?2PhysX?2physx?2source@ 0000000180207870     GuCookingTetrahedronMesh.obj
 0002:000088c8       ??_7?$LocalConvex@VTetrahedronV@Gu@physx@@@Gu@physx@@6B@ 00000001802078c8     GuCookingTetrahedronMesh.obj
 0002:000088f8       ??_C@_0CD@OJGNHLOE@BV4_AABBTree?5tree?5failed?5to?5bui@ 00000001802078f8     GuCookingTetrahedronMesh.obj
 0002:00008920       ??_C@_0DG@NCNIEEHB@TetrahedronMesh?3?3loadFromDesc?3?5@ 0000000180207920     GuCookingTetrahedronMesh.obj
 0002:00008960       ??_C@_0EG@CJIFGLMC@TetrahedronMesh?3?3loadFromDesc?3?5@ 0000000180207960     GuCookingTetrahedronMesh.obj
 0002:000089a8       __real@be2aaaab            00000001802079a8     GuCookingTetrahedronMesh.obj
 0002:000089b0       __xmm@00000003000000030000000300000003 00000001802079b0     GuCookingTetrahedronMesh.obj
 0002:000089e0       __real@3bc79ca10c924223    00000001802079e0     GuCookingVolumeIntegration.obj
 0002:000089e8       __real@3f91111111111111    00000001802079e8     GuCookingVolumeIntegration.obj
 0002:000089f0       __real@3fa5555555555555    00000001802079f0     GuCookingVolumeIntegration.obj
 0002:000089f8       __real@3fa999999999999a    00000001802079f8     GuCookingVolumeIntegration.obj
 0002:00008a00       __real@3fb5555555555555    0000000180207a00     GuCookingVolumeIntegration.obj
 0002:00008a08       __real@3fc5555555555555    0000000180207a08     GuCookingVolumeIntegration.obj
 0002:00008a10       __real@3fe0000000000000    0000000180207a10     GuCookingVolumeIntegration.obj
 0002:00008a18       __real@3ff0000000000000    0000000180207a18     GuCookingVolumeIntegration.obj
 0002:00008a20       __real@4008000000000000    0000000180207a20     GuCookingVolumeIntegration.obj
 0002:00008a28       __real@4010000000000000    0000000180207a28     GuCookingVolumeIntegration.obj
 0002:00008a30       __real@bf91111111111111    0000000180207a30     GuCookingVolumeIntegration.obj
 0002:00008a38       __real@bfa999999999999a    0000000180207a38     GuCookingVolumeIntegration.obj
 0002:00008a40       __real@bfb5555555555555    0000000180207a40     GuCookingVolumeIntegration.obj
 0002:00008a48       __real@bfc5555555555555    0000000180207a48     GuCookingVolumeIntegration.obj
 0002:00008a50       __xmm@3c0888893c0888893c0888893c088889 0000000180207a50     GuCookingVolumeIntegration.obj
 0002:00008a60       __xmm@3c8888893c8888893c8888893c888889 0000000180207a60     GuCookingVolumeIntegration.obj
 0002:00008a70       __xmm@3d2aaaab3d2aaaab3d2aaaab3d2aaaab 0000000180207a70     GuCookingVolumeIntegration.obj
 0002:00008a80       __xmm@3e2aaaab3e2aaaab3e2aaaab3e2aaaab 0000000180207a80     GuCookingVolumeIntegration.obj
 0002:00008a90       __xmm@3f811111111111113f81111111111111 0000000180207a90     GuCookingVolumeIntegration.obj
 0002:00008aa0       __xmm@3f811111111111113f91111111111111 0000000180207aa0     GuCookingVolumeIntegration.obj
 0002:00008ab0       __xmm@3f911111111111113f91111111111111 0000000180207ab0     GuCookingVolumeIntegration.obj
 0002:00008ac0       __xmm@3fa55555555555553fa5555555555555 0000000180207ac0     GuCookingVolumeIntegration.obj
 0002:00008ad0       __xmm@3fa55555555555553fc5555555555555 0000000180207ad0     GuCookingVolumeIntegration.obj
 0002:00008ae0       __xmm@3fd55555555555553fd5555555555555 0000000180207ae0     GuCookingVolumeIntegration.obj
 0002:00008af0       __xmm@3fe00000000000003fe0000000000000 0000000180207af0     GuCookingVolumeIntegration.obj
 0002:00008b00       __xmm@7fffffffffffffff7fffffffffffffff 0000000180207b00     GuCookingVolumeIntegration.obj
 0002:00008b10       __xmm@80000000000000008000000000000000 0000000180207b10     GuCookingVolumeIntegration.obj
 0002:00008b20       ??_7ConvexHullLib@physx@@6B@ 0000000180207b20     GuCookingQuickHullConvexHullLib.obj
 0002:00008b40       ??_7QuickHullConvexHullLib@physx@@6B@ 0000000180207b40     GuCookingQuickHullConvexHullLib.obj
 0002:00008b60       ??_C@_0FK@PPGCCIAH@E?3?2Libraries?2PhysX?2physx?2source@ 0000000180207b60     GuCookingQuickHullConvexHullLib.obj
 0002:00008bc0       ??_C@_0GA@EPPAEJPM@QuickHullConvexHullLib?3?3findSim@ 0000000180207bc0     GuCookingQuickHullConvexHullLib.obj
 0002:00008c20       ??_C@_0FB@NEBIJMML@QuickHullConvexHullLib?3?3findSim@ 0000000180207c20     GuCookingQuickHullConvexHullLib.obj
 0002:00008c80       ??_C@_0FB@CLLCBEMM@QuickHullConvexHullLib?3?3findSim@ 0000000180207c80     GuCookingQuickHullConvexHullLib.obj
 0002:00008cd4       __real@34c00000            0000000180207cd4     GuCookingQuickHullConvexHullLib.obj
 0002:00008cd8       ??_C@_0DP@PJBJBEGF@Meshmerizer?3?3extractHullPolygon@ 0000000180207cd8     GuCookingConvexPolygonsBuilder.obj
 0002:00008d20       ??_C@_0FJ@OCFPFMBM@E?3?2Libraries?2PhysX?2physx?2source@ 0000000180207d20     GuCookingConvexPolygonsBuilder.obj
 0002:00008d80       ??_C@_0DL@IAFKOCCK@ConvexHullBuilder?3?5convex?5hull?5@ 0000000180207d80     GuCookingConvexPolygonsBuilder.obj
 0002:00008dc0       ??_C@_0GF@OJLJHAMH@ConvexHullBuilder?3?3CreateTriang@ 0000000180207dc0     GuCookingConvexPolygonsBuilder.obj
 0002:00008e50       ??_C@_0DF@LLFJIJGM@Gu?3?3ConvexMesh?3?3loadFromDesc?3?5d@ 0000000180207e50     GuCookingConvexMeshBuilder.obj
 0002:00008e90       ??_C@_0HK@JOGKIEAA@Gu?3?3ConvexMesh?3?5Mesh?5has?5a?5nega@ 0000000180207e90     GuCookingConvexMeshBuilder.obj
 0002:00008f10       ??_C@_0DH@NJPPHFFD@Gu?3?3ConvexMesh?3?5Error?5computing@ 0000000180207f10     GuCookingConvexMeshBuilder.obj
 0002:00008f48       ??_C@_0DJ@LJDLGLDJ@Gu?3?3ConvexMesh?3?3loadConvexHull?3@ 0000000180207f48     GuCookingConvexMeshBuilder.obj
 0002:00008f90       ??_C@_0HJ@KJANPPOE@ConvexMeshBuilder?3?3computeHullP@ 0000000180207f90     GuCookingConvexMeshBuilder.obj
 0002:00009010       ??_C@_0FF@KJCDHPKD@E?3?2Libraries?2PhysX?2physx?2source@ 0000000180208010     GuCookingConvexMeshBuilder.obj
 0002:00009068       ??_C@_06KDGGGLIJ@PxVec3@   0000000180208068     GuCookingConvexMeshBuilder.obj
 0002:00009070       ??_C@_05LMJPANIN@PxU32@    0000000180208070     GuCookingConvexMeshBuilder.obj
 0002:00009078       ??_C@_0O@JMAGMMGG@PxHullPolygon@ 0000000180208078     GuCookingConvexMeshBuilder.obj
 0002:00009088       __real@3f13cd3a            0000000180208088     GuCookingConvexMeshBuilder.obj
 0002:000090b0       ??_C@_0FD@MMHBFGMJ@E?3?2Libraries?2PhysX?2physx?2source@ 00000001802080b0     GuCookingConvexHullUtils.obj
 0002:00009104       __real@3e20d97c            0000000180208104     GuCookingConvexHullUtils.obj
 0002:00009110       ??_C@_0FB@MBKENJA@E?3?2Libraries?2PhysX?2physx?2source@ 0000000180208110     GuCookingConvexHullLib.obj
 0002:00009170       ??_C@_0JE@PABBNGEL@ConvexHullLib?3?3cleanupVertices?3@ 0000000180208170     GuCookingConvexHullLib.obj
 0002:00009230       ??_C@_0FF@GHIHNPPG@E?3?2Libraries?2PhysX?2physx?2source@ 0000000180208230     GuCookingConvexHullBuilder.obj
 0002:00009290       ??_C@_0EB@DCEIFDGC@ConvexHullBuilder?3?3init?3?5convex@ 0000000180208290     GuCookingConvexHullBuilder.obj
 0002:000092e0       ??_C@_0FM@KICBLCBH@Gu?3?3ConvexMesh?3?3checkHullPolygo@ 00000001802082e0     GuCookingConvexHullBuilder.obj
 0002:00009340       ??_C@_0GO@HBFIOGLL@Gu?3?3ConvexMesh?3?3checkHullPolygo@ 0000000180208340     GuCookingConvexHullBuilder.obj
 0002:000093b0       ??_C@_0HF@OLJFBIEL@ConvexHullBuilder?3?5convex?5hull?5@ 00000001802083b0     GuCookingConvexHullBuilder.obj
 0002:00009430       ??_C@_0OG@JNHFOIL@ConvexHullBuilder?3?5convex?5hull?5@ 0000000180208430     GuCookingConvexHullBuilder.obj
 0002:00009520       ??_C@_0EJ@NIOIBAKH@Cooking?3?3cookConvexMesh?3?5non?9ma@ 0000000180208520     GuCookingConvexHullBuilder.obj
 0002:00009590       ??_C@_0FI@PHNPJJNK@E?3?2Libraries?2PhysX?2physx?2source@ 0000000180208590     GuCookingBigConvexDataBuilder.obj
 0002:000095e8       __real@437f0000            00000001802085e8     GuCookingSDF.obj
 0002:000095ec       __real@477fff00            00000001802085ec     GuCookingSDF.obj
 0002:000095f0       __sz_PhysXFoundation_64_dll 00000001802085f0     PhysXFoundation_64:PhysXFoundation_64.dll
 0002:00009608       ??_C@_1BK@DBDEIDLH@?$AAK?$AAE?$AAR?$AAN?$AAE?$AAL?$AA3?$AA2?$AA?4?$AAD?$AAL?$AAL@ 0000000180208608     Delayimp:delayhlp.obj
 0002:00009628       ??_C@_0BI@OMNLIJDB@AcquireSRWLockExclusive@ 0000000180208628     Delayimp:delayhlp.obj
 0002:00009640       ??_C@_0BI@HMIEPCNJ@ReleaseSRWLockExclusive@ 0000000180208640     Delayimp:delayhlp.obj
 0002:00009658       __pfnDliFailureHook2       0000000180208658     Delayimp:delayhk1.obj
 0002:00009660       __bChangeProtectionOfWholeDloadSection 0000000180208660     Delayimp:delaygv1.obj
 0002:00009670       ??_7type_info@@6B@         0000000180208670     LIBCMT:std_type_info_static.obj
 0002:000096e0       _pDefaultRawDllMain        00000001802086e0     LIBCMT:dll_dllmain.obj
 0002:000096e0       _pRawDllMain               00000001802086e0     LIBCMT:dll_dllmain.obj
 0002:000096f0       _load_config_used          00000001802086f0     LIBCMT:loadcfg.obj
 0002:00009830       _pDestructExceptionObject  0000000180208830     libvcruntime:ehhelpers.obj
 0002:00009f50       ??_C@_08EHJDFFNH@__based?$CI@ 0000000180208f50     libvcruntime:undname.obj
 0002:00009f60       ??_C@_07KOLFKCDI@__cdecl@  0000000180208f60     libvcruntime:undname.obj
 0002:00009f68       ??_C@_09IFJBGAPI@__stdcall@ 0000000180208f68     libvcruntime:undname.obj
 0002:00009f78       ??_C@_0L@NPHFGOKO@__thiscall@ 0000000180208f78     libvcruntime:undname.obj
 0002:00009f88       ??_C@_0L@JMKHOMEK@__fastcall@ 0000000180208f88     libvcruntime:undname.obj
 0002:00009f98       ??_C@_0N@BCKKPABJ@__vectorcall@ 0000000180208f98     libvcruntime:undname.obj
 0002:00009fa8       ??_C@_0BA@NAGGFLJK@__preserve_none@ 0000000180208fa8     libvcruntime:undname.obj
 0002:00009fb8       ??_C@_09HIJEGCPM@__clrcall@ 0000000180208fb8     libvcruntime:undname.obj
 0002:00009fc4       ??_C@_06GHPCKEAG@__eabi@   0000000180208fc4     libvcruntime:undname.obj
 0002:00009fd0       ??_C@_09IOPIDJLG@__swift_1@ 0000000180208fd0     libvcruntime:undname.obj
 0002:00009fe0       ??_C@_09KFNFGKHF@__swift_2@ 0000000180208fe0     libvcruntime:undname.obj
 0002:00009ff0       ??_C@_09LMMOFLDE@__swift_3@ 0000000180208ff0     libvcruntime:undname.obj
 0002:0000a000       ??_C@_07JOMMBBKO@__ptr64@  0000000180209000     libvcruntime:undname.obj
 0002:0000a008       ??_C@_0L@PILCLIHE@__restrict@ 0000000180209008     libvcruntime:undname.obj
 0002:0000a018       ??_C@_0M@GFIIJFMG@__unaligned@ 0000000180209018     libvcruntime:undname.obj
 0002:0000a028       ??_C@_09DHDLOLLB@restrict?$CI@ 0000000180209028     libvcruntime:undname.obj
 0002:0000a034       ??_C@_04NIHEBCM@?5new@     0000000180209034     libvcruntime:undname.obj
 0002:0000a040       ??_C@_07FPCDHGMM@?5delete@ 0000000180209040     libvcruntime:undname.obj
 0002:0000a048       ??_C@_01NEMOKFLO@?$DN@     0000000180209048     libvcruntime:undname.obj
 0002:0000a04c       ??_C@_02GPIOPFAK@?$DO?$DO@ 000000018020904c     libvcruntime:undname.obj
 0002:0000a050       ??_C@_02FODMEDOG@?$DM?$DM@ 0000000180209050     libvcruntime:undname.obj
 0002:0000a054       ??_C@_01DCLJPIOD@?$CB@     0000000180209054     libvcruntime:undname.obj
 0002:0000a058       ??_C@_02EGOFBIJA@?$DN?$DN@ 0000000180209058     libvcruntime:undname.obj
 0002:0000a05c       ??_C@_02FDNJECIE@?$CB?$DN@ 000000018020905c     libvcruntime:undname.obj
 0002:0000a060       ??_C@_02GPECMEKF@?$FL?$FN@ 0000000180209060     libvcruntime:undname.obj
 0002:0000a068       ??_C@_08LHJFAFGD@operator@ 0000000180209068     libvcruntime:undname.obj
 0002:0000a074       ??_C@_02HBOOOICD@?9?$DO@   0000000180209074     libvcruntime:undname.obj
 0002:0000a078       ??_C@_01NBENCBCI@?$CK@     0000000180209078     libvcruntime:undname.obj
 0002:0000a07c       ??_C@_02ECNGHCIF@?$CL?$CL@ 000000018020907c     libvcruntime:undname.obj
 0002:0000a080       ??_C@_02BAABKJLB@?9?9@     0000000180209080     libvcruntime:undname.obj
 0002:0000a084       ??_C@_01JOAMLHOP@?9@       0000000180209084     libvcruntime:undname.obj
 0002:0000a088       ??_C@_01MIFGBAGJ@?$CL@     0000000180209088     libvcruntime:undname.obj
 0002:0000a08c       ??_C@_01HNPIGOCE@?$CG@     000000018020908c     libvcruntime:undname.obj
 0002:0000a090       ??_C@_03MNHNFDLC@?9?$DO?$CK@ 0000000180209090     libvcruntime:undname.obj
 0002:0000a094       ??_C@_01KMDKNFGN@?1@       0000000180209094     libvcruntime:undname.obj
 0002:0000a098       ??_C@_01FGNFDNOH@?$CF@     0000000180209098     libvcruntime:undname.obj
 0002:0000a09c       ??_C@_01MNNFJEPP@?$DM@     000000018020909c     libvcruntime:undname.obj
 0002:0000a0a0       ??_C@_02EHCHHCKH@?$DM?$DN@ 00000001802090a0     libvcruntime:undname.obj
 0002:0000a0a4       ??_C@_01PPODPGHN@?$DO@     00000001802090a4     libvcruntime:undname.obj
 0002:0000a0a8       ??_C@_02EEKDKGMJ@?$DO?$DN@ 00000001802090a8     libvcruntime:undname.obj
 0002:0000a0ac       ??_C@_01IHBHIGKO@?0@       00000001802090ac     libvcruntime:undname.obj
 0002:0000a0b0       ??_C@_02HCKGKOFO@?$CI?$CJ@ 00000001802090b0     libvcruntime:undname.obj
 0002:0000a0b4       ??_C@_01PJKLJHI@?$HO@      00000001802090b4     libvcruntime:undname.obj
 0002:0000a0b8       ??_C@_01JKBOJNNK@?$FO@     00000001802090b8     libvcruntime:undname.obj
 0002:0000a0bc       ??_C@_01DNKMNLPK@?$HM@     00000001802090bc     libvcruntime:undname.obj
 0002:0000a0c0       ??_C@_02PPKAJPJL@?$CG?$CG@ 00000001802090c0     libvcruntime:undname.obj
 0002:0000a0c4       ??_C@_02NONPIBCD@?$HM?$HM@ 00000001802090c4     libvcruntime:undname.obj
 0002:0000a0c8       ??_C@_02FPIMKNGF@?$CK?$DN@ 00000001802090c8     libvcruntime:undname.obj
 0002:0000a0cc       ??_C@_02FOEOMHFC@?$CL?$DN@ 00000001802090cc     libvcruntime:undname.obj
 0002:0000a0d0       ??_C@_02FKMDLLOA@?9?$DN@   00000001802090d0     libvcruntime:undname.obj
 0002:0000a0d4       ??_C@_02FJEHGPIO@?1?$DN@   00000001802090d4     libvcruntime:undname.obj
 0002:0000a0d8       ??_C@_02FENAOKFI@?$CF?$DN@ 00000001802090d8     libvcruntime:undname.obj
 0002:0000a0dc       ??_C@_03IKFCCPFF@?$DO?$DO?$DN@ 00000001802090dc     libvcruntime:undname.obj
 0002:0000a0e0       ??_C@_03CDNPDDLA@?$DM?$DM?$DN@ 00000001802090e0     libvcruntime:undname.obj
 0002:0000a0e4       ??_C@_02FGJGFEAB@?$CG?$DN@ 00000001802090e4     libvcruntime:undname.obj
 0002:0000a0e8       ??_C@_02DHLNPPGH@?$HM?$DN@ 00000001802090e8     libvcruntime:undname.obj
 0002:0000a0ec       ??_C@_02MHEGNOJ@?$FO?$DN@  00000001802090ec     libvcruntime:undname.obj
 0002:0000a0f0       ??_C@_09IFPLHPGF@?$GAvftable?8@ 00000001802090f0     libvcruntime:undname.obj
 0002:0000a100       ??_C@_09BLBHBJP@?$GAvbtable?8@ 0000000180209100     libvcruntime:undname.obj
 0002:0000a110       ??_C@_07FEEIOKP@?$GAvcall?8@ 0000000180209110     libvcruntime:undname.obj
 0002:0000a118       ??_C@_08LLFFHHDJ@?$GAtypeof?8@ 0000000180209118     libvcruntime:undname.obj
 0002:0000a128       ??_C@_0BF@KDPPACIK@?$GAlocal?5static?5guard?8@ 0000000180209128     libvcruntime:undname.obj
 0002:0000a140       ??_C@_08OBABFOLI@?$GAstring?8@ 0000000180209140     libvcruntime:undname.obj
 0002:0000a150       ??_C@_0BD@JDLKDPAB@?$GAvbase?5destructor?8@ 0000000180209150     libvcruntime:undname.obj
 0002:0000a168       ??_C@_0BN@DEGPLNFK@?$GAvector?5deleting?5destructor?8@ 0000000180209168     libvcruntime:undname.obj
 0002:0000a188       ??_C@_0BO@OBMKPJIG@?$GAdefault?5constructor?5closure?8@ 0000000180209188     libvcruntime:undname.obj
 0002:0000a1a8       ??_C@_0BN@IMDCHIKM@?$GAscalar?5deleting?5destructor?8@ 00000001802091a8     libvcruntime:undname.obj
 0002:0000a1c8       ??_C@_0BO@PFGOCPJJ@?$GAvector?5constructor?5iterator?8@ 00000001802091c8     libvcruntime:undname.obj
 0002:0000a1e8       ??_C@_0BN@LFPFMEDL@?$GAvector?5destructor?5iterator?8@ 00000001802091e8     libvcruntime:undname.obj
 0002:0000a208       ??_C@_0CE@IKBNEHA@?$GAvector?5vbase?5constructor?5itera@ 0000000180209208     libvcruntime:undname.obj
 0002:0000a230       ??_C@_0BL@NILFHHPC@?$GAvirtual?5displacement?5map?8@ 0000000180209230     libvcruntime:undname.obj
 0002:0000a250       ??_C@_0CB@JONCMFFK@?$GAeh?5vector?5constructor?5iterator@ 0000000180209250     libvcruntime:undname.obj
 0002:0000a278       ??_C@_0CA@GCEOPDGL@?$GAeh?5vector?5destructor?5iterator?8@ 0000000180209278     libvcruntime:undname.obj
 0002:0000a298       ??_C@_0CH@OOJPLCPH@?$GAeh?5vector?5vbase?5constructor?5it@ 0000000180209298     libvcruntime:undname.obj
 0002:0000a2c0       ??_C@_0BL@LLKPOHJI@?$GAcopy?5constructor?5closure?8@ 00000001802092c0     libvcruntime:undname.obj
 0002:0000a2e0       ??_C@_0BA@KBCDOMBN@?$GAudt?5returning?8@ 00000001802092e0     libvcruntime:undname.obj
 0002:0000a2f0       ??_C@_03KLGMFNMG@?$GAEH@   00000001802092f0     libvcruntime:undname.obj
 0002:0000a2f4       ??_C@_05KHLCHHI@?$GARTTI@  00000001802092f4     libvcruntime:undname.obj
 0002:0000a300       ??_C@_0BA@KKLDJDLB@?$GAlocal?5vftable?8@ 0000000180209300     libvcruntime:undname.obj
 0002:0000a310       ??_C@_0CE@IIHCMGGL@?$GAlocal?5vftable?5constructor?5clos@ 0000000180209310     libvcruntime:undname.obj
 0002:0000a334       ??_C@_06FHBGPFGH@?5new?$FL?$FN@ 0000000180209334     libvcruntime:undname.obj
 0002:0000a340       ??_C@_09LBNFPBCA@?5delete?$FL?$FN@ 0000000180209340     libvcruntime:undname.obj
 0002:0000a350       ??_C@_0P@HJKNJFNN@?$GAomni?5callsig?8@ 0000000180209350     libvcruntime:undname.obj
 0002:0000a360       ??_C@_0BL@CNOONJFP@?$GAplacement?5delete?5closure?8@ 0000000180209360     libvcruntime:undname.obj
 0002:0000a380       ??_C@_0BN@CKNJLHMB@?$GAplacement?5delete?$FL?$FN?5closure?8@ 0000000180209380     libvcruntime:undname.obj
 0002:0000a3a0       ??_C@_0CG@CFDHKGGD@?$GAmanaged?5vector?5constructor?5ite@ 00000001802093a0     libvcruntime:undname.obj
 0002:0000a3c8       ??_C@_0CF@IMGKMJNO@?$GAmanaged?5vector?5destructor?5iter@ 00000001802093c8     libvcruntime:undname.obj
 0002:0000a3f0       ??_C@_0CG@HLDDJMAG@?$GAeh?5vector?5copy?5constructor?5ite@ 00000001802093f0     libvcruntime:undname.obj
 0002:0000a418       ??_C@_0CM@FCBBDIGB@?$GAeh?5vector?5vbase?5copy?5construct@ 0000000180209418     libvcruntime:undname.obj
 0002:0000a448       ??_C@_0BL@CLIPGLGB@?$GAdynamic?5initializer?5for?5?8@ 0000000180209448     libvcruntime:undname.obj
 0002:0000a468       ??_C@_0CB@PDBIFEP@?$GAdynamic?5atexit?5destructor?5for?5@ 0000000180209468     libvcruntime:undname.obj
 0002:0000a490       ??_C@_0CD@CGAJBKEJ@?$GAvector?5copy?5constructor?5iterat@ 0000000180209490     libvcruntime:undname.obj
 0002:0000a4b8       ??_C@_0CJ@GJELGAMM@?$GAvector?5vbase?5copy?5constructor?5@ 00000001802094b8     libvcruntime:undname.obj
 0002:0000a4e8       ??_C@_0CL@FGIJHLCE@?$GAmanaged?5vector?5copy?5constructo@ 00000001802094e8     libvcruntime:undname.obj
 0002:0000a518       ??_C@_0BM@PMGGMLDN@?$GAlocal?5static?5thread?5guard?8@ 0000000180209518     libvcruntime:undname.obj
 0002:0000a538       ??_C@_0N@BDNMDMOL@operator?5?$CC?$CC?5@ 0000000180209538     libvcruntime:undname.obj
 0002:0000a548       ??_C@_0BC@GGEBGALA@operator?5co_await@ 0000000180209548     libvcruntime:undname.obj
 0002:0000a560       ??_C@_0M@GAAIMMOH@operator?$DM?$DN?$DO@ 0000000180209560     libvcruntime:undname.obj
 0002:0000a570       ??_C@_0BC@DAFEJGAK@?5Type?5Descriptor?8@ 0000000180209570     libvcruntime:undname.obj
 0002:0000a588       ??_C@_0BM@LDKODKLH@?5Base?5Class?5Descriptor?5at?5?$CI@ 0000000180209588     libvcruntime:undname.obj
 0002:0000a5a8       ??_C@_0BD@LGICGFMM@?5Base?5Class?5Array?8@ 00000001802095a8     libvcruntime:undname.obj
 0002:0000a5c0       ??_C@_0BN@MECKDCOJ@?5Class?5Hierarchy?5Descriptor?8@ 00000001802095c0     libvcruntime:undname.obj
 0002:0000a5e0       ??_C@_0BK@CFCOFLF@?5Complete?5Object?5Locator?8@ 00000001802095e0     libvcruntime:undname.obj
 0002:0000a600       ??_C@_0BG@JNJLAMPM@?$GAanonymous?5namespace?8@ 0000000180209600     libvcruntime:undname.obj
 0002:0000a618       ??_C@_04HEJADOOB@CV?3?5@   0000000180209618     libvcruntime:undname.obj
 0002:0000a620       ??_C@_02MOLJINC@?3?3@      0000000180209620     libvcruntime:undname.obj
 0002:0000a628       ??_C@_0BE@JAEOCHPE@template?9parameter?9@ 0000000180209628     libvcruntime:undname.obj
 0002:0000a640       ??_C@_0BF@LNLGBBNL@?$GAtemplate?9parameter?9@ 0000000180209640     libvcruntime:undname.obj
 0002:0000a658       ??_C@_0O@KHGCOMHP@generic?9type?9@ 0000000180209658     libvcruntime:undname.obj
 0002:0000a668       ??_C@_0P@ODDENDLM@?$GAgeneric?9type?9@ 0000000180209668     libvcruntime:undname.obj
 0002:0000a678       ??_C@_02OHHJMEON@?8?8@     0000000180209678     libvcruntime:undname.obj
 0002:0000a680       ??_C@_0BN@IBLMMFAP@?$GAnon?9type?9template?9parameter@ 0000000180209680     libvcruntime:undname.obj
 0002:0000a6a0       ??_C@_03DLDNIBIK@?$CFlf@   00000001802096a0     libvcruntime:undname.obj
 0002:0000a6a4       ??_C@_04OFALKAJ@?$DP?$DP_C@ 00000001802096a4     libvcruntime:undname.obj
 0002:0000a6ac       ??_C@_03KHICJKCI@?4?4?4@   00000001802096ac     libvcruntime:undname.obj
 0002:0000a6b0       ??_C@_04HIBGFPH@NULL@      00000001802096b0     libvcruntime:undname.obj
 0002:0000a6b8       ??_C@_02DPKJAMEF@?$CFd@    00000001802096b8     libvcruntime:undname.obj
 0002:0000a6c0       ??_C@_0BK@IHCCFNEL@?$GAtemplate?9type?9parameter?9@ 00000001802096c0     libvcruntime:undname.obj
 0002:0000a6e0       ??_C@_0BK@OFCNNNKO@?$GAgeneric?9class?9parameter?9@ 00000001802096e0     libvcruntime:undname.obj
 0002:0000a700       ??_C@_0BL@NGJBLFIL@?$GAgeneric?9method?9parameter?9@ 0000000180209700     libvcruntime:undname.obj
 0002:0000a720       ??_C@_07OHNGEDJK@nullptr@  0000000180209720     libvcruntime:undname.obj
 0002:0000a728       ??_C@_06COJIGPIB@lambda@   0000000180209728     libvcruntime:undname.obj
 0002:0000a730       ??_C@_04GKJNKENE@void@     0000000180209730     libvcruntime:undname.obj
 0002:0000a738       ??_C@_0BE@EODMJLIF@?$GAtemplate?9parameter@ 0000000180209738     libvcruntime:undname.obj
 0002:0000a74c       ??_C@_03OPGICMGF@?$HN?8?5@ 000000018020974c     libvcruntime:undname.obj
 0002:0000a750       ??_C@_02IGFCGPIL@?$HN?8@   0000000180209750     libvcruntime:undname.obj
 0002:0000a758       ??_C@_0N@CBHHHENL@?$GAvtordispex?$HL@ 0000000180209758     libvcruntime:undname.obj
 0002:0000a768       ??_C@_0L@GHPFDFH@?$GAvtordisp?$HL@ 0000000180209768     libvcruntime:undname.obj
 0002:0000a778       ??_C@_0L@HNGCOGAE@?$GAadjustor?$HL@ 0000000180209778     libvcruntime:undname.obj
 0002:0000a788       ??_C@_0CB@KJDOOODE@?$GAlocal?5static?5destructor?5helper@ 0000000180209788     libvcruntime:undname.obj
 0002:0000a7b0       ??_C@_0DB@ILEFOCIJ@?$GAtemplate?5static?5data?5member?5co@ 00000001802097b0     libvcruntime:undname.obj
 0002:0000a7e8       ??_C@_0DA@HGFJFBBE@?$GAtemplate?5static?5data?5member?5de@ 00000001802097e8     libvcruntime:undname.obj
 0002:0000a818       ??_C@_07PGOEDBHP@static?5@ 0000000180209818     libvcruntime:undname.obj
 0002:0000a820       ??_C@_08NIEOINHE@virtual?5@ 0000000180209820     libvcruntime:undname.obj
 0002:0000a830       ??_C@_09LAPHOOG@private?3?5@ 0000000180209830     libvcruntime:undname.obj
 0002:0000a840       ??_C@_0M@GAIFPFIP@protected?3?5@ 0000000180209840     libvcruntime:undname.obj
 0002:0000a850       ??_C@_08GPDDCMKI@public?3?5@ 0000000180209850     libvcruntime:undname.obj
 0002:0000a860       ??_C@_08KJLFOPNE@?$FLthunk?$FN?3@ 0000000180209860     libvcruntime:undname.obj
 0002:0000a870       ??_C@_0M@DHNBOJMP@extern?5?$CCC?$CC?5@ 0000000180209870     libvcruntime:undname.obj
 0002:0000a87c       ??_C@_02KCKGHPCA@?$CJ?5@   000000018020987c     libvcruntime:undname.obj
 0002:0000a880       ??_C@_05CIHEBHNO@char?5@   0000000180209880     libvcruntime:undname.obj
 0002:0000a888       ??_C@_06EHJMALKF@short?5@  0000000180209888     libvcruntime:undname.obj
 0002:0000a890       ??_C@_04LAHKHJMA@int?5@    0000000180209890     libvcruntime:undname.obj
 0002:0000a898       ??_C@_05CJIMAING@long?5@   0000000180209898     libvcruntime:undname.obj
 0002:0000a8a0       ??_C@_09EBBEKKIH@unsigned?5@ 00000001802098a0     libvcruntime:undname.obj
